
./perfcount.elf:     file format elf32-littleriscv


Disassembly of section .text:

00010094 <exit>:
   10094:	1141                	add	sp,sp,-16
   10096:	4581                	li	a1,0
   10098:	c422                	sw	s0,8(sp)
   1009a:	c606                	sw	ra,12(sp)
   1009c:	842a                	mv	s0,a0
   1009e:	1ff010ef          	jal	11a9c <__call_exitprocs>
   100a2:	f801a783          	lw	a5,-128(gp) # 1e790 <__stdio_exit_handler>
   100a6:	c391                	beqz	a5,100aa <exit+0x16>
   100a8:	9782                	jalr	a5
   100aa:	8522                	mv	a0,s0
   100ac:	0af0a0ef          	jal	1a95a <_exit>

000100b0 <main>:
   100b0:	fd010113          	add	sp,sp,-48
   100b4:	02112623          	sw	ra,44(sp)
   100b8:	02812423          	sw	s0,40(sp)
   100bc:	02912223          	sw	s1,36(sp)
   100c0:	138000ef          	jal	101f8 <get_instret>
   100c4:	00050413          	mv	s0,a0
   100c8:	11c000ef          	jal	101e4 <get_cycles>
   100cc:	0001d7b7          	lui	a5,0x1d
   100d0:	da878793          	add	a5,a5,-600 # 1cda8 <__trunctfdf2+0x5aa>
   100d4:	0007a803          	lw	a6,0(a5)
   100d8:	0087a603          	lw	a2,8(a5)
   100dc:	00c7a683          	lw	a3,12(a5)
   100e0:	0107a703          	lw	a4,16(a5)
   100e4:	0047a583          	lw	a1,4(a5)
   100e8:	0147a783          	lw	a5,20(a5)
   100ec:	00050493          	mv	s1,a0
   100f0:	00810513          	add	a0,sp,8
   100f4:	01012423          	sw	a6,8(sp)
   100f8:	00c12823          	sw	a2,16(sp)
   100fc:	00d12a23          	sw	a3,20(sp)
   10100:	00e12c23          	sw	a4,24(sp)
   10104:	00f12e23          	sw	a5,28(sp)
   10108:	00b12623          	sw	a1,12(sp)
   1010c:	754000ef          	jal	10860 <ShellSort>
   10110:	0d4000ef          	jal	101e4 <get_cycles>
   10114:	409505b3          	sub	a1,a0,s1
   10118:	0001d537          	lui	a0,0x1d
   1011c:	aa850513          	add	a0,a0,-1368 # 1caa8 <__trunctfdf2+0x2aa>
   10120:	546010ef          	jal	11666 <printf>
   10124:	0001d537          	lui	a0,0x1d
   10128:	00040593          	mv	a1,s0
   1012c:	abc50513          	add	a0,a0,-1348 # 1cabc <__trunctfdf2+0x2be>
   10130:	536010ef          	jal	11666 <printf>
   10134:	02c12083          	lw	ra,44(sp)
   10138:	02812403          	lw	s0,40(sp)
   1013c:	02412483          	lw	s1,36(sp)
   10140:	00000513          	li	a0,0
   10144:	03010113          	add	sp,sp,48
   10148:	00008067          	ret

0001014c <register_fini>:
   1014c:	00000793          	li	a5,0
   10150:	c799                	beqz	a5,1015e <register_fini+0x12>
   10152:	00001517          	auipc	a0,0x1
   10156:	7c050513          	add	a0,a0,1984 # 11912 <__libc_fini_array>
   1015a:	1400106f          	j	1129a <atexit>
   1015e:	8082                	ret

00010160 <_start>:
   10160:	0000e197          	auipc	gp,0xe
   10164:	6b018193          	add	gp,gp,1712 # 1e810 <__global_pointer$>
   10168:	f7c18513          	add	a0,gp,-132 # 1e78c <completed.1>
   1016c:	57418613          	add	a2,gp,1396 # 1ed84 <__BSS_END__>
   10170:	8e09                	sub	a2,a2,a0
   10172:	4581                	li	a1,0
   10174:	7ee010ef          	jal	11962 <memset>
   10178:	00001517          	auipc	a0,0x1
   1017c:	79a50513          	add	a0,a0,1946 # 11912 <__libc_fini_array>
   10180:	11a010ef          	jal	1129a <atexit>
   10184:	724010ef          	jal	118a8 <__libc_init_array>
   10188:	4502                	lw	a0,0(sp)
   1018a:	004c                	add	a1,sp,4
   1018c:	4601                	li	a2,0
   1018e:	370d                	jal	100b0 <main>
   10190:	b711                	j	10094 <exit>

00010192 <__do_global_dtors_aux>:
   10192:	1141                	add	sp,sp,-16
   10194:	c422                	sw	s0,8(sp)
   10196:	f7c18413          	add	s0,gp,-132 # 1e78c <completed.1>
   1019a:	00044783          	lbu	a5,0(s0)
   1019e:	c606                	sw	ra,12(sp)
   101a0:	ef99                	bnez	a5,101be <__do_global_dtors_aux+0x2c>
   101a2:	00000793          	li	a5,0
   101a6:	cb89                	beqz	a5,101b8 <__do_global_dtors_aux+0x26>
   101a8:	0000e517          	auipc	a0,0xe
   101ac:	e5850513          	add	a0,a0,-424 # 1e000 <__EH_FRAME_BEGIN__>
   101b0:	00000097          	auipc	ra,0x0
   101b4:	000000e7          	jalr	zero # 0 <exit-0x10094>
   101b8:	4785                	li	a5,1
   101ba:	00f40023          	sb	a5,0(s0)
   101be:	40b2                	lw	ra,12(sp)
   101c0:	4422                	lw	s0,8(sp)
   101c2:	0141                	add	sp,sp,16
   101c4:	8082                	ret

000101c6 <frame_dummy>:
   101c6:	00000793          	li	a5,0
   101ca:	cb99                	beqz	a5,101e0 <frame_dummy+0x1a>
   101cc:	fc418593          	add	a1,gp,-60 # 1e7d4 <object.0>
   101d0:	0000e517          	auipc	a0,0xe
   101d4:	e3050513          	add	a0,a0,-464 # 1e000 <__EH_FRAME_BEGIN__>
   101d8:	00000317          	auipc	t1,0x0
   101dc:	00000067          	jr	zero # 0 <exit-0x10094>
   101e0:	8082                	ret
	...

000101e4 <get_cycles>:
   101e4:	c80025f3          	rdcycleh	a1
   101e8:	c0002573          	rdcycle	a0
   101ec:	c8002673          	rdcycleh	a2
   101f0:	fec59ae3          	bne	a1,a2,101e4 <get_cycles>
   101f4:	00008067          	ret

000101f8 <get_instret>:
   101f8:	c82025f3          	rdinstreth	a1
   101fc:	c0202573          	rdinstret	a0
   10200:	c8202673          	rdinstreth	a2
   10204:	fec59ae3          	bne	a1,a2,101f8 <get_instret>
   10208:	00008067          	ret

0001020c <sparkle_asm>:
   1020c:	fd010113          	add	sp,sp,-48
   10210:	00812223          	sw	s0,4(sp)
   10214:	00912423          	sw	s1,8(sp)
   10218:	01212623          	sw	s2,12(sp)
   1021c:	01312823          	sw	s3,16(sp)
   10220:	01412a23          	sw	s4,20(sp)
   10224:	01512c23          	sw	s5,24(sp)
   10228:	01712e23          	sw	s7,28(sp)
   1022c:	03812023          	sw	s8,32(sp)
   10230:	03912223          	sw	s9,36(sp)
   10234:	03a12423          	sw	s10,40(sp)
   10238:	03b12623          	sw	s11,44(sp)
   1023c:	0000ee97          	auipc	t4,0xe
   10240:	dd4e8e93          	add	t4,t4,-556 # 1e010 <__DATA_BEGIN__>
   10244:	00052603          	lw	a2,0(a0)
   10248:	00452683          	lw	a3,4(a0)
   1024c:	00852703          	lw	a4,8(a0)
   10250:	00c52783          	lw	a5,12(a0)
   10254:	01052803          	lw	a6,16(a0)
   10258:	01452883          	lw	a7,20(a0)
   1025c:	01852f03          	lw	t5,24(a0)
   10260:	01c52f83          	lw	t6,28(a0)
   10264:	02052c03          	lw	s8,32(a0)
   10268:	02452c83          	lw	s9,36(a0)
   1026c:	02852d03          	lw	s10,40(a0)
   10270:	02c52d83          	lw	s11,44(a0)
   10274:	b7e15437          	lui	s0,0xb7e15
   10278:	16240413          	add	s0,s0,354 # b7e15162 <__BSS_END__+0xb7df63de>
   1027c:	bf7164b7          	lui	s1,0xbf716
   10280:	88048493          	add	s1,s1,-1920 # bf715880 <__BSS_END__+0xbf6f6afc>
   10284:	38b4e937          	lui	s2,0x38b4e
   10288:	a5690913          	add	s2,s2,-1450 # 38b4da56 <__BSS_END__+0x38b2ecd2>
   1028c:	324e79b7          	lui	s3,0x324e7
   10290:	73898993          	add	s3,s3,1848 # 324e7738 <__BSS_END__+0x324c89b4>
   10294:	bb118a37          	lui	s4,0xbb118
   10298:	5eba0a13          	add	s4,s4,1515 # bb1185eb <__BSS_END__+0xbb0f9867>
   1029c:	4f7c8ab7          	lui	s5,0x4f7c8
   102a0:	b57a8a93          	add	s5,s5,-1193 # 4f7c7b57 <__BSS_END__+0x4f7a8dd3>
   102a4:	00000b93          	li	s7,0

000102a8 <Loop>:
   102a8:	000ea283          	lw	t0,0(t4)
   102ac:	004e8e93          	add	t4,t4,4
   102b0:	0177c7b3          	xor	a5,a5,s7
   102b4:	0056c6b3          	xor	a3,a3,t0
   102b8:	01f6d293          	srl	t0,a3,0x1f
   102bc:	00169313          	sll	t1,a3,0x1
   102c0:	0062c2b3          	xor	t0,t0,t1
   102c4:	00560633          	add	a2,a2,t0
   102c8:	01865293          	srl	t0,a2,0x18
   102cc:	00861313          	sll	t1,a2,0x8
   102d0:	0062c2b3          	xor	t0,t0,t1
   102d4:	0056c6b3          	xor	a3,a3,t0
   102d8:	00864633          	xor	a2,a2,s0
   102dc:	0116d293          	srl	t0,a3,0x11
   102e0:	00f69313          	sll	t1,a3,0xf
   102e4:	0062c2b3          	xor	t0,t0,t1
   102e8:	00560633          	add	a2,a2,t0
   102ec:	01165293          	srl	t0,a2,0x11
   102f0:	00f61313          	sll	t1,a2,0xf
   102f4:	0062c2b3          	xor	t0,t0,t1
   102f8:	0056c6b3          	xor	a3,a3,t0
   102fc:	00864633          	xor	a2,a2,s0
   10300:	00d60633          	add	a2,a2,a3
   10304:	01f65293          	srl	t0,a2,0x1f
   10308:	00161313          	sll	t1,a2,0x1
   1030c:	0062c2b3          	xor	t0,t0,t1
   10310:	0056c6b3          	xor	a3,a3,t0
   10314:	00864633          	xor	a2,a2,s0
   10318:	0186d293          	srl	t0,a3,0x18
   1031c:	00869313          	sll	t1,a3,0x8
   10320:	0062c2b3          	xor	t0,t0,t1
   10324:	00560633          	add	a2,a2,t0
   10328:	01065293          	srl	t0,a2,0x10
   1032c:	01061313          	sll	t1,a2,0x10
   10330:	0062c2b3          	xor	t0,t0,t1
   10334:	0056c6b3          	xor	a3,a3,t0
   10338:	00864633          	xor	a2,a2,s0
   1033c:	01f7d293          	srl	t0,a5,0x1f
   10340:	00179313          	sll	t1,a5,0x1
   10344:	0062c2b3          	xor	t0,t0,t1
   10348:	00570733          	add	a4,a4,t0
   1034c:	01875293          	srl	t0,a4,0x18
   10350:	00871313          	sll	t1,a4,0x8
   10354:	0062c2b3          	xor	t0,t0,t1
   10358:	0057c7b3          	xor	a5,a5,t0
   1035c:	00974733          	xor	a4,a4,s1
   10360:	0117d293          	srl	t0,a5,0x11
   10364:	00f79313          	sll	t1,a5,0xf
   10368:	0062c2b3          	xor	t0,t0,t1
   1036c:	00570733          	add	a4,a4,t0
   10370:	01175293          	srl	t0,a4,0x11
   10374:	00f71313          	sll	t1,a4,0xf
   10378:	0062c2b3          	xor	t0,t0,t1
   1037c:	0057c7b3          	xor	a5,a5,t0
   10380:	00974733          	xor	a4,a4,s1
   10384:	00f70733          	add	a4,a4,a5
   10388:	01f75293          	srl	t0,a4,0x1f
   1038c:	00171313          	sll	t1,a4,0x1
   10390:	0062c2b3          	xor	t0,t0,t1
   10394:	0057c7b3          	xor	a5,a5,t0
   10398:	00974733          	xor	a4,a4,s1
   1039c:	0187d293          	srl	t0,a5,0x18
   103a0:	00879313          	sll	t1,a5,0x8
   103a4:	0062c2b3          	xor	t0,t0,t1
   103a8:	00570733          	add	a4,a4,t0
   103ac:	01075293          	srl	t0,a4,0x10
   103b0:	01071313          	sll	t1,a4,0x10
   103b4:	0062c2b3          	xor	t0,t0,t1
   103b8:	0057c7b3          	xor	a5,a5,t0
   103bc:	00974733          	xor	a4,a4,s1
   103c0:	01f8d293          	srl	t0,a7,0x1f
   103c4:	00189313          	sll	t1,a7,0x1
   103c8:	0062c2b3          	xor	t0,t0,t1
   103cc:	00580833          	add	a6,a6,t0
   103d0:	01885293          	srl	t0,a6,0x18
   103d4:	00881313          	sll	t1,a6,0x8
   103d8:	0062c2b3          	xor	t0,t0,t1
   103dc:	0058c8b3          	xor	a7,a7,t0
   103e0:	01284833          	xor	a6,a6,s2
   103e4:	0118d293          	srl	t0,a7,0x11
   103e8:	00f89313          	sll	t1,a7,0xf
   103ec:	0062c2b3          	xor	t0,t0,t1
   103f0:	00580833          	add	a6,a6,t0
   103f4:	01185293          	srl	t0,a6,0x11
   103f8:	00f81313          	sll	t1,a6,0xf
   103fc:	0062c2b3          	xor	t0,t0,t1
   10400:	0058c8b3          	xor	a7,a7,t0
   10404:	01284833          	xor	a6,a6,s2
   10408:	01180833          	add	a6,a6,a7
   1040c:	01f85293          	srl	t0,a6,0x1f
   10410:	00181313          	sll	t1,a6,0x1
   10414:	0062c2b3          	xor	t0,t0,t1
   10418:	0058c8b3          	xor	a7,a7,t0
   1041c:	01284833          	xor	a6,a6,s2
   10420:	0188d293          	srl	t0,a7,0x18
   10424:	00889313          	sll	t1,a7,0x8
   10428:	0062c2b3          	xor	t0,t0,t1
   1042c:	00580833          	add	a6,a6,t0
   10430:	01085293          	srl	t0,a6,0x10
   10434:	01081313          	sll	t1,a6,0x10
   10438:	0062c2b3          	xor	t0,t0,t1
   1043c:	0058c8b3          	xor	a7,a7,t0
   10440:	01284833          	xor	a6,a6,s2
   10444:	01ffd293          	srl	t0,t6,0x1f
   10448:	001f9313          	sll	t1,t6,0x1
   1044c:	0062c2b3          	xor	t0,t0,t1
   10450:	005f0f33          	add	t5,t5,t0
   10454:	018f5293          	srl	t0,t5,0x18
   10458:	008f1313          	sll	t1,t5,0x8
   1045c:	0062c2b3          	xor	t0,t0,t1
   10460:	005fcfb3          	xor	t6,t6,t0
   10464:	013f4f33          	xor	t5,t5,s3
   10468:	011fd293          	srl	t0,t6,0x11
   1046c:	00ff9313          	sll	t1,t6,0xf
   10470:	0062c2b3          	xor	t0,t0,t1
   10474:	005f0f33          	add	t5,t5,t0
   10478:	011f5293          	srl	t0,t5,0x11
   1047c:	00ff1313          	sll	t1,t5,0xf
   10480:	0062c2b3          	xor	t0,t0,t1
   10484:	005fcfb3          	xor	t6,t6,t0
   10488:	013f4f33          	xor	t5,t5,s3
   1048c:	01ff0f33          	add	t5,t5,t6
   10490:	01ff5293          	srl	t0,t5,0x1f
   10494:	001f1313          	sll	t1,t5,0x1
   10498:	0062c2b3          	xor	t0,t0,t1
   1049c:	005fcfb3          	xor	t6,t6,t0
   104a0:	013f4f33          	xor	t5,t5,s3
   104a4:	018fd293          	srl	t0,t6,0x18
   104a8:	008f9313          	sll	t1,t6,0x8
   104ac:	0062c2b3          	xor	t0,t0,t1
   104b0:	005f0f33          	add	t5,t5,t0
   104b4:	010f5293          	srl	t0,t5,0x10
   104b8:	010f1313          	sll	t1,t5,0x10
   104bc:	0062c2b3          	xor	t0,t0,t1
   104c0:	005fcfb3          	xor	t6,t6,t0
   104c4:	013f4f33          	xor	t5,t5,s3
   104c8:	01fcd293          	srl	t0,s9,0x1f
   104cc:	001c9313          	sll	t1,s9,0x1
   104d0:	0062c2b3          	xor	t0,t0,t1
   104d4:	005c0c33          	add	s8,s8,t0
   104d8:	018c5293          	srl	t0,s8,0x18
   104dc:	008c1313          	sll	t1,s8,0x8
   104e0:	0062c2b3          	xor	t0,t0,t1
   104e4:	005cccb3          	xor	s9,s9,t0
   104e8:	014c4c33          	xor	s8,s8,s4
   104ec:	011cd293          	srl	t0,s9,0x11
   104f0:	00fc9313          	sll	t1,s9,0xf
   104f4:	0062c2b3          	xor	t0,t0,t1
   104f8:	005c0c33          	add	s8,s8,t0
   104fc:	011c5293          	srl	t0,s8,0x11
   10500:	00fc1313          	sll	t1,s8,0xf
   10504:	0062c2b3          	xor	t0,t0,t1
   10508:	005cccb3          	xor	s9,s9,t0
   1050c:	014c4c33          	xor	s8,s8,s4
   10510:	019c0c33          	add	s8,s8,s9
   10514:	01fc5293          	srl	t0,s8,0x1f
   10518:	001c1313          	sll	t1,s8,0x1
   1051c:	0062c2b3          	xor	t0,t0,t1
   10520:	005cccb3          	xor	s9,s9,t0
   10524:	014c4c33          	xor	s8,s8,s4
   10528:	018cd293          	srl	t0,s9,0x18
   1052c:	008c9313          	sll	t1,s9,0x8
   10530:	0062c2b3          	xor	t0,t0,t1
   10534:	005c0c33          	add	s8,s8,t0
   10538:	010c5293          	srl	t0,s8,0x10
   1053c:	010c1313          	sll	t1,s8,0x10
   10540:	0062c2b3          	xor	t0,t0,t1
   10544:	005cccb3          	xor	s9,s9,t0
   10548:	014c4c33          	xor	s8,s8,s4
   1054c:	01fdd293          	srl	t0,s11,0x1f
   10550:	001d9313          	sll	t1,s11,0x1
   10554:	0062c2b3          	xor	t0,t0,t1
   10558:	005d0d33          	add	s10,s10,t0
   1055c:	018d5293          	srl	t0,s10,0x18
   10560:	008d1313          	sll	t1,s10,0x8
   10564:	0062c2b3          	xor	t0,t0,t1
   10568:	005dcdb3          	xor	s11,s11,t0
   1056c:	015d4d33          	xor	s10,s10,s5
   10570:	011dd293          	srl	t0,s11,0x11
   10574:	00fd9313          	sll	t1,s11,0xf
   10578:	0062c2b3          	xor	t0,t0,t1
   1057c:	005d0d33          	add	s10,s10,t0
   10580:	011d5293          	srl	t0,s10,0x11
   10584:	00fd1313          	sll	t1,s10,0xf
   10588:	0062c2b3          	xor	t0,t0,t1
   1058c:	005dcdb3          	xor	s11,s11,t0
   10590:	015d4d33          	xor	s10,s10,s5
   10594:	01bd0d33          	add	s10,s10,s11
   10598:	01fd5293          	srl	t0,s10,0x1f
   1059c:	001d1313          	sll	t1,s10,0x1
   105a0:	0062c2b3          	xor	t0,t0,t1
   105a4:	005dcdb3          	xor	s11,s11,t0
   105a8:	015d4d33          	xor	s10,s10,s5
   105ac:	018dd293          	srl	t0,s11,0x18
   105b0:	008d9313          	sll	t1,s11,0x8
   105b4:	0062c2b3          	xor	t0,t0,t1
   105b8:	005d0d33          	add	s10,s10,t0
   105bc:	010d5293          	srl	t0,s10,0x10
   105c0:	010d1313          	sll	t1,s10,0x10
   105c4:	0062c2b3          	xor	t0,t0,t1
   105c8:	005dcdb3          	xor	s11,s11,t0
   105cc:	015d4d33          	xor	s10,s10,s5
   105d0:	00e642b3          	xor	t0,a2,a4
   105d4:	0102c2b3          	xor	t0,t0,a6
   105d8:	00f6c333          	xor	t1,a3,a5
   105dc:	01134333          	xor	t1,t1,a7
   105e0:	01029393          	sll	t2,t0,0x10
   105e4:	0072c2b3          	xor	t0,t0,t2
   105e8:	0102d393          	srl	t2,t0,0x10
   105ec:	01029293          	sll	t0,t0,0x10
   105f0:	0072c2b3          	xor	t0,t0,t2
   105f4:	01031393          	sll	t2,t1,0x10
   105f8:	00734333          	xor	t1,t1,t2
   105fc:	01035393          	srl	t2,t1,0x10
   10600:	01031313          	sll	t1,t1,0x10
   10604:	00734333          	xor	t1,t1,t2
   10608:	00060393          	mv	t2,a2
   1060c:	00068e13          	mv	t3,a3
   10610:	00674633          	xor	a2,a4,t1
   10614:	00cc4633          	xor	a2,s8,a2
   10618:	00070c13          	mv	s8,a4
   1061c:	0057c6b3          	xor	a3,a5,t0
   10620:	00dcc6b3          	xor	a3,s9,a3
   10624:	00078c93          	mv	s9,a5
   10628:	00684733          	xor	a4,a6,t1
   1062c:	00ed4733          	xor	a4,s10,a4
   10630:	00080d13          	mv	s10,a6
   10634:	0058c7b3          	xor	a5,a7,t0
   10638:	00fdc7b3          	xor	a5,s11,a5
   1063c:	00088d93          	mv	s11,a7
   10640:	0063c833          	xor	a6,t2,t1
   10644:	010f4833          	xor	a6,t5,a6
   10648:	00038f13          	mv	t5,t2
   1064c:	005e48b3          	xor	a7,t3,t0
   10650:	011fc8b3          	xor	a7,t6,a7
   10654:	000e0f93          	mv	t6,t3
   10658:	001b8b93          	add	s7,s7,1
   1065c:	c4bb96e3          	bne	s7,a1,102a8 <Loop>
   10660:	00c52023          	sw	a2,0(a0)
   10664:	00d52223          	sw	a3,4(a0)
   10668:	00e52423          	sw	a4,8(a0)
   1066c:	00f52623          	sw	a5,12(a0)
   10670:	01052823          	sw	a6,16(a0)
   10674:	01152a23          	sw	a7,20(a0)
   10678:	01e52c23          	sw	t5,24(a0)
   1067c:	01f52e23          	sw	t6,28(a0)
   10680:	03852023          	sw	s8,32(a0)
   10684:	03952223          	sw	s9,36(a0)
   10688:	03a52423          	sw	s10,40(a0)
   1068c:	03b52623          	sw	s11,44(a0)
   10690:	00412403          	lw	s0,4(sp)
   10694:	00812483          	lw	s1,8(sp)
   10698:	00c12903          	lw	s2,12(sp)
   1069c:	01012983          	lw	s3,16(sp)
   106a0:	01412a03          	lw	s4,20(sp)
   106a4:	01812a83          	lw	s5,24(sp)
   106a8:	01c12b83          	lw	s7,28(sp)
   106ac:	02012c03          	lw	s8,32(sp)
   106b0:	02412c83          	lw	s9,36(sp)
   106b4:	02812d03          	lw	s10,40(sp)
   106b8:	02c12d83          	lw	s11,44(sp)
   106bc:	03010113          	add	sp,sp,48
   106c0:	00008067          	ret

000106c4 <fp32_to_bf16>:
   106c4:	ff010113          	add	sp,sp,-16
   106c8:	00812423          	sw	s0,8(sp)
   106cc:	00112623          	sw	ra,12(sp)
   106d0:	00151793          	sll	a5,a0,0x1
   106d4:	00050413          	mv	s0,a0
   106d8:	04078063          	beqz	a5,10718 <fp32_to_bf16+0x54>
   106dc:	7f8007b7          	lui	a5,0x7f800
   106e0:	00a7f733          	and	a4,a5,a0
   106e4:	02f70a63          	beq	a4,a5,10718 <fp32_to_bf16+0x54>
   106e8:	f601a583          	lw	a1,-160(gp) # 1e770 <__SDATA_BEGIN__+0x68>
   106ec:	ff800537          	lui	a0,0xff800
   106f0:	00857533          	and	a0,a0,s0
   106f4:	055000ef          	jal	10f48 <__mulsf3>
   106f8:	00040593          	mv	a1,s0
   106fc:	4a0000ef          	jal	10b9c <__addsf3>
   10700:	ffff0437          	lui	s0,0xffff0
   10704:	00c12083          	lw	ra,12(sp)
   10708:	00a47533          	and	a0,s0,a0
   1070c:	00812403          	lw	s0,8(sp)
   10710:	01010113          	add	sp,sp,16
   10714:	00008067          	ret
   10718:	00c12083          	lw	ra,12(sp)
   1071c:	00040513          	mv	a0,s0
   10720:	00812403          	lw	s0,8(sp)
   10724:	01010113          	add	sp,sp,16
   10728:	00008067          	ret

0001072c <BOS>:
   1072c:	fe010113          	add	sp,sp,-32
   10730:	00812c23          	sw	s0,24(sp)
   10734:	00912a23          	sw	s1,20(sp)
   10738:	01212823          	sw	s2,16(sp)
   1073c:	00112e23          	sw	ra,28(sp)
   10740:	01312623          	sw	s3,12(sp)
   10744:	00151793          	sll	a5,a0,0x1
   10748:	00050493          	mv	s1,a0
   1074c:	00058413          	mv	s0,a1
   10750:	00050913          	mv	s2,a0
   10754:	02078c63          	beqz	a5,1078c <BOS+0x60>
   10758:	7f8007b7          	lui	a5,0x7f800
   1075c:	00a7f733          	and	a4,a5,a0
   10760:	800009b7          	lui	s3,0x80000
   10764:	0ef70463          	beq	a4,a5,1084c <BOS+0x120>
   10768:	f601a583          	lw	a1,-160(gp) # 1e770 <__SDATA_BEGIN__+0x68>
   1076c:	ff800537          	lui	a0,0xff800
   10770:	00957533          	and	a0,a0,s1
   10774:	7d4000ef          	jal	10f48 <__mulsf3>
   10778:	00048593          	mv	a1,s1
   1077c:	420000ef          	jal	10b9c <__addsf3>
   10780:	ffff0937          	lui	s2,0xffff0
   10784:	00a97933          	and	s2,s2,a0
   10788:	00a9f4b3          	and	s1,s3,a0
   1078c:	00141713          	sll	a4,s0,0x1
   10790:	00040793          	mv	a5,s0
   10794:	800009b7          	lui	s3,0x80000
   10798:	00040693          	mv	a3,s0
   1079c:	02070c63          	beqz	a4,107d4 <BOS+0xa8>
   107a0:	7f800737          	lui	a4,0x7f800
   107a4:	008776b3          	and	a3,a4,s0
   107a8:	0ae68663          	beq	a3,a4,10854 <BOS+0x128>
   107ac:	f601a583          	lw	a1,-160(gp) # 1e770 <__SDATA_BEGIN__+0x68>
   107b0:	ff800537          	lui	a0,0xff800
   107b4:	00857533          	and	a0,a0,s0
   107b8:	790000ef          	jal	10f48 <__mulsf3>
   107bc:	00040593          	mv	a1,s0
   107c0:	3dc000ef          	jal	10b9c <__addsf3>
   107c4:	ffff07b7          	lui	a5,0xffff0
   107c8:	00a7f7b3          	and	a5,a5,a0
   107cc:	00078693          	mv	a3,a5
   107d0:	00a9f433          	and	s0,s3,a0
   107d4:	00100513          	li	a0,1
   107d8:	0284ee63          	bltu	s1,s0,10814 <BOS+0xe8>
   107dc:	7f800737          	lui	a4,0x7f800
   107e0:	007f0637          	lui	a2,0x7f0
   107e4:	00e975b3          	and	a1,s2,a4
   107e8:	00c97833          	and	a6,s2,a2
   107ec:	00e6f733          	and	a4,a3,a4
   107f0:	00000513          	li	a0,0
   107f4:	00c6f6b3          	and	a3,a3,a2
   107f8:	02094c63          	bltz	s2,10830 <BOS+0x104>
   107fc:	0007cc63          	bltz	a5,10814 <BOS+0xe8>
   10800:	00100513          	li	a0,1
   10804:	00b76863          	bltu	a4,a1,10814 <BOS+0xe8>
   10808:	00000513          	li	a0,0
   1080c:	00e59463          	bne	a1,a4,10814 <BOS+0xe8>
   10810:	0106b533          	sltu	a0,a3,a6
   10814:	01c12083          	lw	ra,28(sp)
   10818:	01812403          	lw	s0,24(sp)
   1081c:	01412483          	lw	s1,20(sp)
   10820:	01012903          	lw	s2,16(sp)
   10824:	00c12983          	lw	s3,12(sp)
   10828:	02010113          	add	sp,sp,32
   1082c:	00008067          	ret
   10830:	fe07d2e3          	bgez	a5,10814 <BOS+0xe8>
   10834:	00100513          	li	a0,1
   10838:	fce5eee3          	bltu	a1,a4,10814 <BOS+0xe8>
   1083c:	00000513          	li	a0,0
   10840:	fce59ae3          	bne	a1,a4,10814 <BOS+0xe8>
   10844:	00d83533          	sltu	a0,a6,a3
   10848:	fcdff06f          	j	10814 <BOS+0xe8>
   1084c:	00a9f4b3          	and	s1,s3,a0
   10850:	f3dff06f          	j	1078c <BOS+0x60>
   10854:	00040693          	mv	a3,s0
   10858:	0089f433          	and	s0,s3,s0
   1085c:	f79ff06f          	j	107d4 <BOS+0xa8>

00010860 <ShellSort>:
   10860:	f601a783          	lw	a5,-160(gp) # 1e770 <__SDATA_BEGIN__+0x68>
   10864:	f9010113          	add	sp,sp,-112
   10868:	05412c23          	sw	s4,88(sp)
   1086c:	05912223          	sw	s9,68(sp)
   10870:	80000a37          	lui	s4,0x80000
   10874:	00200c93          	li	s9,2
   10878:	06812423          	sw	s0,104(sp)
   1087c:	05612823          	sw	s6,80(sp)
   10880:	05712623          	sw	s7,76(sp)
   10884:	05812423          	sw	s8,72(sp)
   10888:	03b12e23          	sw	s11,60(sp)
   1088c:	06112623          	sw	ra,108(sp)
   10890:	06912223          	sw	s1,100(sp)
   10894:	07212023          	sw	s2,96(sp)
   10898:	05312e23          	sw	s3,92(sp)
   1089c:	05512a23          	sw	s5,84(sp)
   108a0:	05a12023          	sw	s10,64(sp)
   108a4:	00f12223          	sw	a5,4(sp)
   108a8:	00300413          	li	s0,3
   108ac:	fffa0b93          	add	s7,s4,-1 # 7fffffff <__BSS_END__+0x7ffe127b>
   108b0:	7f800b37          	lui	s6,0x7f800
   108b4:	ffff0c37          	lui	s8,0xffff0
   108b8:	007f0db7          	lui	s11,0x7f0
   108bc:	03912423          	sw	s9,40(sp)
   108c0:	02a12623          	sw	a0,44(sp)
   108c4:	02c12783          	lw	a5,44(sp)
   108c8:	00241493          	sll	s1,s0,0x2
   108cc:	409009b3          	neg	s3,s1
   108d0:	00978733          	add	a4,a5,s1
   108d4:	00e12e23          	sw	a4,28(sp)
   108d8:	00f12a23          	sw	a5,20(sp)
   108dc:	00812823          	sw	s0,16(sp)
   108e0:	01c12903          	lw	s2,28(sp)
   108e4:	01412c83          	lw	s9,20(sp)
   108e8:	00092783          	lw	a5,0(s2) # ffff0000 <__BSS_END__+0xfffd127c>
   108ec:	000ca503          	lw	a0,0(s9)
   108f0:	00078593          	mv	a1,a5
   108f4:	00078a93          	mv	s5,a5
   108f8:	00f12623          	sw	a5,12(sp)
   108fc:	e31ff0ef          	jal	1072c <BOS>
   10900:	01012d03          	lw	s10,16(sp)
   10904:	268d4a63          	blt	s10,s0,10b78 <ShellSort+0x318>
   10908:	10050063          	beqz	a0,10a08 <ShellSort+0x1a8>
   1090c:	015bf7b3          	and	a5,s7,s5
   10910:	16078e63          	beqz	a5,10a8c <ShellSort+0x22c>
   10914:	015b77b3          	and	a5,s6,s5
   10918:	00f12423          	sw	a5,8(sp)
   1091c:	014af7b3          	and	a5,s5,s4
   10920:	02f12023          	sw	a5,32(sp)
   10924:	ff8007b7          	lui	a5,0xff800
   10928:	00faf7b3          	and	a5,s5,a5
   1092c:	00f12c23          	sw	a5,24(sp)
   10930:	000d0793          	mv	a5,s10
   10934:	03512223          	sw	s5,36(sp)
   10938:	00040d13          	mv	s10,s0
   1093c:	00048913          	mv	s2,s1
   10940:	000c8413          	mv	s0,s9
   10944:	00098c93          	mv	s9,s3
   10948:	00078993          	mv	s3,a5
   1094c:	00042583          	lw	a1,0(s0) # ffff0000 <__BSS_END__+0xfffd127c>
   10950:	01240733          	add	a4,s0,s2
   10954:	019407b3          	add	a5,s0,s9
   10958:	00b72023          	sw	a1,0(a4) # 7f800000 <__BSS_END__+0x7f7e127c>
   1095c:	0007aa83          	lw	s5,0(a5) # ff800000 <__BSS_END__+0xff7e127c>
   10960:	00812023          	sw	s0,0(sp)
   10964:	41a989b3          	sub	s3,s3,s10
   10968:	015bf7b3          	and	a5,s7,s5
   1096c:	000a8493          	mv	s1,s5
   10970:	02078663          	beqz	a5,1099c <ShellSort+0x13c>
   10974:	015b77b3          	and	a5,s6,s5
   10978:	11678663          	beq	a5,s6,10a84 <ShellSort+0x224>
   1097c:	00412583          	lw	a1,4(sp)
   10980:	ff8007b7          	lui	a5,0xff800
   10984:	0157f533          	and	a0,a5,s5
   10988:	5c0000ef          	jal	10f48 <__mulsf3>
   1098c:	000a8593          	mv	a1,s5
   10990:	20c000ef          	jal	10b9c <__addsf3>
   10994:	00ac74b3          	and	s1,s8,a0
   10998:	00aa7ab3          	and	s5,s4,a0
   1099c:	00812783          	lw	a5,8(sp)
   109a0:	0d678a63          	beq	a5,s6,10a74 <ShellSort+0x214>
   109a4:	00412583          	lw	a1,4(sp)
   109a8:	01812503          	lw	a0,24(sp)
   109ac:	59c000ef          	jal	10f48 <__mulsf3>
   109b0:	00c12583          	lw	a1,12(sp)
   109b4:	1e8000ef          	jal	10b9c <__addsf3>
   109b8:	00ac7733          	and	a4,s8,a0
   109bc:	00070793          	mv	a5,a4
   109c0:	00aa7533          	and	a0,s4,a0
   109c4:	08aae863          	bltu	s5,a0,10a54 <ShellSort+0x1f4>
   109c8:	0167f5b3          	and	a1,a5,s6
   109cc:	0164f533          	and	a0,s1,s6
   109d0:	01b4f8b3          	and	a7,s1,s11
   109d4:	01b7f7b3          	and	a5,a5,s11
   109d8:	0804c463          	bltz	s1,10a60 <ShellSort+0x200>
   109dc:	00074e63          	bltz	a4,109f8 <ShellSort+0x198>
   109e0:	06a5ea63          	bltu	a1,a0,10a54 <ShellSort+0x1f4>
   109e4:	00b51a63          	bne	a0,a1,109f8 <ShellSort+0x198>
   109e8:	0117b8b3          	sltu	a7,a5,a7
   109ec:	01a9c663          	blt	s3,s10,109f8 <ShellSort+0x198>
   109f0:	41240433          	sub	s0,s0,s2
   109f4:	f4089ce3          	bnez	a7,1094c <ShellSort+0xec>
   109f8:	00090493          	mv	s1,s2
   109fc:	00012903          	lw	s2,0(sp)
   10a00:	000c8993          	mv	s3,s9
   10a04:	000d0413          	mv	s0,s10
   10a08:	01c12703          	lw	a4,28(sp)
   10a0c:	00c12783          	lw	a5,12(sp)
   10a10:	00470713          	add	a4,a4,4
   10a14:	00f92023          	sw	a5,0(s2)
   10a18:	00e12e23          	sw	a4,28(sp)
   10a1c:	01012783          	lw	a5,16(sp)
   10a20:	01412703          	lw	a4,20(sp)
   10a24:	00178793          	add	a5,a5,1 # ff800001 <__BSS_END__+0xff7e127d>
   10a28:	00470713          	add	a4,a4,4
   10a2c:	00e12a23          	sw	a4,20(sp)
   10a30:	00f12823          	sw	a5,16(sp)
   10a34:	00600713          	li	a4,6
   10a38:	eae794e3          	bne	a5,a4,108e0 <ShellSort+0x80>
   10a3c:	02812783          	lw	a5,40(sp)
   10a40:	00100413          	li	s0,1
   10a44:	0e878c63          	beq	a5,s0,10b3c <ShellSort+0x2dc>
   10a48:	00100793          	li	a5,1
   10a4c:	02f12423          	sw	a5,40(sp)
   10a50:	e75ff06f          	j	108c4 <ShellSort+0x64>
   10a54:	fba9c2e3          	blt	s3,s10,109f8 <ShellSort+0x198>
   10a58:	41240433          	sub	s0,s0,s2
   10a5c:	ef1ff06f          	j	1094c <ShellSort+0xec>
   10a60:	f8075ce3          	bgez	a4,109f8 <ShellSort+0x198>
   10a64:	feb568e3          	bltu	a0,a1,10a54 <ShellSort+0x1f4>
   10a68:	f8b518e3          	bne	a0,a1,109f8 <ShellSort+0x198>
   10a6c:	00f8b8b3          	sltu	a7,a7,a5
   10a70:	f7dff06f          	j	109ec <ShellSort+0x18c>
   10a74:	02412703          	lw	a4,36(sp)
   10a78:	02012503          	lw	a0,32(sp)
   10a7c:	00070793          	mv	a5,a4
   10a80:	f45ff06f          	j	109c4 <ShellSort+0x164>
   10a84:	015a7ab3          	and	s5,s4,s5
   10a88:	f15ff06f          	j	1099c <ShellSort+0x13c>
   10a8c:	01012603          	lw	a2,16(sp)
   10a90:	000c8d13          	mv	s10,s9
   10a94:	00060913          	mv	s2,a2
   10a98:	000d2683          	lw	a3,0(s10)
   10a9c:	009d0733          	add	a4,s10,s1
   10aa0:	013d07b3          	add	a5,s10,s3
   10aa4:	00d72023          	sw	a3,0(a4)
   10aa8:	0007ac83          	lw	s9,0(a5)
   10aac:	40890933          	sub	s2,s2,s0
   10ab0:	000d0713          	mv	a4,s10
   10ab4:	019bf7b3          	and	a5,s7,s9
   10ab8:	06078863          	beqz	a5,10b28 <ShellSort+0x2c8>
   10abc:	019b77b3          	and	a5,s6,s9
   10ac0:	07678863          	beq	a5,s6,10b30 <ShellSort+0x2d0>
   10ac4:	00412583          	lw	a1,4(sp)
   10ac8:	ff8007b7          	lui	a5,0xff800
   10acc:	0197f533          	and	a0,a5,s9
   10ad0:	01a12023          	sw	s10,0(sp)
   10ad4:	474000ef          	jal	10f48 <__mulsf3>
   10ad8:	000c8593          	mv	a1,s9
   10adc:	0c0000ef          	jal	10b9c <__addsf3>
   10ae0:	00012703          	lw	a4,0(sp)
   10ae4:	00ac77b3          	and	a5,s8,a0
   10ae8:	00aa7cb3          	and	s9,s4,a0
   10aec:	035ce863          	bltu	s9,s5,10b1c <ShellSort+0x2bc>
   10af0:	0167f6b3          	and	a3,a5,s6
   10af4:	0207c063          	bltz	a5,10b14 <ShellSort+0x2b4>
   10af8:	000a9e63          	bnez	s5,10b14 <ShellSort+0x2b4>
   10afc:	02069063          	bnez	a3,10b1c <ShellSort+0x2bc>
   10b00:	00894a63          	blt	s2,s0,10b14 <ShellSort+0x2b4>
   10b04:	0107d693          	srl	a3,a5,0x10
   10b08:	07f6f693          	and	a3,a3,127
   10b0c:	409d0d33          	sub	s10,s10,s1
   10b10:	f80694e3          	bnez	a3,10a98 <ShellSort+0x238>
   10b14:	00070913          	mv	s2,a4
   10b18:	ef1ff06f          	j	10a08 <ShellSort+0x1a8>
   10b1c:	fe894ce3          	blt	s2,s0,10b14 <ShellSort+0x2b4>
   10b20:	409d0d33          	sub	s10,s10,s1
   10b24:	f75ff06f          	j	10a98 <ShellSort+0x238>
   10b28:	000c8793          	mv	a5,s9
   10b2c:	fc1ff06f          	j	10aec <ShellSort+0x28c>
   10b30:	000c8793          	mv	a5,s9
   10b34:	019a7cb3          	and	s9,s4,s9
   10b38:	fb5ff06f          	j	10aec <ShellSort+0x28c>
   10b3c:	06c12083          	lw	ra,108(sp)
   10b40:	06812403          	lw	s0,104(sp)
   10b44:	06412483          	lw	s1,100(sp)
   10b48:	06012903          	lw	s2,96(sp)
   10b4c:	05c12983          	lw	s3,92(sp)
   10b50:	05812a03          	lw	s4,88(sp)
   10b54:	05412a83          	lw	s5,84(sp)
   10b58:	05012b03          	lw	s6,80(sp)
   10b5c:	04c12b83          	lw	s7,76(sp)
   10b60:	04812c03          	lw	s8,72(sp)
   10b64:	04412c83          	lw	s9,68(sp)
   10b68:	04012d03          	lw	s10,64(sp)
   10b6c:	03c12d83          	lw	s11,60(sp)
   10b70:	07010113          	add	sp,sp,112
   10b74:	00008067          	ret
   10b78:	001d0793          	add	a5,s10,1
   10b7c:	00f12823          	sw	a5,16(sp)
   10b80:	01c12783          	lw	a5,28(sp)
   10b84:	00478793          	add	a5,a5,4 # ff800004 <__BSS_END__+0xff7e1280>
   10b88:	00f12e23          	sw	a5,28(sp)
   10b8c:	01412783          	lw	a5,20(sp)
   10b90:	00478793          	add	a5,a5,4
   10b94:	00f12a23          	sw	a5,20(sp)
   10b98:	d49ff06f          	j	108e0 <ShellSort+0x80>

00010b9c <__addsf3>:
   10b9c:	008007b7          	lui	a5,0x800
   10ba0:	1141                	add	sp,sp,-16
   10ba2:	01755693          	srl	a3,a0,0x17
   10ba6:	0175d713          	srl	a4,a1,0x17
   10baa:	17fd                	add	a5,a5,-1 # 7fffff <__BSS_END__+0x7e127b>
   10bac:	00a7f633          	and	a2,a5,a0
   10bb0:	0ff77813          	zext.b	a6,a4
   10bb4:	c422                	sw	s0,8(sp)
   10bb6:	c04a                	sw	s2,0(sp)
   10bb8:	01f55413          	srl	s0,a0,0x1f
   10bbc:	0ff6f913          	zext.b	s2,a3
   10bc0:	00b7f533          	and	a0,a5,a1
   10bc4:	c606                	sw	ra,12(sp)
   10bc6:	81fd                	srl	a1,a1,0x1f
   10bc8:	86b2                	mv	a3,a2
   10bca:	88a2                	mv	a7,s0
   10bcc:	00361713          	sll	a4,a2,0x3
   10bd0:	00351e13          	sll	t3,a0,0x3
   10bd4:	41090333          	sub	t1,s2,a6
   10bd8:	04b40463          	beq	s0,a1,10c20 <__addsf3+0x84>
   10bdc:	02605063          	blez	t1,10bfc <__addsf3+0x60>
   10be0:	06081163          	bnez	a6,10c42 <__addsf3+0xa6>
   10be4:	180e0263          	beqz	t3,10d68 <__addsf3+0x1cc>
   10be8:	fff30793          	add	a5,t1,-1 # 101d7 <frame_dummy+0x11>
   10bec:	2e078d63          	beqz	a5,10ee6 <__addsf3+0x34a>
   10bf0:	0ff00693          	li	a3,255
   10bf4:	18d30163          	beq	t1,a3,10d76 <__addsf3+0x1da>
   10bf8:	833e                	mv	t1,a5
   10bfa:	a8a1                	j	10c52 <__addsf3+0xb6>
   10bfc:	10030063          	beqz	t1,10cfc <__addsf3+0x160>
   10c00:	41280333          	sub	t1,a6,s2
   10c04:	1e091a63          	bnez	s2,10df8 <__addsf3+0x25c>
   10c08:	14070e63          	beqz	a4,10d64 <__addsf3+0x1c8>
   10c0c:	fff30793          	add	a5,t1,-1
   10c10:	2e078f63          	beqz	a5,10f0e <__addsf3+0x372>
   10c14:	0ff00693          	li	a3,255
   10c18:	2cd30463          	beq	t1,a3,10ee0 <__addsf3+0x344>
   10c1c:	833e                	mv	t1,a5
   10c1e:	a2e5                	j	10e06 <__addsf3+0x26a>
   10c20:	16605963          	blez	t1,10d92 <__addsf3+0x1f6>
   10c24:	10080c63          	beqz	a6,10d3c <__addsf3+0x1a0>
   10c28:	0ff00793          	li	a5,255
   10c2c:	14f90563          	beq	s2,a5,10d76 <__addsf3+0x1da>
   10c30:	040007b7          	lui	a5,0x4000
   10c34:	00fe6e33          	or	t3,t3,a5
   10c38:	47ed                	li	a5,27
   10c3a:	2067d863          	bge	a5,t1,10e4a <__addsf3+0x2ae>
   10c3e:	0705                	add	a4,a4,1
   10c40:	a885                	j	10cb0 <__addsf3+0x114>
   10c42:	0ff00793          	li	a5,255
   10c46:	12f90863          	beq	s2,a5,10d76 <__addsf3+0x1da>
   10c4a:	040007b7          	lui	a5,0x4000
   10c4e:	00fe6e33          	or	t3,t3,a5
   10c52:	46ed                	li	a3,27
   10c54:	4785                	li	a5,1
   10c56:	0066cd63          	blt	a3,t1,10c70 <__addsf3+0xd4>
   10c5a:	02000793          	li	a5,32
   10c5e:	406787b3          	sub	a5,a5,t1
   10c62:	00fe17b3          	sll	a5,t3,a5
   10c66:	006e56b3          	srl	a3,t3,t1
   10c6a:	00f037b3          	snez	a5,a5
   10c6e:	8fd5                	or	a5,a5,a3
   10c70:	8f1d                	sub	a4,a4,a5
   10c72:	00571793          	sll	a5,a4,0x5
   10c76:	1007da63          	bgez	a5,10d8a <__addsf3+0x1ee>
   10c7a:	c226                	sw	s1,4(sp)
   10c7c:	040004b7          	lui	s1,0x4000
   10c80:	14fd                	add	s1,s1,-1 # 3ffffff <__BSS_END__+0x3fe127b>
   10c82:	8cf9                	and	s1,s1,a4
   10c84:	8526                	mv	a0,s1
   10c86:	235d                	jal	1122c <__clzsi2>
   10c88:	156d                	add	a0,a0,-5 # ff7ffffb <__BSS_END__+0xff7e1277>
   10c8a:	00a494b3          	sll	s1,s1,a0
   10c8e:	13254363          	blt	a0,s2,10db4 <__addsf3+0x218>
   10c92:	41250533          	sub	a0,a0,s2
   10c96:	0505                	add	a0,a0,1
   10c98:	02000713          	li	a4,32
   10c9c:	8f09                	sub	a4,a4,a0
   10c9e:	00e49733          	sll	a4,s1,a4
   10ca2:	00e03733          	snez	a4,a4
   10ca6:	00a4d4b3          	srl	s1,s1,a0
   10caa:	8f45                	or	a4,a4,s1
   10cac:	4492                	lw	s1,4(sp)
   10cae:	4901                	li	s2,0
   10cb0:	00777793          	and	a5,a4,7
   10cb4:	c799                	beqz	a5,10cc2 <__addsf3+0x126>
   10cb6:	00f77793          	and	a5,a4,15
   10cba:	4611                	li	a2,4
   10cbc:	00c78363          	beq	a5,a2,10cc2 <__addsf3+0x126>
   10cc0:	0711                	add	a4,a4,4
   10cc2:	00571793          	sll	a5,a4,0x5
   10cc6:	0a07d263          	bgez	a5,10d6a <__addsf3+0x1ce>
   10cca:	00190793          	add	a5,s2,1
   10cce:	0ff00693          	li	a3,255
   10cd2:	88a2                	mv	a7,s0
   10cd4:	0ad78763          	beq	a5,a3,10d82 <__addsf3+0x1e6>
   10cd8:	fc0006b7          	lui	a3,0xfc000
   10cdc:	16fd                	add	a3,a3,-1 # fbffffff <__BSS_END__+0xfbfe127b>
   10cde:	8ef9                	and	a3,a3,a4
   10ce0:	0ff7f513          	zext.b	a0,a5
   10ce4:	069a                	sll	a3,a3,0x6
   10ce6:	82a5                	srl	a3,a3,0x9
   10ce8:	40b2                	lw	ra,12(sp)
   10cea:	4422                	lw	s0,8(sp)
   10cec:	055e                	sll	a0,a0,0x17
   10cee:	8d55                	or	a0,a0,a3
   10cf0:	01f89793          	sll	a5,a7,0x1f
   10cf4:	4902                	lw	s2,0(sp)
   10cf6:	8d5d                	or	a0,a0,a5
   10cf8:	0141                	add	sp,sp,16
   10cfa:	8082                	ret
   10cfc:	00190613          	add	a2,s2,1
   10d00:	0fe67613          	and	a2,a2,254
   10d04:	12061563          	bnez	a2,10e2e <__addsf3+0x292>
   10d08:	04091863          	bnez	s2,10d58 <__addsf3+0x1bc>
   10d0c:	20070663          	beqz	a4,10f18 <__addsf3+0x37c>
   10d10:	4501                	li	a0,0
   10d12:	fc0e0be3          	beqz	t3,10ce8 <__addsf3+0x14c>
   10d16:	41c706b3          	sub	a3,a4,t3
   10d1a:	00569613          	sll	a2,a3,0x5
   10d1e:	20065663          	bgez	a2,10f2a <__addsf3+0x38e>
   10d22:	40ee06b3          	sub	a3,t3,a4
   10d26:	00569713          	sll	a4,a3,0x5
   10d2a:	20075863          	bgez	a4,10f3a <__addsf3+0x39e>
   10d2e:	fc0007b7          	lui	a5,0xfc000
   10d32:	17fd                	add	a5,a5,-1 # fbffffff <__BSS_END__+0xfbfe127b>
   10d34:	8efd                	and	a3,a3,a5
   10d36:	88ae                	mv	a7,a1
   10d38:	4505                	li	a0,1
   10d3a:	b76d                	j	10ce4 <__addsf3+0x148>
   10d3c:	020e0663          	beqz	t3,10d68 <__addsf3+0x1cc>
   10d40:	fff30793          	add	a5,t1,-1
   10d44:	16078e63          	beqz	a5,10ec0 <__addsf3+0x324>
   10d48:	0ff00693          	li	a3,255
   10d4c:	02d30563          	beq	t1,a3,10d76 <__addsf3+0x1da>
   10d50:	833e                	mv	t1,a5
   10d52:	b5dd                	j	10c38 <__addsf3+0x9c>
   10d54:	18070763          	beqz	a4,10ee2 <__addsf3+0x346>
   10d58:	4881                	li	a7,0
   10d5a:	0ff00513          	li	a0,255
   10d5e:	004006b7          	lui	a3,0x400
   10d62:	b759                	j	10ce8 <__addsf3+0x14c>
   10d64:	842e                	mv	s0,a1
   10d66:	8772                	mv	a4,t3
   10d68:	891a                	mv	s2,t1
   10d6a:	0ff00793          	li	a5,255
   10d6e:	00375613          	srl	a2,a4,0x3
   10d72:	16f91063          	bne	s2,a5,10ed2 <__addsf3+0x336>
   10d76:	f26d                	bnez	a2,10d58 <__addsf3+0x1bc>
   10d78:	88a2                	mv	a7,s0
   10d7a:	0ff00513          	li	a0,255
   10d7e:	4681                	li	a3,0
   10d80:	b7a5                	j	10ce8 <__addsf3+0x14c>
   10d82:	0ff00513          	li	a0,255
   10d86:	4681                	li	a3,0
   10d88:	b785                	j	10ce8 <__addsf3+0x14c>
   10d8a:	00777793          	and	a5,a4,7
   10d8e:	f785                	bnez	a5,10cb6 <__addsf3+0x11a>
   10d90:	bfe9                	j	10d6a <__addsf3+0x1ce>
   10d92:	02030963          	beqz	t1,10dc4 <__addsf3+0x228>
   10d96:	41280333          	sub	t1,a6,s2
   10d9a:	0e091863          	bnez	s2,10e8a <__addsf3+0x2ee>
   10d9e:	d761                	beqz	a4,10d66 <__addsf3+0x1ca>
   10da0:	fff30793          	add	a5,t1,-1
   10da4:	10078e63          	beqz	a5,10ec0 <__addsf3+0x324>
   10da8:	0ff00693          	li	a3,255
   10dac:	12d30b63          	beq	t1,a3,10ee2 <__addsf3+0x346>
   10db0:	833e                	mv	t1,a5
   10db2:	a0dd                	j	10e98 <__addsf3+0x2fc>
   10db4:	fc000737          	lui	a4,0xfc000
   10db8:	177d                	add	a4,a4,-1 # fbffffff <__BSS_END__+0xfbfe127b>
   10dba:	8f65                	and	a4,a4,s1
   10dbc:	40a90933          	sub	s2,s2,a0
   10dc0:	4492                	lw	s1,4(sp)
   10dc2:	b5fd                	j	10cb0 <__addsf3+0x114>
   10dc4:	00190613          	add	a2,s2,1
   10dc8:	0fe67593          	and	a1,a2,254
   10dcc:	ede9                	bnez	a1,10ea6 <__addsf3+0x30a>
   10dce:	f80913e3          	bnez	s2,10d54 <__addsf3+0x1b8>
   10dd2:	14070963          	beqz	a4,10f24 <__addsf3+0x388>
   10dd6:	4501                	li	a0,0
   10dd8:	f00e08e3          	beqz	t3,10ce8 <__addsf3+0x14c>
   10ddc:	9e3a                	add	t3,t3,a4
   10dde:	005e1713          	sll	a4,t3,0x5
   10de2:	003e5693          	srl	a3,t3,0x3
   10de6:	14075463          	bgez	a4,10f2e <__addsf3+0x392>
   10dea:	1f800737          	lui	a4,0x1f800
   10dee:	177d                	add	a4,a4,-1 # 1f7fffff <__BSS_END__+0x1f7e127b>
   10df0:	8ef9                	and	a3,a3,a4
   10df2:	8efd                	and	a3,a3,a5
   10df4:	4505                	li	a0,1
   10df6:	bdcd                	j	10ce8 <__addsf3+0x14c>
   10df8:	0ff00793          	li	a5,255
   10dfc:	0ef80263          	beq	a6,a5,10ee0 <__addsf3+0x344>
   10e00:	040007b7          	lui	a5,0x4000
   10e04:	8f5d                	or	a4,a4,a5
   10e06:	46ed                	li	a3,27
   10e08:	4785                	li	a5,1
   10e0a:	0066cd63          	blt	a3,t1,10e24 <__addsf3+0x288>
   10e0e:	02000793          	li	a5,32
   10e12:	406787b3          	sub	a5,a5,t1
   10e16:	00f717b3          	sll	a5,a4,a5
   10e1a:	00f037b3          	snez	a5,a5
   10e1e:	00675733          	srl	a4,a4,t1
   10e22:	8fd9                	or	a5,a5,a4
   10e24:	40fe0733          	sub	a4,t3,a5
   10e28:	8942                	mv	s2,a6
   10e2a:	842e                	mv	s0,a1
   10e2c:	b599                	j	10c72 <__addsf3+0xd6>
   10e2e:	c226                	sw	s1,4(sp)
   10e30:	41c704b3          	sub	s1,a4,t3
   10e34:	00549793          	sll	a5,s1,0x5
   10e38:	0807c063          	bltz	a5,10eb8 <__addsf3+0x31c>
   10e3c:	e40494e3          	bnez	s1,10c84 <__addsf3+0xe8>
   10e40:	4492                	lw	s1,4(sp)
   10e42:	4881                	li	a7,0
   10e44:	4501                	li	a0,0
   10e46:	4681                	li	a3,0
   10e48:	b545                	j	10ce8 <__addsf3+0x14c>
   10e4a:	02000793          	li	a5,32
   10e4e:	406787b3          	sub	a5,a5,t1
   10e52:	00fe17b3          	sll	a5,t3,a5
   10e56:	006e5333          	srl	t1,t3,t1
   10e5a:	00f037b3          	snez	a5,a5
   10e5e:	00f36333          	or	t1,t1,a5
   10e62:	971a                	add	a4,a4,t1
   10e64:	00571793          	sll	a5,a4,0x5
   10e68:	f207d1e3          	bgez	a5,10d8a <__addsf3+0x1ee>
   10e6c:	0905                	add	s2,s2,1
   10e6e:	0ff00513          	li	a0,255
   10e72:	4681                	li	a3,0
   10e74:	e6a90ae3          	beq	s2,a0,10ce8 <__addsf3+0x14c>
   10e78:	7e0006b7          	lui	a3,0x7e000
   10e7c:	00175793          	srl	a5,a4,0x1
   10e80:	16fd                	add	a3,a3,-1 # 7dffffff <__BSS_END__+0x7dfe127b>
   10e82:	8b05                	and	a4,a4,1
   10e84:	8ff5                	and	a5,a5,a3
   10e86:	8f5d                	or	a4,a4,a5
   10e88:	b525                	j	10cb0 <__addsf3+0x114>
   10e8a:	0ff00793          	li	a5,255
   10e8e:	04f80a63          	beq	a6,a5,10ee2 <__addsf3+0x346>
   10e92:	040007b7          	lui	a5,0x4000
   10e96:	8f5d                	or	a4,a4,a5
   10e98:	47ed                	li	a5,27
   10e9a:	0467da63          	bge	a5,t1,10eee <__addsf3+0x352>
   10e9e:	001e0713          	add	a4,t3,1
   10ea2:	8942                	mv	s2,a6
   10ea4:	b531                	j	10cb0 <__addsf3+0x114>
   10ea6:	0ff00793          	li	a5,255
   10eaa:	ecf60ce3          	beq	a2,a5,10d82 <__addsf3+0x1e6>
   10eae:	9e3a                	add	t3,t3,a4
   10eb0:	001e5713          	srl	a4,t3,0x1
   10eb4:	8932                	mv	s2,a2
   10eb6:	bbed                	j	10cb0 <__addsf3+0x114>
   10eb8:	40ee04b3          	sub	s1,t3,a4
   10ebc:	842e                	mv	s0,a1
   10ebe:	b3d9                	j	10c84 <__addsf3+0xe8>
   10ec0:	9772                	add	a4,a4,t3
   10ec2:	00571793          	sll	a5,a4,0x5
   10ec6:	4909                	li	s2,2
   10ec8:	fa07c8e3          	bltz	a5,10e78 <__addsf3+0x2dc>
   10ecc:	00375613          	srl	a2,a4,0x3
   10ed0:	4905                	li	s2,1
   10ed2:	0626                	sll	a2,a2,0x9
   10ed4:	00965693          	srl	a3,a2,0x9
   10ed8:	0ff97513          	zext.b	a0,s2
   10edc:	88a2                	mv	a7,s0
   10ede:	b529                	j	10ce8 <__addsf3+0x14c>
   10ee0:	842e                	mv	s0,a1
   10ee2:	862a                	mv	a2,a0
   10ee4:	bd49                	j	10d76 <__addsf3+0x1da>
   10ee6:	41c70733          	sub	a4,a4,t3
   10eea:	4905                	li	s2,1
   10eec:	b359                	j	10c72 <__addsf3+0xd6>
   10eee:	02000793          	li	a5,32
   10ef2:	406787b3          	sub	a5,a5,t1
   10ef6:	00f717b3          	sll	a5,a4,a5
   10efa:	00675333          	srl	t1,a4,t1
   10efe:	00f037b3          	snez	a5,a5
   10f02:	00f36333          	or	t1,t1,a5
   10f06:	01c30733          	add	a4,t1,t3
   10f0a:	8942                	mv	s2,a6
   10f0c:	bfa1                	j	10e64 <__addsf3+0x2c8>
   10f0e:	40ee0733          	sub	a4,t3,a4
   10f12:	842e                	mv	s0,a1
   10f14:	4905                	li	s2,1
   10f16:	bbb1                	j	10c72 <__addsf3+0xd6>
   10f18:	000e0d63          	beqz	t3,10f32 <__addsf3+0x396>
   10f1c:	86aa                	mv	a3,a0
   10f1e:	88ae                	mv	a7,a1
   10f20:	4501                	li	a0,0
   10f22:	b3d9                	j	10ce8 <__addsf3+0x14c>
   10f24:	86aa                	mv	a3,a0
   10f26:	4501                	li	a0,0
   10f28:	b3c1                	j	10ce8 <__addsf3+0x14c>
   10f2a:	ce81                	beqz	a3,10f42 <__addsf3+0x3a6>
   10f2c:	828d                	srl	a3,a3,0x3
   10f2e:	8efd                	and	a3,a3,a5
   10f30:	bb65                	j	10ce8 <__addsf3+0x14c>
   10f32:	4881                	li	a7,0
   10f34:	4501                	li	a0,0
   10f36:	4681                	li	a3,0
   10f38:	bb45                	j	10ce8 <__addsf3+0x14c>
   10f3a:	828d                	srl	a3,a3,0x3
   10f3c:	8efd                	and	a3,a3,a5
   10f3e:	88ae                	mv	a7,a1
   10f40:	b365                	j	10ce8 <__addsf3+0x14c>
   10f42:	4881                	li	a7,0
   10f44:	4681                	li	a3,0
   10f46:	b34d                	j	10ce8 <__addsf3+0x14c>

00010f48 <__mulsf3>:
   10f48:	7179                	add	sp,sp,-48
   10f4a:	01755793          	srl	a5,a0,0x17
   10f4e:	d04a                	sw	s2,32(sp)
   10f50:	cc52                	sw	s4,24(sp)
   10f52:	d606                	sw	ra,44(sp)
   10f54:	00951a13          	sll	s4,a0,0x9
   10f58:	d422                	sw	s0,40(sp)
   10f5a:	d226                	sw	s1,36(sp)
   10f5c:	ce4e                	sw	s3,28(sp)
   10f5e:	ca56                	sw	s5,20(sp)
   10f60:	c85a                	sw	s6,16(sp)
   10f62:	0ff7f793          	zext.b	a5,a5
   10f66:	009a5a13          	srl	s4,s4,0x9
   10f6a:	01f55913          	srl	s2,a0,0x1f
   10f6e:	1c078763          	beqz	a5,1113c <__mulsf3+0x1f4>
   10f72:	0ff00713          	li	a4,255
   10f76:	12e78963          	beq	a5,a4,110a8 <__mulsf3+0x160>
   10f7a:	0a0e                	sll	s4,s4,0x3
   10f7c:	04000737          	lui	a4,0x4000
   10f80:	00ea6a33          	or	s4,s4,a4
   10f84:	f8178993          	add	s3,a5,-127 # 3ffff81 <__BSS_END__+0x3fe11fd>
   10f88:	4481                	li	s1,0
   10f8a:	4b01                	li	s6,0
   10f8c:	0175d793          	srl	a5,a1,0x17
   10f90:	00959a93          	sll	s5,a1,0x9
   10f94:	0ff7f793          	zext.b	a5,a5
   10f98:	009ada93          	srl	s5,s5,0x9
   10f9c:	01f5d413          	srl	s0,a1,0x1f
   10fa0:	12078663          	beqz	a5,110cc <__mulsf3+0x184>
   10fa4:	0ff00713          	li	a4,255
   10fa8:	16e78963          	beq	a5,a4,1111a <__mulsf3+0x1d2>
   10fac:	0a8e                	sll	s5,s5,0x3
   10fae:	f8178793          	add	a5,a5,-127
   10fb2:	04000737          	lui	a4,0x4000
   10fb6:	00eaeab3          	or	s5,s5,a4
   10fba:	99be                	add	s3,s3,a5
   10fbc:	4581                	li	a1,0
   10fbe:	47a9                	li	a5,10
   10fc0:	00198613          	add	a2,s3,1 # 80000001 <__BSS_END__+0x7ffe127d>
   10fc4:	1097ce63          	blt	a5,s1,110e0 <__mulsf3+0x198>
   10fc8:	00894533          	xor	a0,s2,s0
   10fcc:	4789                	li	a5,2
   10fce:	86aa                	mv	a3,a0
   10fd0:	1897d163          	bge	a5,s1,11152 <__mulsf3+0x20a>
   10fd4:	4705                	li	a4,1
   10fd6:	00971733          	sll	a4,a4,s1
   10fda:	53077793          	and	a5,a4,1328
   10fde:	10079263          	bnez	a5,110e2 <__mulsf3+0x19a>
   10fe2:	24077793          	and	a5,a4,576
   10fe6:	1c079863          	bnez	a5,111b6 <__mulsf3+0x26e>
   10fea:	08877713          	and	a4,a4,136
   10fee:	1c071063          	bnez	a4,111ae <__mulsf3+0x266>
   10ff2:	68c1                	lui	a7,0x10
   10ff4:	fff88793          	add	a5,a7,-1 # ffff <exit-0x95>
   10ff8:	010a5593          	srl	a1,s4,0x10
   10ffc:	010ad813          	srl	a6,s5,0x10
   11000:	00fa7a33          	and	s4,s4,a5
   11004:	00faf7b3          	and	a5,s5,a5
   11008:	03478533          	mul	a0,a5,s4
   1100c:	02f587b3          	mul	a5,a1,a5
   11010:	01055713          	srl	a4,a0,0x10
   11014:	03480a33          	mul	s4,a6,s4
   11018:	9a3e                	add	s4,s4,a5
   1101a:	9752                	add	a4,a4,s4
   1101c:	030585b3          	mul	a1,a1,a6
   11020:	00f77363          	bgeu	a4,a5,11026 <__mulsf3+0xde>
   11024:	95c6                	add	a1,a1,a7
   11026:	6841                	lui	a6,0x10
   11028:	187d                	add	a6,a6,-1 # ffff <exit-0x95>
   1102a:	010777b3          	and	a5,a4,a6
   1102e:	07c2                	sll	a5,a5,0x10
   11030:	01057533          	and	a0,a0,a6
   11034:	97aa                	add	a5,a5,a0
   11036:	8341                	srl	a4,a4,0x10
   11038:	00679a13          	sll	s4,a5,0x6
   1103c:	972e                	add	a4,a4,a1
   1103e:	83e9                	srl	a5,a5,0x1a
   11040:	071a                	sll	a4,a4,0x6
   11042:	01403a33          	snez	s4,s4
   11046:	00fa6a33          	or	s4,s4,a5
   1104a:	00471793          	sll	a5,a4,0x4
   1104e:	01476a33          	or	s4,a4,s4
   11052:	0007d963          	bgez	a5,11064 <__mulsf3+0x11c>
   11056:	001a5793          	srl	a5,s4,0x1
   1105a:	001a7a13          	and	s4,s4,1
   1105e:	0147ea33          	or	s4,a5,s4
   11062:	89b2                	mv	s3,a2
   11064:	07f98793          	add	a5,s3,127
   11068:	14f05d63          	blez	a5,111c2 <__mulsf3+0x27a>
   1106c:	007a7713          	and	a4,s4,7
   11070:	c719                	beqz	a4,1107e <__mulsf3+0x136>
   11072:	00fa7713          	and	a4,s4,15
   11076:	4611                	li	a2,4
   11078:	00c70363          	beq	a4,a2,1107e <__mulsf3+0x136>
   1107c:	0a11                	add	s4,s4,4
   1107e:	004a1713          	sll	a4,s4,0x4
   11082:	00075963          	bgez	a4,11094 <__mulsf3+0x14c>
   11086:	f80007b7          	lui	a5,0xf8000
   1108a:	17fd                	add	a5,a5,-1 # f7ffffff <__BSS_END__+0xf7fe127b>
   1108c:	00fa7a33          	and	s4,s4,a5
   11090:	08098793          	add	a5,s3,128
   11094:	0fe00713          	li	a4,254
   11098:	18f74163          	blt	a4,a5,1121a <__mulsf3+0x2d2>
   1109c:	006a1713          	sll	a4,s4,0x6
   110a0:	8325                	srl	a4,a4,0x9
   110a2:	0ff7f793          	zext.b	a5,a5
   110a6:	a891                	j	110fa <__mulsf3+0x1b2>
   110a8:	0e0a1e63          	bnez	s4,111a4 <__mulsf3+0x25c>
   110ac:	0175d793          	srl	a5,a1,0x17
   110b0:	00959a93          	sll	s5,a1,0x9
   110b4:	0ff7f793          	zext.b	a5,a5
   110b8:	44a1                	li	s1,8
   110ba:	0ff00993          	li	s3,255
   110be:	4b09                	li	s6,2
   110c0:	009ada93          	srl	s5,s5,0x9
   110c4:	01f5d413          	srl	s0,a1,0x1f
   110c8:	ec079ee3          	bnez	a5,10fa4 <__mulsf3+0x5c>
   110cc:	0a0a9b63          	bnez	s5,11182 <__mulsf3+0x23a>
   110d0:	0014e493          	or	s1,s1,1
   110d4:	47a9                	li	a5,10
   110d6:	4585                	li	a1,1
   110d8:	00198613          	add	a2,s3,1
   110dc:	ee97d6e3          	bge	a5,s1,10fc8 <__mulsf3+0x80>
   110e0:	854a                	mv	a0,s2
   110e2:	4789                	li	a5,2
   110e4:	06fb0263          	beq	s6,a5,11148 <__mulsf3+0x200>
   110e8:	478d                	li	a5,3
   110ea:	0cfb0663          	beq	s6,a5,111b6 <__mulsf3+0x26e>
   110ee:	4785                	li	a5,1
   110f0:	86aa                	mv	a3,a0
   110f2:	12fb1263          	bne	s6,a5,11216 <__mulsf3+0x2ce>
   110f6:	4781                	li	a5,0
   110f8:	4701                	li	a4,0
   110fa:	50b2                	lw	ra,44(sp)
   110fc:	5422                	lw	s0,40(sp)
   110fe:	01779513          	sll	a0,a5,0x17
   11102:	8d59                	or	a0,a0,a4
   11104:	01f69793          	sll	a5,a3,0x1f
   11108:	5492                	lw	s1,36(sp)
   1110a:	5902                	lw	s2,32(sp)
   1110c:	49f2                	lw	s3,28(sp)
   1110e:	4a62                	lw	s4,24(sp)
   11110:	4ad2                	lw	s5,20(sp)
   11112:	4b42                	lw	s6,16(sp)
   11114:	8d5d                	or	a0,a0,a5
   11116:	6145                	add	sp,sp,48
   11118:	8082                	ret
   1111a:	0ff98713          	add	a4,s3,255
   1111e:	060a8e63          	beqz	s5,1119a <__mulsf3+0x252>
   11122:	0034e493          	or	s1,s1,3
   11126:	46a9                	li	a3,10
   11128:	10098613          	add	a2,s3,256
   1112c:	0c96cc63          	blt	a3,s1,11204 <__mulsf3+0x2bc>
   11130:	008946b3          	xor	a3,s2,s0
   11134:	8536                	mv	a0,a3
   11136:	89ba                	mv	s3,a4
   11138:	458d                	li	a1,3
   1113a:	bd69                	j	10fd4 <__mulsf3+0x8c>
   1113c:	020a1463          	bnez	s4,11164 <__mulsf3+0x21c>
   11140:	4491                	li	s1,4
   11142:	4981                	li	s3,0
   11144:	4b05                	li	s6,1
   11146:	b599                	j	10f8c <__mulsf3+0x44>
   11148:	86aa                	mv	a3,a0
   1114a:	0ff00793          	li	a5,255
   1114e:	4701                	li	a4,0
   11150:	b76d                	j	110fa <__mulsf3+0x1b2>
   11152:	14fd                	add	s1,s1,-1
   11154:	4705                	li	a4,1
   11156:	e8976ee3          	bltu	a4,s1,10ff2 <__mulsf3+0xaa>
   1115a:	fef587e3          	beq	a1,a5,11148 <__mulsf3+0x200>
   1115e:	8a56                	mv	s4,s5
   11160:	8b2e                	mv	s6,a1
   11162:	b771                	j	110ee <__mulsf3+0x1a6>
   11164:	8552                	mv	a0,s4
   11166:	c62e                	sw	a1,12(sp)
   11168:	20d1                	jal	1122c <__clzsi2>
   1116a:	ffb50793          	add	a5,a0,-5
   1116e:	00fa1a33          	sll	s4,s4,a5
   11172:	f8a00793          	li	a5,-118
   11176:	45b2                	lw	a1,12(sp)
   11178:	40a789b3          	sub	s3,a5,a0
   1117c:	4481                	li	s1,0
   1117e:	4b01                	li	s6,0
   11180:	b531                	j	10f8c <__mulsf3+0x44>
   11182:	8556                	mv	a0,s5
   11184:	2065                	jal	1122c <__clzsi2>
   11186:	ffb50793          	add	a5,a0,-5
   1118a:	40a98533          	sub	a0,s3,a0
   1118e:	00fa9ab3          	sll	s5,s5,a5
   11192:	f8a50993          	add	s3,a0,-118
   11196:	4581                	li	a1,0
   11198:	b51d                	j	10fbe <__mulsf3+0x76>
   1119a:	0024e493          	or	s1,s1,2
   1119e:	89ba                	mv	s3,a4
   111a0:	4589                	li	a1,2
   111a2:	bd31                	j	10fbe <__mulsf3+0x76>
   111a4:	44b1                	li	s1,12
   111a6:	0ff00993          	li	s3,255
   111aa:	4b0d                	li	s6,3
   111ac:	b3c5                	j	10f8c <__mulsf3+0x44>
   111ae:	8a56                	mv	s4,s5
   111b0:	8b2e                	mv	s6,a1
   111b2:	8522                	mv	a0,s0
   111b4:	b73d                	j	110e2 <__mulsf3+0x19a>
   111b6:	4681                	li	a3,0
   111b8:	0ff00793          	li	a5,255
   111bc:	00400737          	lui	a4,0x400
   111c0:	bf2d                	j	110fa <__mulsf3+0x1b2>
   111c2:	4605                	li	a2,1
   111c4:	c799                	beqz	a5,111d2 <__mulsf3+0x28a>
   111c6:	8e1d                	sub	a2,a2,a5
   111c8:	45ed                	li	a1,27
   111ca:	4781                	li	a5,0
   111cc:	4701                	li	a4,0
   111ce:	f2c5c6e3          	blt	a1,a2,110fa <__mulsf3+0x1b2>
   111d2:	09e98713          	add	a4,s3,158
   111d6:	00ea1733          	sll	a4,s4,a4
   111da:	00e03733          	snez	a4,a4
   111de:	00ca57b3          	srl	a5,s4,a2
   111e2:	8fd9                	or	a5,a5,a4
   111e4:	0077f713          	and	a4,a5,7
   111e8:	c719                	beqz	a4,111f6 <__mulsf3+0x2ae>
   111ea:	00f7f713          	and	a4,a5,15
   111ee:	4611                	li	a2,4
   111f0:	00c70363          	beq	a4,a2,111f6 <__mulsf3+0x2ae>
   111f4:	0791                	add	a5,a5,4
   111f6:	00579713          	sll	a4,a5,0x5
   111fa:	02075463          	bgez	a4,11222 <__mulsf3+0x2da>
   111fe:	4785                	li	a5,1
   11200:	4701                	li	a4,0
   11202:	bde5                	j	110fa <__mulsf3+0x1b2>
   11204:	45bd                	li	a1,15
   11206:	4681                	li	a3,0
   11208:	00400737          	lui	a4,0x400
   1120c:	8a56                	mv	s4,s5
   1120e:	4b0d                	li	s6,3
   11210:	eeb485e3          	beq	s1,a1,110fa <__mulsf3+0x1b2>
   11214:	bf79                	j	111b2 <__mulsf3+0x26a>
   11216:	89b2                	mv	s3,a2
   11218:	b5b1                	j	11064 <__mulsf3+0x11c>
   1121a:	0ff00793          	li	a5,255
   1121e:	4701                	li	a4,0
   11220:	bde9                	j	110fa <__mulsf3+0x1b2>
   11222:	079a                	sll	a5,a5,0x6
   11224:	0097d713          	srl	a4,a5,0x9
   11228:	4781                	li	a5,0
   1122a:	bdc1                	j	110fa <__mulsf3+0x1b2>

0001122c <__clzsi2>:
   1122c:	67c1                	lui	a5,0x10
   1122e:	02f57663          	bgeu	a0,a5,1125a <__clzsi2+0x2e>
   11232:	10053793          	sltiu	a5,a0,256
   11236:	0017b793          	seqz	a5,a5
   1123a:	078e                	sll	a5,a5,0x3
   1123c:	02000713          	li	a4,32
   11240:	8f1d                	sub	a4,a4,a5
   11242:	00f55533          	srl	a0,a0,a5
   11246:	0000c797          	auipc	a5,0xc
   1124a:	b7a78793          	add	a5,a5,-1158 # 1cdc0 <__clz_tab>
   1124e:	97aa                	add	a5,a5,a0
   11250:	0007c503          	lbu	a0,0(a5)
   11254:	40a70533          	sub	a0,a4,a0
   11258:	8082                	ret
   1125a:	010007b7          	lui	a5,0x1000
   1125e:	02f57063          	bgeu	a0,a5,1127e <__clzsi2+0x52>
   11262:	47c1                	li	a5,16
   11264:	00f55533          	srl	a0,a0,a5
   11268:	0000c797          	auipc	a5,0xc
   1126c:	b5878793          	add	a5,a5,-1192 # 1cdc0 <__clz_tab>
   11270:	97aa                	add	a5,a5,a0
   11272:	0007c503          	lbu	a0,0(a5)
   11276:	4741                	li	a4,16
   11278:	40a70533          	sub	a0,a4,a0
   1127c:	8082                	ret
   1127e:	47e1                	li	a5,24
   11280:	00f55533          	srl	a0,a0,a5
   11284:	0000c797          	auipc	a5,0xc
   11288:	b3c78793          	add	a5,a5,-1220 # 1cdc0 <__clz_tab>
   1128c:	97aa                	add	a5,a5,a0
   1128e:	0007c503          	lbu	a0,0(a5)
   11292:	4721                	li	a4,8
   11294:	40a70533          	sub	a0,a4,a0
   11298:	8082                	ret

0001129a <atexit>:
   1129a:	85aa                	mv	a1,a0
   1129c:	4681                	li	a3,0
   1129e:	4601                	li	a2,0
   112a0:	4501                	li	a0,0
   112a2:	7680006f          	j	11a0a <__register_exitproc>

000112a6 <stdio_exit_handler>:
   112a6:	83018613          	add	a2,gp,-2000 # 1e040 <__sglue>
   112aa:	00004597          	auipc	a1,0x4
   112ae:	4ac58593          	add	a1,a1,1196 # 15756 <_fclose_r>
   112b2:	0000d517          	auipc	a0,0xd
   112b6:	d9e50513          	add	a0,a0,-610 # 1e050 <_impure_data>
   112ba:	ae21                	j	115d2 <_fwalk_sglue>

000112bc <cleanup_stdio>:
   112bc:	414c                	lw	a1,4(a0)
   112be:	1141                	add	sp,sp,-16
   112c0:	c422                	sw	s0,8(sp)
   112c2:	c606                	sw	ra,12(sp)
   112c4:	fdc18793          	add	a5,gp,-36 # 1e7ec <__sf>
   112c8:	842a                	mv	s0,a0
   112ca:	00f58463          	beq	a1,a5,112d2 <cleanup_stdio+0x16>
   112ce:	488040ef          	jal	15756 <_fclose_r>
   112d2:	440c                	lw	a1,8(s0)
   112d4:	04418793          	add	a5,gp,68 # 1e854 <__global_pointer$+0x44>
   112d8:	00f58563          	beq	a1,a5,112e2 <cleanup_stdio+0x26>
   112dc:	8522                	mv	a0,s0
   112de:	478040ef          	jal	15756 <_fclose_r>
   112e2:	444c                	lw	a1,12(s0)
   112e4:	0ac18793          	add	a5,gp,172 # 1e8bc <__global_pointer$+0xac>
   112e8:	00f58863          	beq	a1,a5,112f8 <cleanup_stdio+0x3c>
   112ec:	8522                	mv	a0,s0
   112ee:	4422                	lw	s0,8(sp)
   112f0:	40b2                	lw	ra,12(sp)
   112f2:	0141                	add	sp,sp,16
   112f4:	4620406f          	j	15756 <_fclose_r>
   112f8:	40b2                	lw	ra,12(sp)
   112fa:	4422                	lw	s0,8(sp)
   112fc:	0141                	add	sp,sp,16
   112fe:	8082                	ret

00011300 <__fp_lock>:
   11300:	51fc                	lw	a5,100(a1)
   11302:	8b85                	and	a5,a5,1
   11304:	e791                	bnez	a5,11310 <__fp_lock+0x10>
   11306:	00c5d783          	lhu	a5,12(a1)
   1130a:	2007f793          	and	a5,a5,512
   1130e:	c399                	beqz	a5,11314 <__fp_lock+0x14>
   11310:	4501                	li	a0,0
   11312:	8082                	ret
   11314:	4da8                	lw	a0,88(a1)
   11316:	1141                	add	sp,sp,-16
   11318:	c606                	sw	ra,12(sp)
   1131a:	2d2d                	jal	11954 <__retarget_lock_acquire_recursive>
   1131c:	40b2                	lw	ra,12(sp)
   1131e:	4501                	li	a0,0
   11320:	0141                	add	sp,sp,16
   11322:	8082                	ret

00011324 <__fp_unlock>:
   11324:	51fc                	lw	a5,100(a1)
   11326:	8b85                	and	a5,a5,1
   11328:	e791                	bnez	a5,11334 <__fp_unlock+0x10>
   1132a:	00c5d783          	lhu	a5,12(a1)
   1132e:	2007f793          	and	a5,a5,512
   11332:	c399                	beqz	a5,11338 <__fp_unlock+0x14>
   11334:	4501                	li	a0,0
   11336:	8082                	ret
   11338:	4da8                	lw	a0,88(a1)
   1133a:	1141                	add	sp,sp,-16
   1133c:	c606                	sw	ra,12(sp)
   1133e:	250d                	jal	11960 <__retarget_lock_release_recursive>
   11340:	40b2                	lw	ra,12(sp)
   11342:	4501                	li	a0,0
   11344:	0141                	add	sp,sp,16
   11346:	8082                	ret

00011348 <global_stdio_init.part.0>:
   11348:	1101                	add	sp,sp,-32
   1134a:	00000797          	auipc	a5,0x0
   1134e:	f5c78793          	add	a5,a5,-164 # 112a6 <stdio_exit_handler>
   11352:	ce06                	sw	ra,28(sp)
   11354:	cc22                	sw	s0,24(sp)
   11356:	ca26                	sw	s1,20(sp)
   11358:	fdc18413          	add	s0,gp,-36 # 1e7ec <__sf>
   1135c:	c84a                	sw	s2,16(sp)
   1135e:	c64e                	sw	s3,12(sp)
   11360:	c452                	sw	s4,8(sp)
   11362:	4621                	li	a2,8
   11364:	4581                	li	a1,0
   11366:	f8f1a023          	sw	a5,-128(gp) # 1e790 <__stdio_exit_handler>
   1136a:	03818513          	add	a0,gp,56 # 1e848 <__global_pointer$+0x38>
   1136e:	4791                	li	a5,4
   11370:	c45c                	sw	a5,12(s0)
   11372:	00042023          	sw	zero,0(s0)
   11376:	00042223          	sw	zero,4(s0)
   1137a:	00042423          	sw	zero,8(s0)
   1137e:	06042223          	sw	zero,100(s0)
   11382:	00042823          	sw	zero,16(s0)
   11386:	00042a23          	sw	zero,20(s0)
   1138a:	00042c23          	sw	zero,24(s0)
   1138e:	2bd1                	jal	11962 <memset>
   11390:	00000a17          	auipc	s4,0x0
   11394:	302a0a13          	add	s4,s4,770 # 11692 <__sread>
   11398:	00000997          	auipc	s3,0x0
   1139c:	33498993          	add	s3,s3,820 # 116cc <__swrite>
   113a0:	00000917          	auipc	s2,0x0
   113a4:	37c90913          	add	s2,s2,892 # 1171c <__sseek>
   113a8:	00000497          	auipc	s1,0x0
   113ac:	3bc48493          	add	s1,s1,956 # 11764 <__sclose>
   113b0:	03418513          	add	a0,gp,52 # 1e844 <__global_pointer$+0x34>
   113b4:	03442023          	sw	s4,32(s0)
   113b8:	03342223          	sw	s3,36(s0)
   113bc:	03242423          	sw	s2,40(s0)
   113c0:	d444                	sw	s1,44(s0)
   113c2:	cc40                	sw	s0,28(s0)
   113c4:	2361                	jal	1194c <__retarget_lock_init_recursive>
   113c6:	67c1                	lui	a5,0x10
   113c8:	07a5                	add	a5,a5,9 # 10009 <exit-0x8b>
   113ca:	4621                	li	a2,8
   113cc:	4581                	li	a1,0
   113ce:	0a018513          	add	a0,gp,160 # 1e8b0 <__global_pointer$+0xa0>
   113d2:	d87c                	sw	a5,116(s0)
   113d4:	06042423          	sw	zero,104(s0)
   113d8:	06042623          	sw	zero,108(s0)
   113dc:	06042823          	sw	zero,112(s0)
   113e0:	0c042623          	sw	zero,204(s0)
   113e4:	06042c23          	sw	zero,120(s0)
   113e8:	06042e23          	sw	zero,124(s0)
   113ec:	08042023          	sw	zero,128(s0)
   113f0:	2b8d                	jal	11962 <memset>
   113f2:	04418793          	add	a5,gp,68 # 1e854 <__global_pointer$+0x44>
   113f6:	09c18513          	add	a0,gp,156 # 1e8ac <__global_pointer$+0x9c>
   113fa:	08f42223          	sw	a5,132(s0)
   113fe:	09442423          	sw	s4,136(s0)
   11402:	09342623          	sw	s3,140(s0)
   11406:	09242823          	sw	s2,144(s0)
   1140a:	08942a23          	sw	s1,148(s0)
   1140e:	2b3d                	jal	1194c <__retarget_lock_init_recursive>
   11410:	000207b7          	lui	a5,0x20
   11414:	07c9                	add	a5,a5,18 # 20012 <__BSS_END__+0x128e>
   11416:	4621                	li	a2,8
   11418:	4581                	li	a1,0
   1141a:	10818513          	add	a0,gp,264 # 1e918 <__global_pointer$+0x108>
   1141e:	0cf42e23          	sw	a5,220(s0)
   11422:	0c042823          	sw	zero,208(s0)
   11426:	0c042a23          	sw	zero,212(s0)
   1142a:	0c042c23          	sw	zero,216(s0)
   1142e:	12042a23          	sw	zero,308(s0)
   11432:	0e042023          	sw	zero,224(s0)
   11436:	0e042223          	sw	zero,228(s0)
   1143a:	0e042423          	sw	zero,232(s0)
   1143e:	2315                	jal	11962 <memset>
   11440:	0ac18793          	add	a5,gp,172 # 1e8bc <__global_pointer$+0xac>
   11444:	0f442823          	sw	s4,240(s0)
   11448:	0f342a23          	sw	s3,244(s0)
   1144c:	0f242c23          	sw	s2,248(s0)
   11450:	0e942e23          	sw	s1,252(s0)
   11454:	0ef42623          	sw	a5,236(s0)
   11458:	4462                	lw	s0,24(sp)
   1145a:	40f2                	lw	ra,28(sp)
   1145c:	44d2                	lw	s1,20(sp)
   1145e:	4942                	lw	s2,16(sp)
   11460:	49b2                	lw	s3,12(sp)
   11462:	4a22                	lw	s4,8(sp)
   11464:	10418513          	add	a0,gp,260 # 1e914 <__global_pointer$+0x104>
   11468:	6105                	add	sp,sp,32
   1146a:	a1cd                	j	1194c <__retarget_lock_init_recursive>

0001146c <__sfp>:
   1146c:	1101                	add	sp,sp,-32
   1146e:	c64e                	sw	s3,12(sp)
   11470:	89aa                	mv	s3,a0
   11472:	fa418513          	add	a0,gp,-92 # 1e7b4 <__lock___sfp_recursive_mutex>
   11476:	ce06                	sw	ra,28(sp)
   11478:	cc22                	sw	s0,24(sp)
   1147a:	ca26                	sw	s1,20(sp)
   1147c:	c84a                	sw	s2,16(sp)
   1147e:	29d9                	jal	11954 <__retarget_lock_acquire_recursive>
   11480:	f801a783          	lw	a5,-128(gp) # 1e790 <__stdio_exit_handler>
   11484:	cbd5                	beqz	a5,11538 <__sfp+0xcc>
   11486:	83018913          	add	s2,gp,-2000 # 1e040 <__sglue>
   1148a:	54fd                	li	s1,-1
   1148c:	00492783          	lw	a5,4(s2)
   11490:	00892403          	lw	s0,8(s2)
   11494:	17fd                	add	a5,a5,-1
   11496:	0007d763          	bgez	a5,114a4 <__sfp+0x38>
   1149a:	a0ad                	j	11504 <__sfp+0x98>
   1149c:	06840413          	add	s0,s0,104
   114a0:	06978263          	beq	a5,s1,11504 <__sfp+0x98>
   114a4:	00c41703          	lh	a4,12(s0)
   114a8:	17fd                	add	a5,a5,-1
   114aa:	fb6d                	bnez	a4,1149c <__sfp+0x30>
   114ac:	77c1                	lui	a5,0xffff0
   114ae:	0785                	add	a5,a5,1 # ffff0001 <__BSS_END__+0xfffd127d>
   114b0:	c45c                	sw	a5,12(s0)
   114b2:	05840513          	add	a0,s0,88
   114b6:	06042223          	sw	zero,100(s0)
   114ba:	2949                	jal	1194c <__retarget_lock_init_recursive>
   114bc:	fa418513          	add	a0,gp,-92 # 1e7b4 <__lock___sfp_recursive_mutex>
   114c0:	2145                	jal	11960 <__retarget_lock_release_recursive>
   114c2:	4621                	li	a2,8
   114c4:	00042023          	sw	zero,0(s0)
   114c8:	00042423          	sw	zero,8(s0)
   114cc:	00042223          	sw	zero,4(s0)
   114d0:	00042823          	sw	zero,16(s0)
   114d4:	00042a23          	sw	zero,20(s0)
   114d8:	00042c23          	sw	zero,24(s0)
   114dc:	4581                	li	a1,0
   114de:	05c40513          	add	a0,s0,92
   114e2:	2141                	jal	11962 <memset>
   114e4:	02042823          	sw	zero,48(s0)
   114e8:	02042a23          	sw	zero,52(s0)
   114ec:	04042223          	sw	zero,68(s0)
   114f0:	04042423          	sw	zero,72(s0)
   114f4:	40f2                	lw	ra,28(sp)
   114f6:	8522                	mv	a0,s0
   114f8:	4462                	lw	s0,24(sp)
   114fa:	44d2                	lw	s1,20(sp)
   114fc:	4942                	lw	s2,16(sp)
   114fe:	49b2                	lw	s3,12(sp)
   11500:	6105                	add	sp,sp,32
   11502:	8082                	ret
   11504:	00092403          	lw	s0,0(s2)
   11508:	c019                	beqz	s0,1150e <__sfp+0xa2>
   1150a:	8922                	mv	s2,s0
   1150c:	b741                	j	1148c <__sfp+0x20>
   1150e:	1ac00593          	li	a1,428
   11512:	854e                	mv	a0,s3
   11514:	163000ef          	jal	11e76 <_malloc_r>
   11518:	842a                	mv	s0,a0
   1151a:	c10d                	beqz	a0,1153c <__sfp+0xd0>
   1151c:	0531                	add	a0,a0,12
   1151e:	4791                	li	a5,4
   11520:	00042023          	sw	zero,0(s0)
   11524:	c05c                	sw	a5,4(s0)
   11526:	c408                	sw	a0,8(s0)
   11528:	1a000613          	li	a2,416
   1152c:	4581                	li	a1,0
   1152e:	2915                	jal	11962 <memset>
   11530:	00892023          	sw	s0,0(s2)
   11534:	8922                	mv	s2,s0
   11536:	bf99                	j	1148c <__sfp+0x20>
   11538:	3d01                	jal	11348 <global_stdio_init.part.0>
   1153a:	b7b1                	j	11486 <__sfp+0x1a>
   1153c:	00092023          	sw	zero,0(s2)
   11540:	fa418513          	add	a0,gp,-92 # 1e7b4 <__lock___sfp_recursive_mutex>
   11544:	2931                	jal	11960 <__retarget_lock_release_recursive>
   11546:	47b1                	li	a5,12
   11548:	00f9a023          	sw	a5,0(s3)
   1154c:	b765                	j	114f4 <__sfp+0x88>

0001154e <__sinit>:
   1154e:	1141                	add	sp,sp,-16
   11550:	c422                	sw	s0,8(sp)
   11552:	842a                	mv	s0,a0
   11554:	fa418513          	add	a0,gp,-92 # 1e7b4 <__lock___sfp_recursive_mutex>
   11558:	c606                	sw	ra,12(sp)
   1155a:	2eed                	jal	11954 <__retarget_lock_acquire_recursive>
   1155c:	585c                	lw	a5,52(s0)
   1155e:	eb89                	bnez	a5,11570 <__sinit+0x22>
   11560:	00000797          	auipc	a5,0x0
   11564:	d5c78793          	add	a5,a5,-676 # 112bc <cleanup_stdio>
   11568:	d85c                	sw	a5,52(s0)
   1156a:	f801a783          	lw	a5,-128(gp) # 1e790 <__stdio_exit_handler>
   1156e:	c799                	beqz	a5,1157c <__sinit+0x2e>
   11570:	4422                	lw	s0,8(sp)
   11572:	40b2                	lw	ra,12(sp)
   11574:	fa418513          	add	a0,gp,-92 # 1e7b4 <__lock___sfp_recursive_mutex>
   11578:	0141                	add	sp,sp,16
   1157a:	a6dd                	j	11960 <__retarget_lock_release_recursive>
   1157c:	33f1                	jal	11348 <global_stdio_init.part.0>
   1157e:	4422                	lw	s0,8(sp)
   11580:	40b2                	lw	ra,12(sp)
   11582:	fa418513          	add	a0,gp,-92 # 1e7b4 <__lock___sfp_recursive_mutex>
   11586:	0141                	add	sp,sp,16
   11588:	aee1                	j	11960 <__retarget_lock_release_recursive>

0001158a <__sfp_lock_acquire>:
   1158a:	fa418513          	add	a0,gp,-92 # 1e7b4 <__lock___sfp_recursive_mutex>
   1158e:	a6d9                	j	11954 <__retarget_lock_acquire_recursive>

00011590 <__sfp_lock_release>:
   11590:	fa418513          	add	a0,gp,-92 # 1e7b4 <__lock___sfp_recursive_mutex>
   11594:	a6f1                	j	11960 <__retarget_lock_release_recursive>

00011596 <__fp_lock_all>:
   11596:	1141                	add	sp,sp,-16
   11598:	fa418513          	add	a0,gp,-92 # 1e7b4 <__lock___sfp_recursive_mutex>
   1159c:	c606                	sw	ra,12(sp)
   1159e:	2e5d                	jal	11954 <__retarget_lock_acquire_recursive>
   115a0:	40b2                	lw	ra,12(sp)
   115a2:	83018613          	add	a2,gp,-2000 # 1e040 <__sglue>
   115a6:	00000597          	auipc	a1,0x0
   115aa:	d5a58593          	add	a1,a1,-678 # 11300 <__fp_lock>
   115ae:	4501                	li	a0,0
   115b0:	0141                	add	sp,sp,16
   115b2:	a005                	j	115d2 <_fwalk_sglue>

000115b4 <__fp_unlock_all>:
   115b4:	1141                	add	sp,sp,-16
   115b6:	83018613          	add	a2,gp,-2000 # 1e040 <__sglue>
   115ba:	00000597          	auipc	a1,0x0
   115be:	d6a58593          	add	a1,a1,-662 # 11324 <__fp_unlock>
   115c2:	4501                	li	a0,0
   115c4:	c606                	sw	ra,12(sp)
   115c6:	2031                	jal	115d2 <_fwalk_sglue>
   115c8:	40b2                	lw	ra,12(sp)
   115ca:	fa418513          	add	a0,gp,-92 # 1e7b4 <__lock___sfp_recursive_mutex>
   115ce:	0141                	add	sp,sp,16
   115d0:	ae41                	j	11960 <__retarget_lock_release_recursive>

000115d2 <_fwalk_sglue>:
   115d2:	7179                	add	sp,sp,-48
   115d4:	d04a                	sw	s2,32(sp)
   115d6:	ce4e                	sw	s3,28(sp)
   115d8:	cc52                	sw	s4,24(sp)
   115da:	ca56                	sw	s5,20(sp)
   115dc:	c85a                	sw	s6,16(sp)
   115de:	c65e                	sw	s7,12(sp)
   115e0:	d606                	sw	ra,44(sp)
   115e2:	d422                	sw	s0,40(sp)
   115e4:	d226                	sw	s1,36(sp)
   115e6:	8b2a                	mv	s6,a0
   115e8:	8bae                	mv	s7,a1
   115ea:	8ab2                	mv	s5,a2
   115ec:	4a01                	li	s4,0
   115ee:	4985                	li	s3,1
   115f0:	597d                	li	s2,-1
   115f2:	004aa483          	lw	s1,4(s5)
   115f6:	008aa403          	lw	s0,8(s5)
   115fa:	14fd                	add	s1,s1,-1
   115fc:	0204c463          	bltz	s1,11624 <_fwalk_sglue+0x52>
   11600:	00c45783          	lhu	a5,12(s0)
   11604:	00f9fb63          	bgeu	s3,a5,1161a <_fwalk_sglue+0x48>
   11608:	00e41783          	lh	a5,14(s0)
   1160c:	85a2                	mv	a1,s0
   1160e:	855a                	mv	a0,s6
   11610:	01278563          	beq	a5,s2,1161a <_fwalk_sglue+0x48>
   11614:	9b82                	jalr	s7
   11616:	00aa6a33          	or	s4,s4,a0
   1161a:	14fd                	add	s1,s1,-1
   1161c:	06840413          	add	s0,s0,104
   11620:	ff2490e3          	bne	s1,s2,11600 <_fwalk_sglue+0x2e>
   11624:	000aaa83          	lw	s5,0(s5)
   11628:	fc0a95e3          	bnez	s5,115f2 <_fwalk_sglue+0x20>
   1162c:	50b2                	lw	ra,44(sp)
   1162e:	5422                	lw	s0,40(sp)
   11630:	5492                	lw	s1,36(sp)
   11632:	5902                	lw	s2,32(sp)
   11634:	49f2                	lw	s3,28(sp)
   11636:	4ad2                	lw	s5,20(sp)
   11638:	4b42                	lw	s6,16(sp)
   1163a:	4bb2                	lw	s7,12(sp)
   1163c:	8552                	mv	a0,s4
   1163e:	4a62                	lw	s4,24(sp)
   11640:	6145                	add	sp,sp,48
   11642:	8082                	ret

00011644 <_printf_r>:
   11644:	7139                	add	sp,sp,-64
   11646:	d432                	sw	a2,40(sp)
   11648:	d636                	sw	a3,44(sp)
   1164a:	d83a                	sw	a4,48(sp)
   1164c:	da3e                	sw	a5,52(sp)
   1164e:	dc42                	sw	a6,56(sp)
   11650:	de46                	sw	a7,60(sp)
   11652:	862e                	mv	a2,a1
   11654:	450c                	lw	a1,8(a0)
   11656:	1034                	add	a3,sp,40
   11658:	ce06                	sw	ra,28(sp)
   1165a:	c636                	sw	a3,12(sp)
   1165c:	5d9000ef          	jal	12434 <_vfprintf_r>
   11660:	40f2                	lw	ra,28(sp)
   11662:	6121                	add	sp,sp,64
   11664:	8082                	ret

00011666 <printf>:
   11666:	7139                	add	sp,sp,-64
   11668:	d432                	sw	a2,40(sp)
   1166a:	d636                	sw	a3,44(sp)
   1166c:	f681a303          	lw	t1,-152(gp) # 1e778 <_impure_ptr>
   11670:	d22e                	sw	a1,36(sp)
   11672:	d83a                	sw	a4,48(sp)
   11674:	da3e                	sw	a5,52(sp)
   11676:	dc42                	sw	a6,56(sp)
   11678:	de46                	sw	a7,60(sp)
   1167a:	00832583          	lw	a1,8(t1)
   1167e:	1054                	add	a3,sp,36
   11680:	862a                	mv	a2,a0
   11682:	851a                	mv	a0,t1
   11684:	ce06                	sw	ra,28(sp)
   11686:	c636                	sw	a3,12(sp)
   11688:	5ad000ef          	jal	12434 <_vfprintf_r>
   1168c:	40f2                	lw	ra,28(sp)
   1168e:	6121                	add	sp,sp,64
   11690:	8082                	ret

00011692 <__sread>:
   11692:	1141                	add	sp,sp,-16
   11694:	c422                	sw	s0,8(sp)
   11696:	842e                	mv	s0,a1
   11698:	00e59583          	lh	a1,14(a1)
   1169c:	c606                	sw	ra,12(sp)
   1169e:	2a79                	jal	1183c <_read_r>
   116a0:	00054963          	bltz	a0,116b2 <__sread+0x20>
   116a4:	483c                	lw	a5,80(s0)
   116a6:	40b2                	lw	ra,12(sp)
   116a8:	97aa                	add	a5,a5,a0
   116aa:	c83c                	sw	a5,80(s0)
   116ac:	4422                	lw	s0,8(sp)
   116ae:	0141                	add	sp,sp,16
   116b0:	8082                	ret
   116b2:	00c45783          	lhu	a5,12(s0)
   116b6:	777d                	lui	a4,0xfffff
   116b8:	177d                	add	a4,a4,-1 # ffffefff <__BSS_END__+0xfffe027b>
   116ba:	8ff9                	and	a5,a5,a4
   116bc:	40b2                	lw	ra,12(sp)
   116be:	00f41623          	sh	a5,12(s0)
   116c2:	4422                	lw	s0,8(sp)
   116c4:	0141                	add	sp,sp,16
   116c6:	8082                	ret

000116c8 <__seofread>:
   116c8:	4501                	li	a0,0
   116ca:	8082                	ret

000116cc <__swrite>:
   116cc:	00c59783          	lh	a5,12(a1)
   116d0:	1101                	add	sp,sp,-32
   116d2:	cc22                	sw	s0,24(sp)
   116d4:	ca26                	sw	s1,20(sp)
   116d6:	c84a                	sw	s2,16(sp)
   116d8:	c64e                	sw	s3,12(sp)
   116da:	ce06                	sw	ra,28(sp)
   116dc:	1007f713          	and	a4,a5,256
   116e0:	842e                	mv	s0,a1
   116e2:	84aa                	mv	s1,a0
   116e4:	8932                	mv	s2,a2
   116e6:	89b6                	mv	s3,a3
   116e8:	e315                	bnez	a4,1170c <__swrite+0x40>
   116ea:	777d                	lui	a4,0xfffff
   116ec:	177d                	add	a4,a4,-1 # ffffefff <__BSS_END__+0xfffe027b>
   116ee:	8ff9                	and	a5,a5,a4
   116f0:	00e41583          	lh	a1,14(s0)
   116f4:	00f41623          	sh	a5,12(s0)
   116f8:	4462                	lw	s0,24(sp)
   116fa:	40f2                	lw	ra,28(sp)
   116fc:	86ce                	mv	a3,s3
   116fe:	864a                	mv	a2,s2
   11700:	49b2                	lw	s3,12(sp)
   11702:	4942                	lw	s2,16(sp)
   11704:	8526                	mv	a0,s1
   11706:	44d2                	lw	s1,20(sp)
   11708:	6105                	add	sp,sp,32
   1170a:	a2a5                	j	11872 <_write_r>
   1170c:	00e59583          	lh	a1,14(a1)
   11710:	4689                	li	a3,2
   11712:	4601                	li	a2,0
   11714:	28cd                	jal	11806 <_lseek_r>
   11716:	00c41783          	lh	a5,12(s0)
   1171a:	bfc1                	j	116ea <__swrite+0x1e>

0001171c <__sseek>:
   1171c:	1141                	add	sp,sp,-16
   1171e:	c422                	sw	s0,8(sp)
   11720:	842e                	mv	s0,a1
   11722:	00e59583          	lh	a1,14(a1)
   11726:	c606                	sw	ra,12(sp)
   11728:	28f9                	jal	11806 <_lseek_r>
   1172a:	57fd                	li	a5,-1
   1172c:	00f50f63          	beq	a0,a5,1174a <__sseek+0x2e>
   11730:	00c45783          	lhu	a5,12(s0)
   11734:	6705                	lui	a4,0x1
   11736:	40b2                	lw	ra,12(sp)
   11738:	8fd9                	or	a5,a5,a4
   1173a:	07c2                	sll	a5,a5,0x10
   1173c:	87c1                	sra	a5,a5,0x10
   1173e:	c828                	sw	a0,80(s0)
   11740:	00f41623          	sh	a5,12(s0)
   11744:	4422                	lw	s0,8(sp)
   11746:	0141                	add	sp,sp,16
   11748:	8082                	ret
   1174a:	00c45783          	lhu	a5,12(s0)
   1174e:	777d                	lui	a4,0xfffff
   11750:	177d                	add	a4,a4,-1 # ffffefff <__BSS_END__+0xfffe027b>
   11752:	8ff9                	and	a5,a5,a4
   11754:	07c2                	sll	a5,a5,0x10
   11756:	87c1                	sra	a5,a5,0x10
   11758:	40b2                	lw	ra,12(sp)
   1175a:	00f41623          	sh	a5,12(s0)
   1175e:	4422                	lw	s0,8(sp)
   11760:	0141                	add	sp,sp,16
   11762:	8082                	ret

00011764 <__sclose>:
   11764:	00e59583          	lh	a1,14(a1)
   11768:	a009                	j	1176a <_close_r>

0001176a <_close_r>:
   1176a:	1141                	add	sp,sp,-16
   1176c:	c422                	sw	s0,8(sp)
   1176e:	842a                	mv	s0,a0
   11770:	852e                	mv	a0,a1
   11772:	f801a223          	sw	zero,-124(gp) # 1e794 <errno>
   11776:	c606                	sw	ra,12(sp)
   11778:	1b6090ef          	jal	1a92e <_close>
   1177c:	57fd                	li	a5,-1
   1177e:	00f50663          	beq	a0,a5,1178a <_close_r+0x20>
   11782:	40b2                	lw	ra,12(sp)
   11784:	4422                	lw	s0,8(sp)
   11786:	0141                	add	sp,sp,16
   11788:	8082                	ret
   1178a:	f841a783          	lw	a5,-124(gp) # 1e794 <errno>
   1178e:	dbf5                	beqz	a5,11782 <_close_r+0x18>
   11790:	40b2                	lw	ra,12(sp)
   11792:	c01c                	sw	a5,0(s0)
   11794:	4422                	lw	s0,8(sp)
   11796:	0141                	add	sp,sp,16
   11798:	8082                	ret

0001179a <_reclaim_reent>:
   1179a:	f681a783          	lw	a5,-152(gp) # 1e778 <_impure_ptr>
   1179e:	06a78363          	beq	a5,a0,11804 <_reclaim_reent+0x6a>
   117a2:	416c                	lw	a1,68(a0)
   117a4:	1101                	add	sp,sp,-32
   117a6:	ca26                	sw	s1,20(sp)
   117a8:	ce06                	sw	ra,28(sp)
   117aa:	84aa                	mv	s1,a0
   117ac:	c98d                	beqz	a1,117de <_reclaim_reent+0x44>
   117ae:	c84a                	sw	s2,16(sp)
   117b0:	c64e                	sw	s3,12(sp)
   117b2:	cc22                	sw	s0,24(sp)
   117b4:	4901                	li	s2,0
   117b6:	08000993          	li	s3,128
   117ba:	012587b3          	add	a5,a1,s2
   117be:	4380                	lw	s0,0(a5)
   117c0:	c419                	beqz	s0,117ce <_reclaim_reent+0x34>
   117c2:	85a2                	mv	a1,s0
   117c4:	4000                	lw	s0,0(s0)
   117c6:	8526                	mv	a0,s1
   117c8:	2159                	jal	11c4e <_free_r>
   117ca:	fc65                	bnez	s0,117c2 <_reclaim_reent+0x28>
   117cc:	40ec                	lw	a1,68(s1)
   117ce:	0911                	add	s2,s2,4
   117d0:	ff3915e3          	bne	s2,s3,117ba <_reclaim_reent+0x20>
   117d4:	8526                	mv	a0,s1
   117d6:	29a5                	jal	11c4e <_free_r>
   117d8:	4462                	lw	s0,24(sp)
   117da:	4942                	lw	s2,16(sp)
   117dc:	49b2                	lw	s3,12(sp)
   117de:	5c8c                	lw	a1,56(s1)
   117e0:	c199                	beqz	a1,117e6 <_reclaim_reent+0x4c>
   117e2:	8526                	mv	a0,s1
   117e4:	21ad                	jal	11c4e <_free_r>
   117e6:	44ec                	lw	a1,76(s1)
   117e8:	c199                	beqz	a1,117ee <_reclaim_reent+0x54>
   117ea:	8526                	mv	a0,s1
   117ec:	218d                	jal	11c4e <_free_r>
   117ee:	58dc                	lw	a5,52(s1)
   117f0:	c791                	beqz	a5,117fc <_reclaim_reent+0x62>
   117f2:	40f2                	lw	ra,28(sp)
   117f4:	8526                	mv	a0,s1
   117f6:	44d2                	lw	s1,20(sp)
   117f8:	6105                	add	sp,sp,32
   117fa:	8782                	jr	a5
   117fc:	40f2                	lw	ra,28(sp)
   117fe:	44d2                	lw	s1,20(sp)
   11800:	6105                	add	sp,sp,32
   11802:	8082                	ret
   11804:	8082                	ret

00011806 <_lseek_r>:
   11806:	1141                	add	sp,sp,-16
   11808:	872e                	mv	a4,a1
   1180a:	c422                	sw	s0,8(sp)
   1180c:	85b2                	mv	a1,a2
   1180e:	842a                	mv	s0,a0
   11810:	8636                	mv	a2,a3
   11812:	853a                	mv	a0,a4
   11814:	f801a223          	sw	zero,-124(gp) # 1e794 <errno>
   11818:	c606                	sw	ra,12(sp)
   1181a:	1d8090ef          	jal	1a9f2 <_lseek>
   1181e:	57fd                	li	a5,-1
   11820:	00f50663          	beq	a0,a5,1182c <_lseek_r+0x26>
   11824:	40b2                	lw	ra,12(sp)
   11826:	4422                	lw	s0,8(sp)
   11828:	0141                	add	sp,sp,16
   1182a:	8082                	ret
   1182c:	f841a783          	lw	a5,-124(gp) # 1e794 <errno>
   11830:	dbf5                	beqz	a5,11824 <_lseek_r+0x1e>
   11832:	40b2                	lw	ra,12(sp)
   11834:	c01c                	sw	a5,0(s0)
   11836:	4422                	lw	s0,8(sp)
   11838:	0141                	add	sp,sp,16
   1183a:	8082                	ret

0001183c <_read_r>:
   1183c:	1141                	add	sp,sp,-16
   1183e:	872e                	mv	a4,a1
   11840:	c422                	sw	s0,8(sp)
   11842:	85b2                	mv	a1,a2
   11844:	842a                	mv	s0,a0
   11846:	8636                	mv	a2,a3
   11848:	853a                	mv	a0,a4
   1184a:	f801a223          	sw	zero,-124(gp) # 1e794 <errno>
   1184e:	c606                	sw	ra,12(sp)
   11850:	1ce090ef          	jal	1aa1e <_read>
   11854:	57fd                	li	a5,-1
   11856:	00f50663          	beq	a0,a5,11862 <_read_r+0x26>
   1185a:	40b2                	lw	ra,12(sp)
   1185c:	4422                	lw	s0,8(sp)
   1185e:	0141                	add	sp,sp,16
   11860:	8082                	ret
   11862:	f841a783          	lw	a5,-124(gp) # 1e794 <errno>
   11866:	dbf5                	beqz	a5,1185a <_read_r+0x1e>
   11868:	40b2                	lw	ra,12(sp)
   1186a:	c01c                	sw	a5,0(s0)
   1186c:	4422                	lw	s0,8(sp)
   1186e:	0141                	add	sp,sp,16
   11870:	8082                	ret

00011872 <_write_r>:
   11872:	1141                	add	sp,sp,-16
   11874:	872e                	mv	a4,a1
   11876:	c422                	sw	s0,8(sp)
   11878:	85b2                	mv	a1,a2
   1187a:	842a                	mv	s0,a0
   1187c:	8636                	mv	a2,a3
   1187e:	853a                	mv	a0,a4
   11880:	f801a223          	sw	zero,-124(gp) # 1e794 <errno>
   11884:	c606                	sw	ra,12(sp)
   11886:	214090ef          	jal	1aa9a <_write>
   1188a:	57fd                	li	a5,-1
   1188c:	00f50663          	beq	a0,a5,11898 <_write_r+0x26>
   11890:	40b2                	lw	ra,12(sp)
   11892:	4422                	lw	s0,8(sp)
   11894:	0141                	add	sp,sp,16
   11896:	8082                	ret
   11898:	f841a783          	lw	a5,-124(gp) # 1e794 <errno>
   1189c:	dbf5                	beqz	a5,11890 <_write_r+0x1e>
   1189e:	40b2                	lw	ra,12(sp)
   118a0:	c01c                	sw	a5,0(s0)
   118a2:	4422                	lw	s0,8(sp)
   118a4:	0141                	add	sp,sp,16
   118a6:	8082                	ret

000118a8 <__libc_init_array>:
   118a8:	1141                	add	sp,sp,-16
   118aa:	c422                	sw	s0,8(sp)
   118ac:	c04a                	sw	s2,0(sp)
   118ae:	0000c797          	auipc	a5,0xc
   118b2:	75678793          	add	a5,a5,1878 # 1e004 <__init_array_start>
   118b6:	0000c417          	auipc	s0,0xc
   118ba:	74e40413          	add	s0,s0,1870 # 1e004 <__init_array_start>
   118be:	c606                	sw	ra,12(sp)
   118c0:	c226                	sw	s1,4(sp)
   118c2:	40878933          	sub	s2,a5,s0
   118c6:	00878b63          	beq	a5,s0,118dc <__libc_init_array+0x34>
   118ca:	40295913          	sra	s2,s2,0x2
   118ce:	4481                	li	s1,0
   118d0:	401c                	lw	a5,0(s0)
   118d2:	0485                	add	s1,s1,1
   118d4:	0411                	add	s0,s0,4
   118d6:	9782                	jalr	a5
   118d8:	ff24ece3          	bltu	s1,s2,118d0 <__libc_init_array+0x28>
   118dc:	0000c797          	auipc	a5,0xc
   118e0:	73078793          	add	a5,a5,1840 # 1e00c <__do_global_dtors_aux_fini_array_entry>
   118e4:	0000c417          	auipc	s0,0xc
   118e8:	72040413          	add	s0,s0,1824 # 1e004 <__init_array_start>
   118ec:	40878933          	sub	s2,a5,s0
   118f0:	40295913          	sra	s2,s2,0x2
   118f4:	00878963          	beq	a5,s0,11906 <__libc_init_array+0x5e>
   118f8:	4481                	li	s1,0
   118fa:	401c                	lw	a5,0(s0)
   118fc:	0485                	add	s1,s1,1
   118fe:	0411                	add	s0,s0,4
   11900:	9782                	jalr	a5
   11902:	ff24ece3          	bltu	s1,s2,118fa <__libc_init_array+0x52>
   11906:	40b2                	lw	ra,12(sp)
   11908:	4422                	lw	s0,8(sp)
   1190a:	4492                	lw	s1,4(sp)
   1190c:	4902                	lw	s2,0(sp)
   1190e:	0141                	add	sp,sp,16
   11910:	8082                	ret

00011912 <__libc_fini_array>:
   11912:	1141                	add	sp,sp,-16
   11914:	c422                	sw	s0,8(sp)
   11916:	0000c797          	auipc	a5,0xc
   1191a:	6f678793          	add	a5,a5,1782 # 1e00c <__do_global_dtors_aux_fini_array_entry>
   1191e:	0000c417          	auipc	s0,0xc
   11922:	6f240413          	add	s0,s0,1778 # 1e010 <__DATA_BEGIN__>
   11926:	8c1d                	sub	s0,s0,a5
   11928:	c226                	sw	s1,4(sp)
   1192a:	c606                	sw	ra,12(sp)
   1192c:	40245493          	sra	s1,s0,0x2
   11930:	c881                	beqz	s1,11940 <__libc_fini_array+0x2e>
   11932:	1471                	add	s0,s0,-4
   11934:	943e                	add	s0,s0,a5
   11936:	401c                	lw	a5,0(s0)
   11938:	14fd                	add	s1,s1,-1
   1193a:	1471                	add	s0,s0,-4
   1193c:	9782                	jalr	a5
   1193e:	fce5                	bnez	s1,11936 <__libc_fini_array+0x24>
   11940:	40b2                	lw	ra,12(sp)
   11942:	4422                	lw	s0,8(sp)
   11944:	4492                	lw	s1,4(sp)
   11946:	0141                	add	sp,sp,16
   11948:	8082                	ret

0001194a <__retarget_lock_init>:
   1194a:	8082                	ret

0001194c <__retarget_lock_init_recursive>:
   1194c:	8082                	ret

0001194e <__retarget_lock_close>:
   1194e:	8082                	ret

00011950 <__retarget_lock_close_recursive>:
   11950:	8082                	ret

00011952 <__retarget_lock_acquire>:
   11952:	8082                	ret

00011954 <__retarget_lock_acquire_recursive>:
   11954:	8082                	ret

00011956 <__retarget_lock_try_acquire>:
   11956:	4505                	li	a0,1
   11958:	8082                	ret

0001195a <__retarget_lock_try_acquire_recursive>:
   1195a:	4505                	li	a0,1
   1195c:	8082                	ret

0001195e <__retarget_lock_release>:
   1195e:	8082                	ret

00011960 <__retarget_lock_release_recursive>:
   11960:	8082                	ret

00011962 <memset>:
   11962:	433d                	li	t1,15
   11964:	872a                	mv	a4,a0
   11966:	02c37363          	bgeu	t1,a2,1198c <memset+0x2a>
   1196a:	00f77793          	and	a5,a4,15
   1196e:	efbd                	bnez	a5,119ec <memset+0x8a>
   11970:	e5ad                	bnez	a1,119da <memset+0x78>
   11972:	ff067693          	and	a3,a2,-16
   11976:	8a3d                	and	a2,a2,15
   11978:	96ba                	add	a3,a3,a4
   1197a:	c30c                	sw	a1,0(a4)
   1197c:	c34c                	sw	a1,4(a4)
   1197e:	c70c                	sw	a1,8(a4)
   11980:	c74c                	sw	a1,12(a4)
   11982:	0741                	add	a4,a4,16
   11984:	fed76be3          	bltu	a4,a3,1197a <memset+0x18>
   11988:	e211                	bnez	a2,1198c <memset+0x2a>
   1198a:	8082                	ret
   1198c:	40c306b3          	sub	a3,t1,a2
   11990:	068a                	sll	a3,a3,0x2
   11992:	00000297          	auipc	t0,0x0
   11996:	9696                	add	a3,a3,t0
   11998:	00a68067          	jr	10(a3)
   1199c:	00b70723          	sb	a1,14(a4)
   119a0:	00b706a3          	sb	a1,13(a4)
   119a4:	00b70623          	sb	a1,12(a4)
   119a8:	00b705a3          	sb	a1,11(a4)
   119ac:	00b70523          	sb	a1,10(a4)
   119b0:	00b704a3          	sb	a1,9(a4)
   119b4:	00b70423          	sb	a1,8(a4)
   119b8:	00b703a3          	sb	a1,7(a4)
   119bc:	00b70323          	sb	a1,6(a4)
   119c0:	00b702a3          	sb	a1,5(a4)
   119c4:	00b70223          	sb	a1,4(a4)
   119c8:	00b701a3          	sb	a1,3(a4)
   119cc:	00b70123          	sb	a1,2(a4)
   119d0:	00b700a3          	sb	a1,1(a4)
   119d4:	00b70023          	sb	a1,0(a4)
   119d8:	8082                	ret
   119da:	0ff5f593          	zext.b	a1,a1
   119de:	00859693          	sll	a3,a1,0x8
   119e2:	8dd5                	or	a1,a1,a3
   119e4:	01059693          	sll	a3,a1,0x10
   119e8:	8dd5                	or	a1,a1,a3
   119ea:	b761                	j	11972 <memset+0x10>
   119ec:	00279693          	sll	a3,a5,0x2
   119f0:	00000297          	auipc	t0,0x0
   119f4:	9696                	add	a3,a3,t0
   119f6:	8286                	mv	t0,ra
   119f8:	fa8680e7          	jalr	-88(a3)
   119fc:	8096                	mv	ra,t0
   119fe:	17c1                	add	a5,a5,-16
   11a00:	8f1d                	sub	a4,a4,a5
   11a02:	963e                	add	a2,a2,a5
   11a04:	f8c374e3          	bgeu	t1,a2,1198c <memset+0x2a>
   11a08:	b7a5                	j	11970 <memset+0xe>

00011a0a <__register_exitproc>:
   11a0a:	1101                	add	sp,sp,-32
   11a0c:	c84a                	sw	s2,16(sp)
   11a0e:	f6c18913          	add	s2,gp,-148 # 1e77c <__atexit_recursive_mutex>
   11a12:	cc22                	sw	s0,24(sp)
   11a14:	842a                	mv	s0,a0
   11a16:	00092503          	lw	a0,0(s2)
   11a1a:	ca26                	sw	s1,20(sp)
   11a1c:	c64e                	sw	s3,12(sp)
   11a1e:	c452                	sw	s4,8(sp)
   11a20:	ce06                	sw	ra,28(sp)
   11a22:	84ae                	mv	s1,a1
   11a24:	8a32                	mv	s4,a2
   11a26:	89b6                	mv	s3,a3
   11a28:	3735                	jal	11954 <__retarget_lock_acquire_recursive>
   11a2a:	fa818713          	add	a4,gp,-88 # 1e7b8 <__atexit>
   11a2e:	431c                	lw	a5,0(a4)
   11a30:	cfb9                	beqz	a5,11a8e <__register_exitproc+0x84>
   11a32:	43d8                	lw	a4,4(a5)
   11a34:	45fd                	li	a1,31
   11a36:	00092503          	lw	a0,0(s2)
   11a3a:	04e5ce63          	blt	a1,a4,11a96 <__register_exitproc+0x8c>
   11a3e:	00271593          	sll	a1,a4,0x2
   11a42:	ec19                	bnez	s0,11a60 <__register_exitproc+0x56>
   11a44:	0705                	add	a4,a4,1
   11a46:	c3d8                	sw	a4,4(a5)
   11a48:	97ae                	add	a5,a5,a1
   11a4a:	c784                	sw	s1,8(a5)
   11a4c:	3f11                	jal	11960 <__retarget_lock_release_recursive>
   11a4e:	4501                	li	a0,0
   11a50:	40f2                	lw	ra,28(sp)
   11a52:	4462                	lw	s0,24(sp)
   11a54:	44d2                	lw	s1,20(sp)
   11a56:	4942                	lw	s2,16(sp)
   11a58:	49b2                	lw	s3,12(sp)
   11a5a:	4a22                	lw	s4,8(sp)
   11a5c:	6105                	add	sp,sp,32
   11a5e:	8082                	ret
   11a60:	00b78833          	add	a6,a5,a1
   11a64:	09482423          	sw	s4,136(a6)
   11a68:	1887a683          	lw	a3,392(a5)
   11a6c:	4605                	li	a2,1
   11a6e:	00e61633          	sll	a2,a2,a4
   11a72:	8ed1                	or	a3,a3,a2
   11a74:	18d7a423          	sw	a3,392(a5)
   11a78:	11382423          	sw	s3,264(a6)
   11a7c:	4689                	li	a3,2
   11a7e:	fcd413e3          	bne	s0,a3,11a44 <__register_exitproc+0x3a>
   11a82:	18c7a683          	lw	a3,396(a5)
   11a86:	8ed1                	or	a3,a3,a2
   11a88:	18d7a623          	sw	a3,396(a5)
   11a8c:	bf65                	j	11a44 <__register_exitproc+0x3a>
   11a8e:	11418793          	add	a5,gp,276 # 1e924 <__atexit0>
   11a92:	c31c                	sw	a5,0(a4)
   11a94:	bf79                	j	11a32 <__register_exitproc+0x28>
   11a96:	35e9                	jal	11960 <__retarget_lock_release_recursive>
   11a98:	557d                	li	a0,-1
   11a9a:	bf5d                	j	11a50 <__register_exitproc+0x46>

00011a9c <__call_exitprocs>:
   11a9c:	7179                	add	sp,sp,-48
   11a9e:	c65e                	sw	s7,12(sp)
   11aa0:	f6c18b93          	add	s7,gp,-148 # 1e77c <__atexit_recursive_mutex>
   11aa4:	c85a                	sw	s6,16(sp)
   11aa6:	8b2a                	mv	s6,a0
   11aa8:	000ba503          	lw	a0,0(s7)
   11aac:	cc52                	sw	s4,24(sp)
   11aae:	fa818a13          	add	s4,gp,-88 # 1e7b8 <__atexit>
   11ab2:	d04a                	sw	s2,32(sp)
   11ab4:	c462                	sw	s8,8(sp)
   11ab6:	d606                	sw	ra,44(sp)
   11ab8:	8c2e                	mv	s8,a1
   11aba:	3d69                	jal	11954 <__retarget_lock_acquire_recursive>
   11abc:	000a2903          	lw	s2,0(s4)
   11ac0:	06090663          	beqz	s2,11b2c <__call_exitprocs+0x90>
   11ac4:	ce4e                	sw	s3,28(sp)
   11ac6:	ca56                	sw	s5,20(sp)
   11ac8:	d422                	sw	s0,40(sp)
   11aca:	d226                	sw	s1,36(sp)
   11acc:	c266                	sw	s9,4(sp)
   11ace:	59fd                	li	s3,-1
   11ad0:	4a85                	li	s5,1
   11ad2:	00492483          	lw	s1,4(s2)
   11ad6:	fff48413          	add	s0,s1,-1
   11ada:	04044463          	bltz	s0,11b22 <__call_exitprocs+0x86>
   11ade:	048a                	sll	s1,s1,0x2
   11ae0:	94ca                	add	s1,s1,s2
   11ae2:	040c1f63          	bnez	s8,11b40 <__call_exitprocs+0xa4>
   11ae6:	00492783          	lw	a5,4(s2)
   11aea:	40d4                	lw	a3,4(s1)
   11aec:	17fd                	add	a5,a5,-1
   11aee:	08878363          	beq	a5,s0,11b74 <__call_exitprocs+0xd8>
   11af2:	0004a223          	sw	zero,4(s1)
   11af6:	c295                	beqz	a3,11b1a <__call_exitprocs+0x7e>
   11af8:	18892783          	lw	a5,392(s2)
   11afc:	008a9733          	sll	a4,s5,s0
   11b00:	00492c83          	lw	s9,4(s2)
   11b04:	8ff9                	and	a5,a5,a4
   11b06:	e7b1                	bnez	a5,11b52 <__call_exitprocs+0xb6>
   11b08:	9682                	jalr	a3
   11b0a:	00492703          	lw	a4,4(s2)
   11b0e:	000a2783          	lw	a5,0(s4)
   11b12:	05971e63          	bne	a4,s9,11b6e <__call_exitprocs+0xd2>
   11b16:	05279c63          	bne	a5,s2,11b6e <__call_exitprocs+0xd2>
   11b1a:	147d                	add	s0,s0,-1
   11b1c:	14f1                	add	s1,s1,-4
   11b1e:	fd3412e3          	bne	s0,s3,11ae2 <__call_exitprocs+0x46>
   11b22:	5422                	lw	s0,40(sp)
   11b24:	5492                	lw	s1,36(sp)
   11b26:	49f2                	lw	s3,28(sp)
   11b28:	4ad2                	lw	s5,20(sp)
   11b2a:	4c92                	lw	s9,4(sp)
   11b2c:	000ba503          	lw	a0,0(s7)
   11b30:	50b2                	lw	ra,44(sp)
   11b32:	5902                	lw	s2,32(sp)
   11b34:	4a62                	lw	s4,24(sp)
   11b36:	4b42                	lw	s6,16(sp)
   11b38:	4bb2                	lw	s7,12(sp)
   11b3a:	4c22                	lw	s8,8(sp)
   11b3c:	6145                	add	sp,sp,48
   11b3e:	b50d                	j	11960 <__retarget_lock_release_recursive>
   11b40:	1044a783          	lw	a5,260(s1)
   11b44:	fb8781e3          	beq	a5,s8,11ae6 <__call_exitprocs+0x4a>
   11b48:	147d                	add	s0,s0,-1
   11b4a:	14f1                	add	s1,s1,-4
   11b4c:	ff341ae3          	bne	s0,s3,11b40 <__call_exitprocs+0xa4>
   11b50:	bfc9                	j	11b22 <__call_exitprocs+0x86>
   11b52:	18c92783          	lw	a5,396(s2)
   11b56:	0844a583          	lw	a1,132(s1)
   11b5a:	8f7d                	and	a4,a4,a5
   11b5c:	ef19                	bnez	a4,11b7a <__call_exitprocs+0xde>
   11b5e:	855a                	mv	a0,s6
   11b60:	9682                	jalr	a3
   11b62:	00492703          	lw	a4,4(s2)
   11b66:	000a2783          	lw	a5,0(s4)
   11b6a:	fb9706e3          	beq	a4,s9,11b16 <__call_exitprocs+0x7a>
   11b6e:	dbd5                	beqz	a5,11b22 <__call_exitprocs+0x86>
   11b70:	893e                	mv	s2,a5
   11b72:	b785                	j	11ad2 <__call_exitprocs+0x36>
   11b74:	00892223          	sw	s0,4(s2)
   11b78:	bfbd                	j	11af6 <__call_exitprocs+0x5a>
   11b7a:	852e                	mv	a0,a1
   11b7c:	9682                	jalr	a3
   11b7e:	b771                	j	11b0a <__call_exitprocs+0x6e>

00011b80 <_malloc_trim_r>:
   11b80:	1101                	add	sp,sp,-32
   11b82:	cc22                	sw	s0,24(sp)
   11b84:	ca26                	sw	s1,20(sp)
   11b86:	c84a                	sw	s2,16(sp)
   11b88:	c64e                	sw	s3,12(sp)
   11b8a:	c452                	sw	s4,8(sp)
   11b8c:	89ae                	mv	s3,a1
   11b8e:	ce06                	sw	ra,28(sp)
   11b90:	892a                	mv	s2,a0
   11b92:	0000ca17          	auipc	s4,0xc
   11b96:	5dea0a13          	add	s4,s4,1502 # 1e170 <__malloc_av_>
   11b9a:	08b000ef          	jal	12424 <__malloc_lock>
   11b9e:	008a2703          	lw	a4,8(s4)
   11ba2:	6785                	lui	a5,0x1
   11ba4:	17bd                	add	a5,a5,-17 # fef <exit-0xf0a5>
   11ba6:	4344                	lw	s1,4(a4)
   11ba8:	6705                	lui	a4,0x1
   11baa:	98f1                	and	s1,s1,-4
   11bac:	00f48433          	add	s0,s1,a5
   11bb0:	41340433          	sub	s0,s0,s3
   11bb4:	8031                	srl	s0,s0,0xc
   11bb6:	147d                	add	s0,s0,-1
   11bb8:	0432                	sll	s0,s0,0xc
   11bba:	00e44b63          	blt	s0,a4,11bd0 <_malloc_trim_r+0x50>
   11bbe:	4581                	li	a1,0
   11bc0:	854a                	mv	a0,s2
   11bc2:	016050ef          	jal	16bd8 <_sbrk_r>
   11bc6:	008a2783          	lw	a5,8(s4)
   11bca:	97a6                	add	a5,a5,s1
   11bcc:	00f50e63          	beq	a0,a5,11be8 <_malloc_trim_r+0x68>
   11bd0:	854a                	mv	a0,s2
   11bd2:	05b000ef          	jal	1242c <__malloc_unlock>
   11bd6:	40f2                	lw	ra,28(sp)
   11bd8:	4462                	lw	s0,24(sp)
   11bda:	44d2                	lw	s1,20(sp)
   11bdc:	4942                	lw	s2,16(sp)
   11bde:	49b2                	lw	s3,12(sp)
   11be0:	4a22                	lw	s4,8(sp)
   11be2:	4501                	li	a0,0
   11be4:	6105                	add	sp,sp,32
   11be6:	8082                	ret
   11be8:	408005b3          	neg	a1,s0
   11bec:	854a                	mv	a0,s2
   11bee:	7eb040ef          	jal	16bd8 <_sbrk_r>
   11bf2:	57fd                	li	a5,-1
   11bf4:	02f50963          	beq	a0,a5,11c26 <_malloc_trim_r+0xa6>
   11bf8:	2a418713          	add	a4,gp,676 # 1eab4 <__malloc_current_mallinfo>
   11bfc:	431c                	lw	a5,0(a4)
   11bfe:	008a2683          	lw	a3,8(s4)
   11c02:	8c81                	sub	s1,s1,s0
   11c04:	0014e493          	or	s1,s1,1
   11c08:	8f81                	sub	a5,a5,s0
   11c0a:	854a                	mv	a0,s2
   11c0c:	c2c4                	sw	s1,4(a3)
   11c0e:	c31c                	sw	a5,0(a4)
   11c10:	01d000ef          	jal	1242c <__malloc_unlock>
   11c14:	40f2                	lw	ra,28(sp)
   11c16:	4462                	lw	s0,24(sp)
   11c18:	44d2                	lw	s1,20(sp)
   11c1a:	4942                	lw	s2,16(sp)
   11c1c:	49b2                	lw	s3,12(sp)
   11c1e:	4a22                	lw	s4,8(sp)
   11c20:	4505                	li	a0,1
   11c22:	6105                	add	sp,sp,32
   11c24:	8082                	ret
   11c26:	4581                	li	a1,0
   11c28:	854a                	mv	a0,s2
   11c2a:	7af040ef          	jal	16bd8 <_sbrk_r>
   11c2e:	008a2703          	lw	a4,8(s4)
   11c32:	46bd                	li	a3,15
   11c34:	40e507b3          	sub	a5,a0,a4
   11c38:	f8f6dce3          	bge	a3,a5,11bd0 <_malloc_trim_r+0x50>
   11c3c:	f701a683          	lw	a3,-144(gp) # 1e780 <__malloc_sbrk_base>
   11c40:	8d15                	sub	a0,a0,a3
   11c42:	0017e793          	or	a5,a5,1
   11c46:	2aa1a223          	sw	a0,676(gp) # 1eab4 <__malloc_current_mallinfo>
   11c4a:	c35c                	sw	a5,4(a4)
   11c4c:	b751                	j	11bd0 <_malloc_trim_r+0x50>

00011c4e <_free_r>:
   11c4e:	10058b63          	beqz	a1,11d64 <_free_r+0x116>
   11c52:	1141                	add	sp,sp,-16
   11c54:	c422                	sw	s0,8(sp)
   11c56:	c226                	sw	s1,4(sp)
   11c58:	842e                	mv	s0,a1
   11c5a:	84aa                	mv	s1,a0
   11c5c:	c606                	sw	ra,12(sp)
   11c5e:	7c6000ef          	jal	12424 <__malloc_lock>
   11c62:	ffc42583          	lw	a1,-4(s0)
   11c66:	ff840713          	add	a4,s0,-8
   11c6a:	0000c517          	auipc	a0,0xc
   11c6e:	50650513          	add	a0,a0,1286 # 1e170 <__malloc_av_>
   11c72:	ffe5f793          	and	a5,a1,-2
   11c76:	00f70633          	add	a2,a4,a5
   11c7a:	4254                	lw	a3,4(a2)
   11c7c:	00852803          	lw	a6,8(a0)
   11c80:	9af1                	and	a3,a3,-4
   11c82:	12c80363          	beq	a6,a2,11da8 <_free_r+0x15a>
   11c86:	c254                	sw	a3,4(a2)
   11c88:	8985                	and	a1,a1,1
   11c8a:	00d60833          	add	a6,a2,a3
   11c8e:	e9b5                	bnez	a1,11d02 <_free_r+0xb4>
   11c90:	ff842303          	lw	t1,-8(s0)
   11c94:	00482583          	lw	a1,4(a6)
   11c98:	0000c897          	auipc	a7,0xc
   11c9c:	4e088893          	add	a7,a7,1248 # 1e178 <__malloc_av_+0x8>
   11ca0:	40670733          	sub	a4,a4,t1
   11ca4:	00872803          	lw	a6,8(a4) # 1008 <exit-0xf08c>
   11ca8:	979a                	add	a5,a5,t1
   11caa:	8985                	and	a1,a1,1
   11cac:	0f180263          	beq	a6,a7,11d90 <_free_r+0x142>
   11cb0:	00c72303          	lw	t1,12(a4)
   11cb4:	00682623          	sw	t1,12(a6)
   11cb8:	01032423          	sw	a6,8(t1)
   11cbc:	10058e63          	beqz	a1,11dd8 <_free_r+0x18a>
   11cc0:	0017e693          	or	a3,a5,1
   11cc4:	c354                	sw	a3,4(a4)
   11cc6:	c21c                	sw	a5,0(a2)
   11cc8:	1ff00693          	li	a3,511
   11ccc:	04f6e863          	bltu	a3,a5,11d1c <_free_r+0xce>
   11cd0:	ff87f693          	and	a3,a5,-8
   11cd4:	06a1                	add	a3,a3,8
   11cd6:	414c                	lw	a1,4(a0)
   11cd8:	96aa                	add	a3,a3,a0
   11cda:	4290                	lw	a2,0(a3)
   11cdc:	0057d813          	srl	a6,a5,0x5
   11ce0:	4785                	li	a5,1
   11ce2:	010797b3          	sll	a5,a5,a6
   11ce6:	8fcd                	or	a5,a5,a1
   11ce8:	ff868593          	add	a1,a3,-8
   11cec:	c74c                	sw	a1,12(a4)
   11cee:	c710                	sw	a2,8(a4)
   11cf0:	c15c                	sw	a5,4(a0)
   11cf2:	c298                	sw	a4,0(a3)
   11cf4:	c658                	sw	a4,12(a2)
   11cf6:	4422                	lw	s0,8(sp)
   11cf8:	40b2                	lw	ra,12(sp)
   11cfa:	8526                	mv	a0,s1
   11cfc:	4492                	lw	s1,4(sp)
   11cfe:	0141                	add	sp,sp,16
   11d00:	a735                	j	1242c <__malloc_unlock>
   11d02:	00482583          	lw	a1,4(a6)
   11d06:	8985                	and	a1,a1,1
   11d08:	cdb9                	beqz	a1,11d66 <_free_r+0x118>
   11d0a:	0017e693          	or	a3,a5,1
   11d0e:	fed42e23          	sw	a3,-4(s0)
   11d12:	c21c                	sw	a5,0(a2)
   11d14:	1ff00693          	li	a3,511
   11d18:	faf6fce3          	bgeu	a3,a5,11cd0 <_free_r+0x82>
   11d1c:	0097d693          	srl	a3,a5,0x9
   11d20:	4611                	li	a2,4
   11d22:	0ad66d63          	bltu	a2,a3,11ddc <_free_r+0x18e>
   11d26:	0067d693          	srl	a3,a5,0x6
   11d2a:	03968593          	add	a1,a3,57
   11d2e:	03868613          	add	a2,a3,56
   11d32:	058e                	sll	a1,a1,0x3
   11d34:	95aa                	add	a1,a1,a0
   11d36:	4194                	lw	a3,0(a1)
   11d38:	15e1                	add	a1,a1,-8
   11d3a:	00d59663          	bne	a1,a3,11d46 <_free_r+0xf8>
   11d3e:	a0c5                	j	11e1e <_free_r+0x1d0>
   11d40:	4694                	lw	a3,8(a3)
   11d42:	00d58663          	beq	a1,a3,11d4e <_free_r+0x100>
   11d46:	42d0                	lw	a2,4(a3)
   11d48:	9a71                	and	a2,a2,-4
   11d4a:	fec7ebe3          	bltu	a5,a2,11d40 <_free_r+0xf2>
   11d4e:	46cc                	lw	a1,12(a3)
   11d50:	c74c                	sw	a1,12(a4)
   11d52:	c714                	sw	a3,8(a4)
   11d54:	4422                	lw	s0,8(sp)
   11d56:	40b2                	lw	ra,12(sp)
   11d58:	c598                	sw	a4,8(a1)
   11d5a:	8526                	mv	a0,s1
   11d5c:	4492                	lw	s1,4(sp)
   11d5e:	c6d8                	sw	a4,12(a3)
   11d60:	0141                	add	sp,sp,16
   11d62:	a5e9                	j	1242c <__malloc_unlock>
   11d64:	8082                	ret
   11d66:	97b6                	add	a5,a5,a3
   11d68:	0000c897          	auipc	a7,0xc
   11d6c:	41088893          	add	a7,a7,1040 # 1e178 <__malloc_av_+0x8>
   11d70:	4614                	lw	a3,8(a2)
   11d72:	09168a63          	beq	a3,a7,11e06 <_free_r+0x1b8>
   11d76:	00c62803          	lw	a6,12(a2) # 7f000c <__BSS_END__+0x7d1288>
   11d7a:	0017e593          	or	a1,a5,1
   11d7e:	00f70633          	add	a2,a4,a5
   11d82:	0106a623          	sw	a6,12(a3)
   11d86:	00d82423          	sw	a3,8(a6)
   11d8a:	c34c                	sw	a1,4(a4)
   11d8c:	c21c                	sw	a5,0(a2)
   11d8e:	bf2d                	j	11cc8 <_free_r+0x7a>
   11d90:	edf1                	bnez	a1,11e6c <_free_r+0x21e>
   11d92:	460c                	lw	a1,8(a2)
   11d94:	4650                	lw	a2,12(a2)
   11d96:	96be                	add	a3,a3,a5
   11d98:	0016e793          	or	a5,a3,1
   11d9c:	c5d0                	sw	a2,12(a1)
   11d9e:	c60c                	sw	a1,8(a2)
   11da0:	c35c                	sw	a5,4(a4)
   11da2:	9736                	add	a4,a4,a3
   11da4:	c314                	sw	a3,0(a4)
   11da6:	bf81                	j	11cf6 <_free_r+0xa8>
   11da8:	8985                	and	a1,a1,1
   11daa:	96be                	add	a3,a3,a5
   11dac:	e989                	bnez	a1,11dbe <_free_r+0x170>
   11dae:	ff842583          	lw	a1,-8(s0)
   11db2:	8f0d                	sub	a4,a4,a1
   11db4:	475c                	lw	a5,12(a4)
   11db6:	4710                	lw	a2,8(a4)
   11db8:	96ae                	add	a3,a3,a1
   11dba:	c65c                	sw	a5,12(a2)
   11dbc:	c790                	sw	a2,8(a5)
   11dbe:	0016e793          	or	a5,a3,1
   11dc2:	c35c                	sw	a5,4(a4)
   11dc4:	c518                	sw	a4,8(a0)
   11dc6:	f741a783          	lw	a5,-140(gp) # 1e784 <__malloc_trim_threshold>
   11dca:	f2f6e6e3          	bltu	a3,a5,11cf6 <_free_r+0xa8>
   11dce:	fb41a583          	lw	a1,-76(gp) # 1e7c4 <__malloc_top_pad>
   11dd2:	8526                	mv	a0,s1
   11dd4:	3375                	jal	11b80 <_malloc_trim_r>
   11dd6:	b705                	j	11cf6 <_free_r+0xa8>
   11dd8:	97b6                	add	a5,a5,a3
   11dda:	bf59                	j	11d70 <_free_r+0x122>
   11ddc:	4651                	li	a2,20
   11dde:	00d67e63          	bgeu	a2,a3,11dfa <_free_r+0x1ac>
   11de2:	05400613          	li	a2,84
   11de6:	04d66663          	bltu	a2,a3,11e32 <_free_r+0x1e4>
   11dea:	00c7d693          	srl	a3,a5,0xc
   11dee:	06f68593          	add	a1,a3,111
   11df2:	06e68613          	add	a2,a3,110
   11df6:	058e                	sll	a1,a1,0x3
   11df8:	bf35                	j	11d34 <_free_r+0xe6>
   11dfa:	05c68593          	add	a1,a3,92
   11dfe:	05b68613          	add	a2,a3,91
   11e02:	058e                	sll	a1,a1,0x3
   11e04:	bf05                	j	11d34 <_free_r+0xe6>
   11e06:	c958                	sw	a4,20(a0)
   11e08:	c918                	sw	a4,16(a0)
   11e0a:	0017e693          	or	a3,a5,1
   11e0e:	01172623          	sw	a7,12(a4)
   11e12:	01172423          	sw	a7,8(a4)
   11e16:	c354                	sw	a3,4(a4)
   11e18:	973e                	add	a4,a4,a5
   11e1a:	c31c                	sw	a5,0(a4)
   11e1c:	bde9                	j	11cf6 <_free_r+0xa8>
   11e1e:	00452803          	lw	a6,4(a0)
   11e22:	8609                	sra	a2,a2,0x2
   11e24:	4785                	li	a5,1
   11e26:	00c797b3          	sll	a5,a5,a2
   11e2a:	0107e7b3          	or	a5,a5,a6
   11e2e:	c15c                	sw	a5,4(a0)
   11e30:	b705                	j	11d50 <_free_r+0x102>
   11e32:	15400613          	li	a2,340
   11e36:	00d66a63          	bltu	a2,a3,11e4a <_free_r+0x1fc>
   11e3a:	00f7d693          	srl	a3,a5,0xf
   11e3e:	07868593          	add	a1,a3,120
   11e42:	07768613          	add	a2,a3,119
   11e46:	058e                	sll	a1,a1,0x3
   11e48:	b5f5                	j	11d34 <_free_r+0xe6>
   11e4a:	55400613          	li	a2,1364
   11e4e:	00d66a63          	bltu	a2,a3,11e62 <_free_r+0x214>
   11e52:	0127d693          	srl	a3,a5,0x12
   11e56:	07d68593          	add	a1,a3,125
   11e5a:	07c68613          	add	a2,a3,124
   11e5e:	058e                	sll	a1,a1,0x3
   11e60:	bdd1                	j	11d34 <_free_r+0xe6>
   11e62:	3f800593          	li	a1,1016
   11e66:	07e00613          	li	a2,126
   11e6a:	b5e9                	j	11d34 <_free_r+0xe6>
   11e6c:	0017e693          	or	a3,a5,1
   11e70:	c354                	sw	a3,4(a4)
   11e72:	c21c                	sw	a5,0(a2)
   11e74:	b549                	j	11cf6 <_free_r+0xa8>

00011e76 <_malloc_r>:
   11e76:	7179                	add	sp,sp,-48
   11e78:	d04a                	sw	s2,32(sp)
   11e7a:	d606                	sw	ra,44(sp)
   11e7c:	d422                	sw	s0,40(sp)
   11e7e:	d226                	sw	s1,36(sp)
   11e80:	ce4e                	sw	s3,28(sp)
   11e82:	00b58793          	add	a5,a1,11
   11e86:	4759                	li	a4,22
   11e88:	892a                	mv	s2,a0
   11e8a:	04f76963          	bltu	a4,a5,11edc <_malloc_r+0x66>
   11e8e:	47c1                	li	a5,16
   11e90:	16b7eb63          	bltu	a5,a1,12006 <_malloc_r+0x190>
   11e94:	2b41                	jal	12424 <__malloc_lock>
   11e96:	47e1                	li	a5,24
   11e98:	4589                	li	a1,2
   11e9a:	44c1                	li	s1,16
   11e9c:	0000c997          	auipc	s3,0xc
   11ea0:	2d498993          	add	s3,s3,724 # 1e170 <__malloc_av_>
   11ea4:	97ce                	add	a5,a5,s3
   11ea6:	43c0                	lw	s0,4(a5)
   11ea8:	ff878713          	add	a4,a5,-8
   11eac:	26e40163          	beq	s0,a4,1210e <_malloc_r+0x298>
   11eb0:	405c                	lw	a5,4(s0)
   11eb2:	4454                	lw	a3,12(s0)
   11eb4:	4410                	lw	a2,8(s0)
   11eb6:	9bf1                	and	a5,a5,-4
   11eb8:	97a2                	add	a5,a5,s0
   11eba:	43d8                	lw	a4,4(a5)
   11ebc:	c654                	sw	a3,12(a2)
   11ebe:	c690                	sw	a2,8(a3)
   11ec0:	00176713          	or	a4,a4,1
   11ec4:	854a                	mv	a0,s2
   11ec6:	c3d8                	sw	a4,4(a5)
   11ec8:	2395                	jal	1242c <__malloc_unlock>
   11eca:	00840513          	add	a0,s0,8
   11ece:	50b2                	lw	ra,44(sp)
   11ed0:	5422                	lw	s0,40(sp)
   11ed2:	5492                	lw	s1,36(sp)
   11ed4:	5902                	lw	s2,32(sp)
   11ed6:	49f2                	lw	s3,28(sp)
   11ed8:	6145                	add	sp,sp,48
   11eda:	8082                	ret
   11edc:	ff87f493          	and	s1,a5,-8
   11ee0:	1207c363          	bltz	a5,12006 <_malloc_r+0x190>
   11ee4:	12b4e163          	bltu	s1,a1,12006 <_malloc_r+0x190>
   11ee8:	2b35                	jal	12424 <__malloc_lock>
   11eea:	1f700793          	li	a5,503
   11eee:	2c97ff63          	bgeu	a5,s1,121cc <_malloc_r+0x356>
   11ef2:	0094d793          	srl	a5,s1,0x9
   11ef6:	10078d63          	beqz	a5,12010 <_malloc_r+0x19a>
   11efa:	4711                	li	a4,4
   11efc:	24f76e63          	bltu	a4,a5,12158 <_malloc_r+0x2e2>
   11f00:	0064d793          	srl	a5,s1,0x6
   11f04:	03978593          	add	a1,a5,57
   11f08:	03878813          	add	a6,a5,56
   11f0c:	00359613          	sll	a2,a1,0x3
   11f10:	0000c997          	auipc	s3,0xc
   11f14:	26098993          	add	s3,s3,608 # 1e170 <__malloc_av_>
   11f18:	964e                	add	a2,a2,s3
   11f1a:	4240                	lw	s0,4(a2)
   11f1c:	1661                	add	a2,a2,-8
   11f1e:	02860163          	beq	a2,s0,11f40 <_malloc_r+0xca>
   11f22:	453d                	li	a0,15
   11f24:	a039                	j	11f32 <_malloc_r+0xbc>
   11f26:	4454                	lw	a3,12(s0)
   11f28:	1e075163          	bgez	a4,1210a <_malloc_r+0x294>
   11f2c:	00d60a63          	beq	a2,a3,11f40 <_malloc_r+0xca>
   11f30:	8436                	mv	s0,a3
   11f32:	405c                	lw	a5,4(s0)
   11f34:	9bf1                	and	a5,a5,-4
   11f36:	40978733          	sub	a4,a5,s1
   11f3a:	fee556e3          	bge	a0,a4,11f26 <_malloc_r+0xb0>
   11f3e:	85c2                	mv	a1,a6
   11f40:	0109a403          	lw	s0,16(s3)
   11f44:	0000c897          	auipc	a7,0xc
   11f48:	23488893          	add	a7,a7,564 # 1e178 <__malloc_av_+0x8>
   11f4c:	1b140c63          	beq	s0,a7,12104 <_malloc_r+0x28e>
   11f50:	405c                	lw	a5,4(s0)
   11f52:	46bd                	li	a3,15
   11f54:	9bf1                	and	a5,a5,-4
   11f56:	40978733          	sub	a4,a5,s1
   11f5a:	26e6ce63          	blt	a3,a4,121d6 <_malloc_r+0x360>
   11f5e:	0119aa23          	sw	a7,20(s3)
   11f62:	0119a823          	sw	a7,16(s3)
   11f66:	24075963          	bgez	a4,121b8 <_malloc_r+0x342>
   11f6a:	1ff00713          	li	a4,511
   11f6e:	0049a503          	lw	a0,4(s3)
   11f72:	1af76363          	bltu	a4,a5,12118 <_malloc_r+0x2a2>
   11f76:	ff87f713          	and	a4,a5,-8
   11f7a:	0721                	add	a4,a4,8
   11f7c:	974e                	add	a4,a4,s3
   11f7e:	4314                	lw	a3,0(a4)
   11f80:	0057d613          	srl	a2,a5,0x5
   11f84:	4785                	li	a5,1
   11f86:	00c797b3          	sll	a5,a5,a2
   11f8a:	8d5d                	or	a0,a0,a5
   11f8c:	ff870793          	add	a5,a4,-8
   11f90:	c45c                	sw	a5,12(s0)
   11f92:	c414                	sw	a3,8(s0)
   11f94:	00a9a223          	sw	a0,4(s3)
   11f98:	c300                	sw	s0,0(a4)
   11f9a:	c6c0                	sw	s0,12(a3)
   11f9c:	4025d793          	sra	a5,a1,0x2
   11fa0:	4605                	li	a2,1
   11fa2:	00f61633          	sll	a2,a2,a5
   11fa6:	06c56c63          	bltu	a0,a2,1201e <_malloc_r+0x1a8>
   11faa:	00a677b3          	and	a5,a2,a0
   11fae:	ef81                	bnez	a5,11fc6 <_malloc_r+0x150>
   11fb0:	0606                	sll	a2,a2,0x1
   11fb2:	99f1                	and	a1,a1,-4
   11fb4:	00a677b3          	and	a5,a2,a0
   11fb8:	0591                	add	a1,a1,4
   11fba:	e791                	bnez	a5,11fc6 <_malloc_r+0x150>
   11fbc:	0606                	sll	a2,a2,0x1
   11fbe:	00a677b3          	and	a5,a2,a0
   11fc2:	0591                	add	a1,a1,4
   11fc4:	dfe5                	beqz	a5,11fbc <_malloc_r+0x146>
   11fc6:	483d                	li	a6,15
   11fc8:	00359313          	sll	t1,a1,0x3
   11fcc:	934e                	add	t1,t1,s3
   11fce:	851a                	mv	a0,t1
   11fd0:	455c                	lw	a5,12(a0)
   11fd2:	8e2e                	mv	t3,a1
   11fd4:	1af50263          	beq	a0,a5,12178 <_malloc_r+0x302>
   11fd8:	43d8                	lw	a4,4(a5)
   11fda:	843e                	mv	s0,a5
   11fdc:	47dc                	lw	a5,12(a5)
   11fde:	9b71                	and	a4,a4,-4
   11fe0:	409706b3          	sub	a3,a4,s1
   11fe4:	1ad84163          	blt	a6,a3,12186 <_malloc_r+0x310>
   11fe8:	fe06c6e3          	bltz	a3,11fd4 <_malloc_r+0x15e>
   11fec:	9722                	add	a4,a4,s0
   11fee:	4354                	lw	a3,4(a4)
   11ff0:	4410                	lw	a2,8(s0)
   11ff2:	854a                	mv	a0,s2
   11ff4:	0016e693          	or	a3,a3,1
   11ff8:	c354                	sw	a3,4(a4)
   11ffa:	c65c                	sw	a5,12(a2)
   11ffc:	c790                	sw	a2,8(a5)
   11ffe:	213d                	jal	1242c <__malloc_unlock>
   12000:	00840513          	add	a0,s0,8
   12004:	b5e9                	j	11ece <_malloc_r+0x58>
   12006:	47b1                	li	a5,12
   12008:	00f92023          	sw	a5,0(s2)
   1200c:	4501                	li	a0,0
   1200e:	b5c1                	j	11ece <_malloc_r+0x58>
   12010:	20000613          	li	a2,512
   12014:	04000593          	li	a1,64
   12018:	03f00813          	li	a6,63
   1201c:	bdd5                	j	11f10 <_malloc_r+0x9a>
   1201e:	0089a403          	lw	s0,8(s3)
   12022:	c85a                	sw	s6,16(sp)
   12024:	405c                	lw	a5,4(s0)
   12026:	ffc7fb13          	and	s6,a5,-4
   1202a:	009b6763          	bltu	s6,s1,12038 <_malloc_r+0x1c2>
   1202e:	409b0733          	sub	a4,s6,s1
   12032:	47bd                	li	a5,15
   12034:	0ae7c363          	blt	a5,a4,120da <_malloc_r+0x264>
   12038:	c266                	sw	s9,4(sp)
   1203a:	f7018c93          	add	s9,gp,-144 # 1e780 <__malloc_sbrk_base>
   1203e:	000ca703          	lw	a4,0(s9)
   12042:	cc52                	sw	s4,24(sp)
   12044:	ca56                	sw	s5,20(sp)
   12046:	c65e                	sw	s7,12(sp)
   12048:	fb41aa83          	lw	s5,-76(gp) # 1e7c4 <__malloc_top_pad>
   1204c:	57fd                	li	a5,-1
   1204e:	01640a33          	add	s4,s0,s6
   12052:	9aa6                	add	s5,s5,s1
   12054:	2cf70763          	beq	a4,a5,12322 <_malloc_r+0x4ac>
   12058:	6785                	lui	a5,0x1
   1205a:	07bd                	add	a5,a5,15 # 100f <exit-0xf085>
   1205c:	9abe                	add	s5,s5,a5
   1205e:	77fd                	lui	a5,0xfffff
   12060:	00fafab3          	and	s5,s5,a5
   12064:	85d6                	mv	a1,s5
   12066:	854a                	mv	a0,s2
   12068:	371040ef          	jal	16bd8 <_sbrk_r>
   1206c:	57fd                	li	a5,-1
   1206e:	8baa                	mv	s7,a0
   12070:	32f50963          	beq	a0,a5,123a2 <_malloc_r+0x52c>
   12074:	c462                	sw	s8,8(sp)
   12076:	19456e63          	bltu	a0,s4,12212 <_malloc_r+0x39c>
   1207a:	2a418c13          	add	s8,gp,676 # 1eab4 <__malloc_current_mallinfo>
   1207e:	000c2583          	lw	a1,0(s8) # ffff0000 <__BSS_END__+0xfffd127c>
   12082:	95d6                	add	a1,a1,s5
   12084:	00bc2023          	sw	a1,0(s8)
   12088:	872e                	mv	a4,a1
   1208a:	1eaa1863          	bne	s4,a0,1227a <_malloc_r+0x404>
   1208e:	01451793          	sll	a5,a0,0x14
   12092:	1e079463          	bnez	a5,1227a <_malloc_r+0x404>
   12096:	0089ab83          	lw	s7,8(s3)
   1209a:	015b07b3          	add	a5,s6,s5
   1209e:	0017e793          	or	a5,a5,1
   120a2:	00fba223          	sw	a5,4(s7)
   120a6:	fb018713          	add	a4,gp,-80 # 1e7c0 <__malloc_max_sbrked_mem>
   120aa:	4314                	lw	a3,0(a4)
   120ac:	00b6f363          	bgeu	a3,a1,120b2 <_malloc_r+0x23c>
   120b0:	c30c                	sw	a1,0(a4)
   120b2:	fac18713          	add	a4,gp,-84 # 1e7bc <__malloc_max_total_mem>
   120b6:	4314                	lw	a3,0(a4)
   120b8:	00b6f363          	bgeu	a3,a1,120be <_malloc_r+0x248>
   120bc:	c30c                	sw	a1,0(a4)
   120be:	4c22                	lw	s8,8(sp)
   120c0:	845e                	mv	s0,s7
   120c2:	9bf1                	and	a5,a5,-4
   120c4:	40978733          	sub	a4,a5,s1
   120c8:	2897eb63          	bltu	a5,s1,1235e <_malloc_r+0x4e8>
   120cc:	47bd                	li	a5,15
   120ce:	28e7d863          	bge	a5,a4,1235e <_malloc_r+0x4e8>
   120d2:	4a62                	lw	s4,24(sp)
   120d4:	4ad2                	lw	s5,20(sp)
   120d6:	4bb2                	lw	s7,12(sp)
   120d8:	4c92                	lw	s9,4(sp)
   120da:	0014e793          	or	a5,s1,1
   120de:	c05c                	sw	a5,4(s0)
   120e0:	94a2                	add	s1,s1,s0
   120e2:	0099a423          	sw	s1,8(s3)
   120e6:	00176713          	or	a4,a4,1
   120ea:	854a                	mv	a0,s2
   120ec:	c0d8                	sw	a4,4(s1)
   120ee:	2e3d                	jal	1242c <__malloc_unlock>
   120f0:	50b2                	lw	ra,44(sp)
   120f2:	00840513          	add	a0,s0,8
   120f6:	5422                	lw	s0,40(sp)
   120f8:	4b42                	lw	s6,16(sp)
   120fa:	5492                	lw	s1,36(sp)
   120fc:	5902                	lw	s2,32(sp)
   120fe:	49f2                	lw	s3,28(sp)
   12100:	6145                	add	sp,sp,48
   12102:	8082                	ret
   12104:	0049a503          	lw	a0,4(s3)
   12108:	bd51                	j	11f9c <_malloc_r+0x126>
   1210a:	4410                	lw	a2,8(s0)
   1210c:	b375                	j	11eb8 <_malloc_r+0x42>
   1210e:	47c0                	lw	s0,12(a5)
   12110:	0589                	add	a1,a1,2
   12112:	e28787e3          	beq	a5,s0,11f40 <_malloc_r+0xca>
   12116:	bb69                	j	11eb0 <_malloc_r+0x3a>
   12118:	0097d713          	srl	a4,a5,0x9
   1211c:	4691                	li	a3,4
   1211e:	0ee6f263          	bgeu	a3,a4,12202 <_malloc_r+0x38c>
   12122:	46d1                	li	a3,20
   12124:	24e6e663          	bltu	a3,a4,12370 <_malloc_r+0x4fa>
   12128:	05c70613          	add	a2,a4,92
   1212c:	05b70693          	add	a3,a4,91
   12130:	060e                	sll	a2,a2,0x3
   12132:	964e                	add	a2,a2,s3
   12134:	4218                	lw	a4,0(a2)
   12136:	1661                	add	a2,a2,-8
   12138:	00e61663          	bne	a2,a4,12144 <_malloc_r+0x2ce>
   1213c:	a2ed                	j	12326 <_malloc_r+0x4b0>
   1213e:	4718                	lw	a4,8(a4)
   12140:	00e60663          	beq	a2,a4,1214c <_malloc_r+0x2d6>
   12144:	4354                	lw	a3,4(a4)
   12146:	9af1                	and	a3,a3,-4
   12148:	fed7ebe3          	bltu	a5,a3,1213e <_malloc_r+0x2c8>
   1214c:	4750                	lw	a2,12(a4)
   1214e:	c450                	sw	a2,12(s0)
   12150:	c418                	sw	a4,8(s0)
   12152:	c600                	sw	s0,8(a2)
   12154:	c740                	sw	s0,12(a4)
   12156:	b599                	j	11f9c <_malloc_r+0x126>
   12158:	4751                	li	a4,20
   1215a:	0cf77363          	bgeu	a4,a5,12220 <_malloc_r+0x3aa>
   1215e:	05400713          	li	a4,84
   12162:	22f76363          	bltu	a4,a5,12388 <_malloc_r+0x512>
   12166:	00c4d793          	srl	a5,s1,0xc
   1216a:	06f78593          	add	a1,a5,111 # fffff06f <__BSS_END__+0xfffe02eb>
   1216e:	06e78813          	add	a6,a5,110
   12172:	00359613          	sll	a2,a1,0x3
   12176:	bb69                	j	11f10 <_malloc_r+0x9a>
   12178:	0e05                	add	t3,t3,1
   1217a:	003e7793          	and	a5,t3,3
   1217e:	0521                	add	a0,a0,8
   12180:	cfc5                	beqz	a5,12238 <_malloc_r+0x3c2>
   12182:	455c                	lw	a5,12(a0)
   12184:	bd81                	j	11fd4 <_malloc_r+0x15e>
   12186:	4410                	lw	a2,8(s0)
   12188:	0014e593          	or	a1,s1,1
   1218c:	c04c                	sw	a1,4(s0)
   1218e:	c65c                	sw	a5,12(a2)
   12190:	c790                	sw	a2,8(a5)
   12192:	94a2                	add	s1,s1,s0
   12194:	0099aa23          	sw	s1,20(s3)
   12198:	0099a823          	sw	s1,16(s3)
   1219c:	0016e793          	or	a5,a3,1
   121a0:	0114a623          	sw	a7,12(s1)
   121a4:	0114a423          	sw	a7,8(s1)
   121a8:	c0dc                	sw	a5,4(s1)
   121aa:	9722                	add	a4,a4,s0
   121ac:	854a                	mv	a0,s2
   121ae:	c314                	sw	a3,0(a4)
   121b0:	2cb5                	jal	1242c <__malloc_unlock>
   121b2:	00840513          	add	a0,s0,8
   121b6:	bb21                	j	11ece <_malloc_r+0x58>
   121b8:	97a2                	add	a5,a5,s0
   121ba:	43d8                	lw	a4,4(a5)
   121bc:	854a                	mv	a0,s2
   121be:	00176713          	or	a4,a4,1
   121c2:	c3d8                	sw	a4,4(a5)
   121c4:	24a5                	jal	1242c <__malloc_unlock>
   121c6:	00840513          	add	a0,s0,8
   121ca:	b311                	j	11ece <_malloc_r+0x58>
   121cc:	0034d593          	srl	a1,s1,0x3
   121d0:	00848793          	add	a5,s1,8
   121d4:	b1e1                	j	11e9c <_malloc_r+0x26>
   121d6:	0014e693          	or	a3,s1,1
   121da:	c054                	sw	a3,4(s0)
   121dc:	94a2                	add	s1,s1,s0
   121de:	0099aa23          	sw	s1,20(s3)
   121e2:	0099a823          	sw	s1,16(s3)
   121e6:	00176693          	or	a3,a4,1
   121ea:	0114a623          	sw	a7,12(s1)
   121ee:	0114a423          	sw	a7,8(s1)
   121f2:	c0d4                	sw	a3,4(s1)
   121f4:	97a2                	add	a5,a5,s0
   121f6:	854a                	mv	a0,s2
   121f8:	c398                	sw	a4,0(a5)
   121fa:	2c0d                	jal	1242c <__malloc_unlock>
   121fc:	00840513          	add	a0,s0,8
   12200:	b1f9                	j	11ece <_malloc_r+0x58>
   12202:	0067d713          	srl	a4,a5,0x6
   12206:	03970613          	add	a2,a4,57
   1220a:	03870693          	add	a3,a4,56
   1220e:	060e                	sll	a2,a2,0x3
   12210:	b70d                	j	12132 <_malloc_r+0x2bc>
   12212:	05340d63          	beq	s0,s3,1226c <_malloc_r+0x3f6>
   12216:	0089a403          	lw	s0,8(s3)
   1221a:	4c22                	lw	s8,8(sp)
   1221c:	405c                	lw	a5,4(s0)
   1221e:	b555                	j	120c2 <_malloc_r+0x24c>
   12220:	05c78593          	add	a1,a5,92
   12224:	05b78813          	add	a6,a5,91
   12228:	00359613          	sll	a2,a1,0x3
   1222c:	b1d5                	j	11f10 <_malloc_r+0x9a>
   1222e:	00832783          	lw	a5,8(t1)
   12232:	15fd                	add	a1,a1,-1
   12234:	1e679563          	bne	a5,t1,1241e <_malloc_r+0x5a8>
   12238:	0035f793          	and	a5,a1,3
   1223c:	1361                	add	t1,t1,-8
   1223e:	fbe5                	bnez	a5,1222e <_malloc_r+0x3b8>
   12240:	0049a703          	lw	a4,4(s3)
   12244:	fff64793          	not	a5,a2
   12248:	8ff9                	and	a5,a5,a4
   1224a:	00f9a223          	sw	a5,4(s3)
   1224e:	0606                	sll	a2,a2,0x1
   12250:	dcc7e7e3          	bltu	a5,a2,1201e <_malloc_r+0x1a8>
   12254:	dc0605e3          	beqz	a2,1201e <_malloc_r+0x1a8>
   12258:	00f67733          	and	a4,a2,a5
   1225c:	e711                	bnez	a4,12268 <_malloc_r+0x3f2>
   1225e:	0606                	sll	a2,a2,0x1
   12260:	00f67733          	and	a4,a2,a5
   12264:	0e11                	add	t3,t3,4
   12266:	df65                	beqz	a4,1225e <_malloc_r+0x3e8>
   12268:	85f2                	mv	a1,t3
   1226a:	bbb9                	j	11fc8 <_malloc_r+0x152>
   1226c:	2a418c13          	add	s8,gp,676 # 1eab4 <__malloc_current_mallinfo>
   12270:	000c2703          	lw	a4,0(s8)
   12274:	9756                	add	a4,a4,s5
   12276:	00ec2023          	sw	a4,0(s8)
   1227a:	000ca683          	lw	a3,0(s9)
   1227e:	57fd                	li	a5,-1
   12280:	12f68563          	beq	a3,a5,123aa <_malloc_r+0x534>
   12284:	414b87b3          	sub	a5,s7,s4
   12288:	97ba                	add	a5,a5,a4
   1228a:	00fc2023          	sw	a5,0(s8)
   1228e:	007bfc93          	and	s9,s7,7
   12292:	0a0c8263          	beqz	s9,12336 <_malloc_r+0x4c0>
   12296:	419b8bb3          	sub	s7,s7,s9
   1229a:	6785                	lui	a5,0x1
   1229c:	07a1                	add	a5,a5,8 # 1008 <exit-0xf08c>
   1229e:	0ba1                	add	s7,s7,8
   122a0:	419785b3          	sub	a1,a5,s9
   122a4:	9ade                	add	s5,s5,s7
   122a6:	415585b3          	sub	a1,a1,s5
   122aa:	05d2                	sll	a1,a1,0x14
   122ac:	0145da13          	srl	s4,a1,0x14
   122b0:	85d2                	mv	a1,s4
   122b2:	854a                	mv	a0,s2
   122b4:	125040ef          	jal	16bd8 <_sbrk_r>
   122b8:	57fd                	li	a5,-1
   122ba:	12f50463          	beq	a0,a5,123e2 <_malloc_r+0x56c>
   122be:	41750533          	sub	a0,a0,s7
   122c2:	01450ab3          	add	s5,a0,s4
   122c6:	000c2703          	lw	a4,0(s8)
   122ca:	0179a423          	sw	s7,8(s3)
   122ce:	001ae793          	or	a5,s5,1
   122d2:	00ea05b3          	add	a1,s4,a4
   122d6:	00bc2023          	sw	a1,0(s8)
   122da:	00fba223          	sw	a5,4(s7)
   122de:	dd3404e3          	beq	s0,s3,120a6 <_malloc_r+0x230>
   122e2:	46bd                	li	a3,15
   122e4:	0766f963          	bgeu	a3,s6,12356 <_malloc_r+0x4e0>
   122e8:	4058                	lw	a4,4(s0)
   122ea:	ff4b0793          	add	a5,s6,-12 # 7f7ffff4 <__BSS_END__+0x7f7e1270>
   122ee:	9be1                	and	a5,a5,-8
   122f0:	8b05                	and	a4,a4,1
   122f2:	8f5d                	or	a4,a4,a5
   122f4:	c058                	sw	a4,4(s0)
   122f6:	4615                	li	a2,5
   122f8:	00f40733          	add	a4,s0,a5
   122fc:	c350                	sw	a2,4(a4)
   122fe:	c710                	sw	a2,8(a4)
   12300:	00f6e563          	bltu	a3,a5,1230a <_malloc_r+0x494>
   12304:	004ba783          	lw	a5,4(s7)
   12308:	bb79                	j	120a6 <_malloc_r+0x230>
   1230a:	00840593          	add	a1,s0,8
   1230e:	854a                	mv	a0,s2
   12310:	93fff0ef          	jal	11c4e <_free_r>
   12314:	0089ab83          	lw	s7,8(s3)
   12318:	000c2583          	lw	a1,0(s8)
   1231c:	004ba783          	lw	a5,4(s7)
   12320:	b359                	j	120a6 <_malloc_r+0x230>
   12322:	0ac1                	add	s5,s5,16
   12324:	b381                	j	12064 <_malloc_r+0x1ee>
   12326:	8689                	sra	a3,a3,0x2
   12328:	4785                	li	a5,1
   1232a:	00d797b3          	sll	a5,a5,a3
   1232e:	8d5d                	or	a0,a0,a5
   12330:	00a9a223          	sw	a0,4(s3)
   12334:	bd29                	j	1214e <_malloc_r+0x2d8>
   12336:	015b85b3          	add	a1,s7,s5
   1233a:	40b005b3          	neg	a1,a1
   1233e:	05d2                	sll	a1,a1,0x14
   12340:	0145da13          	srl	s4,a1,0x14
   12344:	85d2                	mv	a1,s4
   12346:	854a                	mv	a0,s2
   12348:	091040ef          	jal	16bd8 <_sbrk_r>
   1234c:	57fd                	li	a5,-1
   1234e:	f6f518e3          	bne	a0,a5,122be <_malloc_r+0x448>
   12352:	4a01                	li	s4,0
   12354:	bf8d                	j	122c6 <_malloc_r+0x450>
   12356:	4c22                	lw	s8,8(sp)
   12358:	4785                	li	a5,1
   1235a:	00fba223          	sw	a5,4(s7)
   1235e:	854a                	mv	a0,s2
   12360:	20f1                	jal	1242c <__malloc_unlock>
   12362:	4501                	li	a0,0
   12364:	4a62                	lw	s4,24(sp)
   12366:	4ad2                	lw	s5,20(sp)
   12368:	4b42                	lw	s6,16(sp)
   1236a:	4bb2                	lw	s7,12(sp)
   1236c:	4c92                	lw	s9,4(sp)
   1236e:	b685                	j	11ece <_malloc_r+0x58>
   12370:	05400693          	li	a3,84
   12374:	02e6ee63          	bltu	a3,a4,123b0 <_malloc_r+0x53a>
   12378:	00c7d713          	srl	a4,a5,0xc
   1237c:	06f70613          	add	a2,a4,111
   12380:	06e70693          	add	a3,a4,110
   12384:	060e                	sll	a2,a2,0x3
   12386:	b375                	j	12132 <_malloc_r+0x2bc>
   12388:	15400713          	li	a4,340
   1238c:	02f76e63          	bltu	a4,a5,123c8 <_malloc_r+0x552>
   12390:	00f4d793          	srl	a5,s1,0xf
   12394:	07878593          	add	a1,a5,120
   12398:	07778813          	add	a6,a5,119
   1239c:	00359613          	sll	a2,a1,0x3
   123a0:	be85                	j	11f10 <_malloc_r+0x9a>
   123a2:	0089a403          	lw	s0,8(s3)
   123a6:	405c                	lw	a5,4(s0)
   123a8:	bb29                	j	120c2 <_malloc_r+0x24c>
   123aa:	017ca023          	sw	s7,0(s9)
   123ae:	b5c5                	j	1228e <_malloc_r+0x418>
   123b0:	15400693          	li	a3,340
   123b4:	02e6ed63          	bltu	a3,a4,123ee <_malloc_r+0x578>
   123b8:	00f7d713          	srl	a4,a5,0xf
   123bc:	07870613          	add	a2,a4,120
   123c0:	07770693          	add	a3,a4,119
   123c4:	060e                	sll	a2,a2,0x3
   123c6:	b3b5                	j	12132 <_malloc_r+0x2bc>
   123c8:	55400713          	li	a4,1364
   123cc:	02f76d63          	bltu	a4,a5,12406 <_malloc_r+0x590>
   123d0:	0124d793          	srl	a5,s1,0x12
   123d4:	07d78593          	add	a1,a5,125
   123d8:	07c78813          	add	a6,a5,124
   123dc:	00359613          	sll	a2,a1,0x3
   123e0:	be05                	j	11f10 <_malloc_r+0x9a>
   123e2:	1ce1                	add	s9,s9,-8
   123e4:	9ae6                	add	s5,s5,s9
   123e6:	417a8ab3          	sub	s5,s5,s7
   123ea:	4a01                	li	s4,0
   123ec:	bde9                	j	122c6 <_malloc_r+0x450>
   123ee:	55400693          	li	a3,1364
   123f2:	02e6e163          	bltu	a3,a4,12414 <_malloc_r+0x59e>
   123f6:	0127d713          	srl	a4,a5,0x12
   123fa:	07d70613          	add	a2,a4,125
   123fe:	07c70693          	add	a3,a4,124
   12402:	060e                	sll	a2,a2,0x3
   12404:	b33d                	j	12132 <_malloc_r+0x2bc>
   12406:	3f800613          	li	a2,1016
   1240a:	07f00593          	li	a1,127
   1240e:	07e00813          	li	a6,126
   12412:	bcfd                	j	11f10 <_malloc_r+0x9a>
   12414:	3f800613          	li	a2,1016
   12418:	07e00693          	li	a3,126
   1241c:	bb19                	j	12132 <_malloc_r+0x2bc>
   1241e:	0049a783          	lw	a5,4(s3)
   12422:	b535                	j	1224e <_malloc_r+0x3d8>

00012424 <__malloc_lock>:
   12424:	f9818513          	add	a0,gp,-104 # 1e7a8 <__lock___malloc_recursive_mutex>
   12428:	d2cff06f          	j	11954 <__retarget_lock_acquire_recursive>

0001242c <__malloc_unlock>:
   1242c:	f9818513          	add	a0,gp,-104 # 1e7a8 <__lock___malloc_recursive_mutex>
   12430:	d30ff06f          	j	11960 <__retarget_lock_release_recursive>

00012434 <_vfprintf_r>:
   12434:	7165                	add	sp,sp,-400
   12436:	18112623          	sw	ra,396(sp)
   1243a:	c42e                	sw	a1,8(sp)
   1243c:	c632                	sw	a2,12(sp)
   1243e:	ca36                	sw	a3,20(sp)
   12440:	17312e23          	sw	s3,380(sp)
   12444:	18812423          	sw	s0,392(sp)
   12448:	89aa                	mv	s3,a0
   1244a:	782040ef          	jal	16bcc <_localeconv_r>
   1244e:	411c                	lw	a5,0(a0)
   12450:	853e                	mv	a0,a5
   12452:	da3e                	sw	a5,52(sp)
   12454:	1c7040ef          	jal	16e1a <strlen>
   12458:	872a                	mv	a4,a0
   1245a:	4621                	li	a2,8
   1245c:	4581                	li	a1,0
   1245e:	0908                	add	a0,sp,144
   12460:	d83a                	sw	a4,48(sp)
   12462:	d00ff0ef          	jal	11962 <memset>
   12466:	47b2                	lw	a5,12(sp)
   12468:	00098763          	beqz	s3,12476 <_vfprintf_r+0x42>
   1246c:	0349a703          	lw	a4,52(s3)
   12470:	e319                	bnez	a4,12476 <_vfprintf_r+0x42>
   12472:	2560106f          	j	136c8 <_vfprintf_r+0x1294>
   12476:	4722                	lw	a4,8(sp)
   12478:	5374                	lw	a3,100(a4)
   1247a:	00c71703          	lh	a4,12(a4)
   1247e:	8a85                	and	a3,a3,1
   12480:	e689                	bnez	a3,1248a <_vfprintf_r+0x56>
   12482:	20077693          	and	a3,a4,512
   12486:	640684e3          	beqz	a3,132ce <_vfprintf_r+0xe9a>
   1248a:	01271693          	sll	a3,a4,0x12
   1248e:	0006ce63          	bltz	a3,124aa <_vfprintf_r+0x76>
   12492:	4522                	lw	a0,8(sp)
   12494:	6589                	lui	a1,0x2
   12496:	7679                	lui	a2,0xffffe
   12498:	5174                	lw	a3,100(a0)
   1249a:	8f4d                	or	a4,a4,a1
   1249c:	167d                	add	a2,a2,-1 # ffffdfff <__BSS_END__+0xfffdf27b>
   1249e:	0742                	sll	a4,a4,0x10
   124a0:	8741                	sra	a4,a4,0x10
   124a2:	8ef1                	and	a3,a3,a2
   124a4:	00e51623          	sh	a4,12(a0)
   124a8:	d174                	sw	a3,100(a0)
   124aa:	00877693          	and	a3,a4,8
   124ae:	1c068c63          	beqz	a3,12686 <_vfprintf_r+0x252>
   124b2:	46a2                	lw	a3,8(sp)
   124b4:	4a94                	lw	a3,16(a3)
   124b6:	1c068863          	beqz	a3,12686 <_vfprintf_r+0x252>
   124ba:	01a77693          	and	a3,a4,26
   124be:	4629                	li	a2,10
   124c0:	1ec68463          	beq	a3,a2,126a8 <_vfprintf_r+0x274>
   124c4:	1178                	add	a4,sp,172
   124c6:	17712623          	sw	s7,364(sp)
   124ca:	17812423          	sw	s8,360(sp)
   124ce:	15b12e23          	sw	s11,348(sp)
   124d2:	18912223          	sw	s1,388(sp)
   124d6:	19212023          	sw	s2,384(sp)
   124da:	17412c23          	sw	s4,376(sp)
   124de:	17512a23          	sw	s5,372(sp)
   124e2:	17612823          	sw	s6,368(sp)
   124e6:	17912223          	sw	s9,356(sp)
   124ea:	17a12023          	sw	s10,352(sp)
   124ee:	d13a                	sw	a4,160(sp)
   124f0:	d502                	sw	zero,168(sp)
   124f2:	d302                	sw	zero,164(sp)
   124f4:	cc02                	sw	zero,24(sp)
   124f6:	d402                	sw	zero,40(sp)
   124f8:	d602                	sw	zero,44(sp)
   124fa:	843a                	mv	s0,a4
   124fc:	dc02                	sw	zero,56(sp)
   124fe:	c082                	sw	zero,64(sp)
   12500:	de02                	sw	zero,60(sp)
   12502:	c882                	sw	zero,80(sp)
   12504:	c682                	sw	zero,76(sp)
   12506:	c602                	sw	zero,12(sp)
   12508:	d6818b93          	add	s7,gp,-664 # 1e578 <__global_locale>
   1250c:	02500d93          	li	s11,37
   12510:	8c3e                	mv	s8,a5
   12512:	8962                	mv	s2,s8
   12514:	0e4ba483          	lw	s1,228(s7)
   12518:	69c040ef          	jal	16bb4 <__locale_mb_cur_max>
   1251c:	86aa                	mv	a3,a0
   1251e:	0918                	add	a4,sp,144
   12520:	864a                	mv	a2,s2
   12522:	010c                	add	a1,sp,128
   12524:	854e                	mv	a0,s3
   12526:	9482                	jalr	s1
   12528:	1e050a63          	beqz	a0,1271c <_vfprintf_r+0x2e8>
   1252c:	1e054063          	bltz	a0,1270c <_vfprintf_r+0x2d8>
   12530:	478a                	lw	a5,128(sp)
   12532:	01b78463          	beq	a5,s11,1253a <_vfprintf_r+0x106>
   12536:	992a                	add	s2,s2,a0
   12538:	bff1                	j	12514 <_vfprintf_r+0xe0>
   1253a:	84aa                	mv	s1,a0
   1253c:	41890cb3          	sub	s9,s2,s8
   12540:	1f891363          	bne	s2,s8,12726 <_vfprintf_r+0x2f2>
   12544:	537d                	li	t1,-1
   12546:	4e81                	li	t4,0
   12548:	4f01                	li	t5,0
   1254a:	00194e03          	lbu	t3,1(s2)
   1254e:	06010ba3          	sb	zero,119(sp)
   12552:	0905                	add	s2,s2,1
   12554:	05a00493          	li	s1,90
   12558:	8a7a                	mv	s4,t5
   1255a:	8af6                	mv	s5,t4
   1255c:	8b1a                	mv	s6,t1
   1255e:	0905                	add	s2,s2,1
   12560:	fe0e0793          	add	a5,t3,-32
   12564:	04f4e063          	bltu	s1,a5,125a4 <_vfprintf_r+0x170>
   12568:	0000b717          	auipc	a4,0xb
   1256c:	95870713          	add	a4,a4,-1704 # 1cec0 <__clz_tab+0x100>
   12570:	078a                	sll	a5,a5,0x2
   12572:	97ba                	add	a5,a5,a4
   12574:	439c                	lw	a5,0(a5)
   12576:	97ba                	add	a5,a5,a4
   12578:	8782                	jr	a5
   1257a:	4a81                	li	s5,0
   1257c:	fd0e0713          	add	a4,t3,-48
   12580:	46a5                	li	a3,9
   12582:	00094e03          	lbu	t3,0(s2)
   12586:	002a9793          	sll	a5,s5,0x2
   1258a:	97d6                	add	a5,a5,s5
   1258c:	0786                	sll	a5,a5,0x1
   1258e:	00f70ab3          	add	s5,a4,a5
   12592:	fd0e0713          	add	a4,t3,-48
   12596:	0905                	add	s2,s2,1
   12598:	fee6f5e3          	bgeu	a3,a4,12582 <_vfprintf_r+0x14e>
   1259c:	fe0e0793          	add	a5,t3,-32
   125a0:	fcf4f4e3          	bgeu	s1,a5,12568 <_vfprintf_r+0x134>
   125a4:	8f52                	mv	t5,s4
   125a6:	8ed6                	mv	t4,s5
   125a8:	1a0e0263          	beqz	t3,1274c <_vfprintf_r+0x318>
   125ac:	0fc10623          	sb	t3,236(sp)
   125b0:	06010ba3          	sb	zero,119(sp)
   125b4:	4c85                	li	s9,1
   125b6:	4601                	li	a2,0
   125b8:	c802                	sw	zero,16(sp)
   125ba:	4b05                	li	s6,1
   125bc:	4301                	li	t1,0
   125be:	d202                	sw	zero,36(sp)
   125c0:	d002                	sw	zero,32(sp)
   125c2:	4a01                	li	s4,0
   125c4:	0ec10c13          	add	s8,sp,236
   125c8:	002f7293          	and	t0,t5,2
   125cc:	00028363          	beqz	t0,125d2 <_vfprintf_r+0x19e>
   125d0:	0c89                	add	s9,s9,2
   125d2:	084f7d13          	and	s10,t5,132
   125d6:	54aa                	lw	s1,168(sp)
   125d8:	000d1663          	bnez	s10,125e4 <_vfprintf_r+0x1b0>
   125dc:	419e8733          	sub	a4,t4,s9
   125e0:	2ce04563          	bgtz	a4,128aa <_vfprintf_r+0x476>
   125e4:	ce19                	beqz	a2,12602 <_vfprintf_r+0x1ce>
   125e6:	571a                	lw	a4,164(sp)
   125e8:	07710613          	add	a2,sp,119
   125ec:	0485                	add	s1,s1,1
   125ee:	0705                	add	a4,a4,1
   125f0:	4785                	li	a5,1
   125f2:	c010                	sw	a2,0(s0)
   125f4:	c05c                	sw	a5,4(s0)
   125f6:	d526                	sw	s1,168(sp)
   125f8:	d33a                	sw	a4,164(sp)
   125fa:	461d                	li	a2,7
   125fc:	0421                	add	s0,s0,8
   125fe:	32e64f63          	blt	a2,a4,1293c <_vfprintf_r+0x508>
   12602:	00028f63          	beqz	t0,12620 <_vfprintf_r+0x1ec>
   12606:	571a                	lw	a4,164(sp)
   12608:	18b0                	add	a2,sp,120
   1260a:	c010                	sw	a2,0(s0)
   1260c:	0489                	add	s1,s1,2
   1260e:	4609                	li	a2,2
   12610:	0705                	add	a4,a4,1
   12612:	c050                	sw	a2,4(s0)
   12614:	d526                	sw	s1,168(sp)
   12616:	d33a                	sw	a4,164(sp)
   12618:	461d                	li	a2,7
   1261a:	0421                	add	s0,s0,8
   1261c:	28e646e3          	blt	a2,a4,130a8 <_vfprintf_r+0xc74>
   12620:	08000713          	li	a4,128
   12624:	06ed06e3          	beq	s10,a4,12e90 <_vfprintf_r+0xa5c>
   12628:	41630ab3          	sub	s5,t1,s6
   1262c:	11504de3          	bgtz	s5,12f46 <_vfprintf_r+0xb12>
   12630:	100f7713          	and	a4,t5,256
   12634:	70071063          	bnez	a4,12d34 <_vfprintf_r+0x900>
   12638:	579a                	lw	a5,164(sp)
   1263a:	94da                	add	s1,s1,s6
   1263c:	01842023          	sw	s8,0(s0)
   12640:	0785                	add	a5,a5,1
   12642:	01642223          	sw	s6,4(s0)
   12646:	d526                	sw	s1,168(sp)
   12648:	d33e                	sw	a5,164(sp)
   1264a:	471d                	li	a4,7
   1264c:	34f74c63          	blt	a4,a5,129a4 <_vfprintf_r+0x570>
   12650:	0421                	add	s0,s0,8
   12652:	004f7f13          	and	t5,t5,4
   12656:	000f0663          	beqz	t5,12662 <_vfprintf_r+0x22e>
   1265a:	419e8d33          	sub	s10,t4,s9
   1265e:	37a04163          	bgtz	s10,129c0 <_vfprintf_r+0x58c>
   12662:	019ed363          	bge	t4,s9,12668 <_vfprintf_r+0x234>
   12666:	8ee6                	mv	t4,s9
   12668:	47b2                	lw	a5,12(sp)
   1266a:	97f6                	add	a5,a5,t4
   1266c:	c63e                	sw	a5,12(sp)
   1266e:	10049063          	bnez	s1,1276e <_vfprintf_r+0x33a>
   12672:	47c2                	lw	a5,16(sp)
   12674:	d302                	sw	zero,164(sp)
   12676:	c789                	beqz	a5,12680 <_vfprintf_r+0x24c>
   12678:	45c2                	lw	a1,16(sp)
   1267a:	854e                	mv	a0,s3
   1267c:	dd2ff0ef          	jal	11c4e <_free_r>
   12680:	1160                	add	s0,sp,172
   12682:	8c4a                	mv	s8,s2
   12684:	b579                	j	12512 <_vfprintf_r+0xde>
   12686:	4422                	lw	s0,8(sp)
   12688:	854e                	mv	a0,s3
   1268a:	c63e                	sw	a5,12(sp)
   1268c:	85a2                	mv	a1,s0
   1268e:	7a8030ef          	jal	15e36 <__swsetup_r>
   12692:	c119                	beqz	a0,12698 <_vfprintf_r+0x264>
   12694:	2e50106f          	j	14178 <_vfprintf_r+0x1d44>
   12698:	00c41703          	lh	a4,12(s0)
   1269c:	4629                	li	a2,10
   1269e:	47b2                	lw	a5,12(sp)
   126a0:	01a77693          	and	a3,a4,26
   126a4:	e2c690e3          	bne	a3,a2,124c4 <_vfprintf_r+0x90>
   126a8:	4622                	lw	a2,8(sp)
   126aa:	00e61683          	lh	a3,14(a2)
   126ae:	e006cbe3          	bltz	a3,124c4 <_vfprintf_r+0x90>
   126b2:	5274                	lw	a3,100(a2)
   126b4:	8a85                	and	a3,a3,1
   126b6:	e691                	bnez	a3,126c2 <_vfprintf_r+0x28e>
   126b8:	20077713          	and	a4,a4,512
   126bc:	e319                	bnez	a4,126c2 <_vfprintf_r+0x28e>
   126be:	4c80106f          	j	13b86 <_vfprintf_r+0x1752>
   126c2:	46d2                	lw	a3,20(sp)
   126c4:	45a2                	lw	a1,8(sp)
   126c6:	854e                	mv	a0,s3
   126c8:	863e                	mv	a2,a5
   126ca:	56f010ef          	jal	14438 <__sbprintf>
   126ce:	18c12083          	lw	ra,396(sp)
   126d2:	18812403          	lw	s0,392(sp)
   126d6:	c62a                	sw	a0,12(sp)
   126d8:	4532                	lw	a0,12(sp)
   126da:	17c12983          	lw	s3,380(sp)
   126de:	6159                	add	sp,sp,400
   126e0:	8082                	ret
   126e2:	854e                	mv	a0,s3
   126e4:	4e8040ef          	jal	16bcc <_localeconv_r>
   126e8:	415c                	lw	a5,4(a0)
   126ea:	853e                	mv	a0,a5
   126ec:	c6be                	sw	a5,76(sp)
   126ee:	72c040ef          	jal	16e1a <strlen>
   126f2:	87aa                	mv	a5,a0
   126f4:	854e                	mv	a0,s3
   126f6:	8cbe                	mv	s9,a5
   126f8:	c8be                	sw	a5,80(sp)
   126fa:	4d2040ef          	jal	16bcc <_localeconv_r>
   126fe:	4518                	lw	a4,8(a0)
   12700:	de3a                	sw	a4,60(sp)
   12702:	480c93e3          	bnez	s9,13388 <_vfprintf_r+0xf54>
   12706:	00094e03          	lbu	t3,0(s2)
   1270a:	bd91                	j	1255e <_vfprintf_r+0x12a>
   1270c:	4621                	li	a2,8
   1270e:	4581                	li	a1,0
   12710:	0908                	add	a0,sp,144
   12712:	a50ff0ef          	jal	11962 <memset>
   12716:	4505                	li	a0,1
   12718:	992a                	add	s2,s2,a0
   1271a:	bbed                	j	12514 <_vfprintf_r+0xe0>
   1271c:	84aa                	mv	s1,a0
   1271e:	41890cb3          	sub	s9,s2,s8
   12722:	03890563          	beq	s2,s8,1274c <_vfprintf_r+0x318>
   12726:	56aa                	lw	a3,168(sp)
   12728:	571a                	lw	a4,164(sp)
   1272a:	01842023          	sw	s8,0(s0)
   1272e:	96e6                	add	a3,a3,s9
   12730:	0705                	add	a4,a4,1
   12732:	01942223          	sw	s9,4(s0)
   12736:	d536                	sw	a3,168(sp)
   12738:	d33a                	sw	a4,164(sp)
   1273a:	469d                	li	a3,7
   1273c:	0421                	add	s0,s0,8
   1273e:	02e6c063          	blt	a3,a4,1275e <_vfprintf_r+0x32a>
   12742:	47b2                	lw	a5,12(sp)
   12744:	97e6                	add	a5,a5,s9
   12746:	c63e                	sw	a5,12(sp)
   12748:	de049ee3          	bnez	s1,12544 <_vfprintf_r+0x110>
   1274c:	57aa                	lw	a5,168(sp)
   1274e:	c399                	beqz	a5,12754 <_vfprintf_r+0x320>
   12750:	3c60106f          	j	13b16 <_vfprintf_r+0x16e2>
   12754:	47a2                	lw	a5,8(sp)
   12756:	d302                	sw	zero,164(sp)
   12758:	00c79783          	lh	a5,12(a5)
   1275c:	a815                	j	12790 <_vfprintf_r+0x35c>
   1275e:	45a2                	lw	a1,8(sp)
   12760:	1110                	add	a2,sp,160
   12762:	854e                	mv	a0,s3
   12764:	641010ef          	jal	145a4 <__sprint_r>
   12768:	e10d                	bnez	a0,1278a <_vfprintf_r+0x356>
   1276a:	1160                	add	s0,sp,172
   1276c:	bfd9                	j	12742 <_vfprintf_r+0x30e>
   1276e:	45a2                	lw	a1,8(sp)
   12770:	1110                	add	a2,sp,160
   12772:	854e                	mv	a0,s3
   12774:	631010ef          	jal	145a4 <__sprint_r>
   12778:	ee050de3          	beqz	a0,12672 <_vfprintf_r+0x23e>
   1277c:	4f42                	lw	t5,16(sp)
   1277e:	000f0663          	beqz	t5,1278a <_vfprintf_r+0x356>
   12782:	85fa                	mv	a1,t5
   12784:	854e                	mv	a0,s3
   12786:	cc8ff0ef          	jal	11c4e <_free_r>
   1278a:	47a2                	lw	a5,8(sp)
   1278c:	00c79783          	lh	a5,12(a5)
   12790:	4722                	lw	a4,8(sp)
   12792:	5378                	lw	a4,100(a4)
   12794:	8b05                	and	a4,a4,1
   12796:	2a070563          	beqz	a4,12a40 <_vfprintf_r+0x60c>
   1279a:	0407f793          	and	a5,a5,64
   1279e:	18412483          	lw	s1,388(sp)
   127a2:	18012903          	lw	s2,384(sp)
   127a6:	17812a03          	lw	s4,376(sp)
   127aa:	17412a83          	lw	s5,372(sp)
   127ae:	17012b03          	lw	s6,368(sp)
   127b2:	16c12b83          	lw	s7,364(sp)
   127b6:	16812c03          	lw	s8,360(sp)
   127ba:	16412c83          	lw	s9,356(sp)
   127be:	16012d03          	lw	s10,352(sp)
   127c2:	15c12d83          	lw	s11,348(sp)
   127c6:	c399                	beqz	a5,127cc <_vfprintf_r+0x398>
   127c8:	1cd0106f          	j	14194 <_vfprintf_r+0x1d60>
   127cc:	18c12083          	lw	ra,396(sp)
   127d0:	18812403          	lw	s0,392(sp)
   127d4:	4532                	lw	a0,12(sp)
   127d6:	17c12983          	lw	s3,380(sp)
   127da:	6159                	add	sp,sp,400
   127dc:	8082                	ret
   127de:	008a7713          	and	a4,s4,8
   127e2:	8f52                	mv	t5,s4
   127e4:	8ed6                	mv	t4,s5
   127e6:	835a                	mv	t1,s6
   127e8:	3a071de3          	bnez	a4,133a2 <_vfprintf_r+0xf6e>
   127ec:	47d2                	lw	a5,20(sp)
   127ee:	00778a93          	add	s5,a5,7
   127f2:	ff8afa93          	and	s5,s5,-8
   127f6:	000aa783          	lw	a5,0(s5)
   127fa:	d43e                	sw	a5,40(sp)
   127fc:	004aa783          	lw	a5,4(s5)
   12800:	d63e                	sw	a5,44(sp)
   12802:	008a8793          	add	a5,s5,8
   12806:	ca3e                	sw	a5,20(sp)
   12808:	5a32                	lw	s4,44(sp)
   1280a:	0000c717          	auipc	a4,0xc
   1280e:	efe70713          	add	a4,a4,-258 # 1e708 <__SDATA_BEGIN__>
   12812:	00072c83          	lw	s9,0(a4)
   12816:	00472d03          	lw	s10,4(a4)
   1281a:	5aa2                	lw	s5,40(sp)
   1281c:	001a1493          	sll	s1,s4,0x1
   12820:	8085                	srl	s1,s1,0x1
   12822:	8556                	mv	a0,s5
   12824:	85a6                	mv	a1,s1
   12826:	8666                	mv	a2,s9
   12828:	86ea                	mv	a3,s10
   1282a:	c29a                	sw	t1,68(sp)
   1282c:	d276                	sw	t4,36(sp)
   1282e:	d072                	sw	t3,32(sp)
   12830:	c87a                	sw	t5,16(sp)
   12832:	64b090ef          	jal	1c67c <__unorddf2>
   12836:	4f42                	lw	t5,16(sp)
   12838:	5e02                	lw	t3,32(sp)
   1283a:	5e92                	lw	t4,36(sp)
   1283c:	4316                	lw	t1,68(sp)
   1283e:	68051be3          	bnez	a0,136d4 <_vfprintf_r+0x12a0>
   12842:	8556                	mv	a0,s5
   12844:	85a6                	mv	a1,s1
   12846:	8666                	mv	a2,s9
   12848:	86ea                	mv	a3,s10
   1284a:	104090ef          	jal	1b94e <__ledf2>
   1284e:	4f42                	lw	t5,16(sp)
   12850:	5e02                	lw	t3,32(sp)
   12852:	5e92                	lw	t4,36(sp)
   12854:	4316                	lw	t1,68(sp)
   12856:	66a05fe3          	blez	a0,136d4 <_vfprintf_r+0x12a0>
   1285a:	8556                	mv	a0,s5
   1285c:	85d2                	mv	a1,s4
   1285e:	4601                	li	a2,0
   12860:	4681                	li	a3,0
   12862:	0ec090ef          	jal	1b94e <__ledf2>
   12866:	4f42                	lw	t5,16(sp)
   12868:	5e02                	lw	t3,32(sp)
   1286a:	5e92                	lw	t4,36(sp)
   1286c:	00055463          	bgez	a0,12874 <_vfprintf_r+0x440>
   12870:	74e0106f          	j	13fbe <_vfprintf_r+0x1b8a>
   12874:	07714603          	lbu	a2,119(sp)
   12878:	04700713          	li	a4,71
   1287c:	0000ac17          	auipc	s8,0xa
   12880:	254c0c13          	add	s8,s8,596 # 1cad0 <__trunctfdf2+0x2d2>
   12884:	01c74663          	blt	a4,t3,12890 <_vfprintf_r+0x45c>
   12888:	0000ac17          	auipc	s8,0xa
   1288c:	244c0c13          	add	s8,s8,580 # 1cacc <__trunctfdf2+0x2ce>
   12890:	c802                	sw	zero,16(sp)
   12892:	d202                	sw	zero,36(sp)
   12894:	d002                	sw	zero,32(sp)
   12896:	f7ff7f13          	and	t5,t5,-129
   1289a:	4c8d                	li	s9,3
   1289c:	4b0d                	li	s6,3
   1289e:	4301                	li	t1,0
   128a0:	4a01                	li	s4,0
   128a2:	d20603e3          	beqz	a2,125c8 <_vfprintf_r+0x194>
   128a6:	0c85                	add	s9,s9,1
   128a8:	b305                	j	125c8 <_vfprintf_r+0x194>
   128aa:	45c1                	li	a1,16
   128ac:	561a                	lw	a2,164(sp)
   128ae:	0000ba97          	auipc	s5,0xb
   128b2:	826a8a93          	add	s5,s5,-2010 # 1d0d4 <blanks.1>
   128b6:	06e5d563          	bge	a1,a4,12920 <_vfprintf_r+0x4ec>
   128ba:	87a2                	mv	a5,s0
   128bc:	86a6                	mv	a3,s1
   128be:	48c1                	li	a7,16
   128c0:	84d6                	mv	s1,s5
   128c2:	439d                	li	t2,7
   128c4:	8ad2                	mv	s5,s4
   128c6:	c296                	sw	t0,68(sp)
   128c8:	c4fa                	sw	t5,72(sp)
   128ca:	caf2                	sw	t3,84(sp)
   128cc:	ccf6                	sw	t4,88(sp)
   128ce:	843a                	mv	s0,a4
   128d0:	8a1a                	mv	s4,t1
   128d2:	a021                	j	128da <_vfprintf_r+0x4a6>
   128d4:	1441                	add	s0,s0,-16
   128d6:	0288db63          	bge	a7,s0,1290c <_vfprintf_r+0x4d8>
   128da:	06c1                	add	a3,a3,16
   128dc:	0605                	add	a2,a2,1
   128de:	c384                	sw	s1,0(a5)
   128e0:	0117a223          	sw	a7,4(a5)
   128e4:	d536                	sw	a3,168(sp)
   128e6:	d332                	sw	a2,164(sp)
   128e8:	07a1                	add	a5,a5,8
   128ea:	fec3d5e3          	bge	t2,a2,128d4 <_vfprintf_r+0x4a0>
   128ee:	45a2                	lw	a1,8(sp)
   128f0:	1110                	add	a2,sp,160
   128f2:	854e                	mv	a0,s3
   128f4:	4b1010ef          	jal	145a4 <__sprint_r>
   128f8:	e80512e3          	bnez	a0,1277c <_vfprintf_r+0x348>
   128fc:	48c1                	li	a7,16
   128fe:	1441                	add	s0,s0,-16
   12900:	56aa                	lw	a3,168(sp)
   12902:	561a                	lw	a2,164(sp)
   12904:	117c                	add	a5,sp,172
   12906:	439d                	li	t2,7
   12908:	fc88c9e3          	blt	a7,s0,128da <_vfprintf_r+0x4a6>
   1290c:	4296                	lw	t0,68(sp)
   1290e:	4f26                	lw	t5,72(sp)
   12910:	4e56                	lw	t3,84(sp)
   12912:	4ee6                	lw	t4,88(sp)
   12914:	8352                	mv	t1,s4
   12916:	8722                	mv	a4,s0
   12918:	8a56                	mv	s4,s5
   1291a:	843e                	mv	s0,a5
   1291c:	8aa6                	mv	s5,s1
   1291e:	84b6                	mv	s1,a3
   12920:	94ba                	add	s1,s1,a4
   12922:	0605                	add	a2,a2,1
   12924:	c058                	sw	a4,4(s0)
   12926:	01542023          	sw	s5,0(s0)
   1292a:	d526                	sw	s1,168(sp)
   1292c:	d332                	sw	a2,164(sp)
   1292e:	471d                	li	a4,7
   12930:	56c745e3          	blt	a4,a2,1369a <_vfprintf_r+0x1266>
   12934:	07714603          	lbu	a2,119(sp)
   12938:	0421                	add	s0,s0,8
   1293a:	b16d                	j	125e4 <_vfprintf_r+0x1b0>
   1293c:	45a2                	lw	a1,8(sp)
   1293e:	1110                	add	a2,sp,160
   12940:	854e                	mv	a0,s3
   12942:	ce9a                	sw	t1,92(sp)
   12944:	ccf6                	sw	t4,88(sp)
   12946:	caf2                	sw	t3,84(sp)
   12948:	c4fa                	sw	t5,72(sp)
   1294a:	c296                	sw	t0,68(sp)
   1294c:	459010ef          	jal	145a4 <__sprint_r>
   12950:	e20516e3          	bnez	a0,1277c <_vfprintf_r+0x348>
   12954:	54aa                	lw	s1,168(sp)
   12956:	4376                	lw	t1,92(sp)
   12958:	4ee6                	lw	t4,88(sp)
   1295a:	4e56                	lw	t3,84(sp)
   1295c:	4f26                	lw	t5,72(sp)
   1295e:	4296                	lw	t0,68(sp)
   12960:	1160                	add	s0,sp,172
   12962:	b145                	j	12602 <_vfprintf_r+0x1ce>
   12964:	5752                	lw	a4,52(sp)
   12966:	57c2                	lw	a5,48(sp)
   12968:	469d                	li	a3,7
   1296a:	c018                	sw	a4,0(s0)
   1296c:	571a                	lw	a4,164(sp)
   1296e:	009785b3          	add	a1,a5,s1
   12972:	c05c                	sw	a5,4(s0)
   12974:	0705                	add	a4,a4,1
   12976:	d52e                	sw	a1,168(sp)
   12978:	d33a                	sw	a4,164(sp)
   1297a:	0421                	add	s0,s0,8
   1297c:	00e6d463          	bge	a3,a4,12984 <_vfprintf_r+0x550>
   12980:	1e20106f          	j	13b62 <_vfprintf_r+0x172e>
   12984:	00065463          	bgez	a2,1298c <_vfprintf_r+0x558>
   12988:	0150106f          	j	1419c <_vfprintf_r+0x1d68>
   1298c:	47e2                	lw	a5,24(sp)
   1298e:	0705                	add	a4,a4,1
   12990:	01842023          	sw	s8,0(s0)
   12994:	00b784b3          	add	s1,a5,a1
   12998:	c05c                	sw	a5,4(s0)
   1299a:	d526                	sw	s1,168(sp)
   1299c:	d33a                	sw	a4,164(sp)
   1299e:	479d                	li	a5,7
   129a0:	cae7d8e3          	bge	a5,a4,12650 <_vfprintf_r+0x21c>
   129a4:	45a2                	lw	a1,8(sp)
   129a6:	1110                	add	a2,sp,160
   129a8:	854e                	mv	a0,s3
   129aa:	d276                	sw	t4,36(sp)
   129ac:	d07a                	sw	t5,32(sp)
   129ae:	3f7010ef          	jal	145a4 <__sprint_r>
   129b2:	dc0515e3          	bnez	a0,1277c <_vfprintf_r+0x348>
   129b6:	54aa                	lw	s1,168(sp)
   129b8:	5f02                	lw	t5,32(sp)
   129ba:	5e92                	lw	t4,36(sp)
   129bc:	1160                	add	s0,sp,172
   129be:	b951                	j	12652 <_vfprintf_r+0x21e>
   129c0:	4741                	li	a4,16
   129c2:	579a                	lw	a5,164(sp)
   129c4:	0000aa97          	auipc	s5,0xa
   129c8:	710a8a93          	add	s5,s5,1808 # 1d0d4 <blanks.1>
   129cc:	05a75463          	bge	a4,s10,12a14 <_vfprintf_r+0x5e0>
   129d0:	8c56                	mv	s8,s5
   129d2:	4b41                	li	s6,16
   129d4:	4a1d                	li	s4,7
   129d6:	8af6                	mv	s5,t4
   129d8:	a021                	j	129e0 <_vfprintf_r+0x5ac>
   129da:	1d41                	add	s10,s10,-16
   129dc:	03ab5a63          	bge	s6,s10,12a10 <_vfprintf_r+0x5dc>
   129e0:	04c1                	add	s1,s1,16
   129e2:	0785                	add	a5,a5,1
   129e4:	01842023          	sw	s8,0(s0)
   129e8:	01642223          	sw	s6,4(s0)
   129ec:	d526                	sw	s1,168(sp)
   129ee:	d33e                	sw	a5,164(sp)
   129f0:	0421                	add	s0,s0,8
   129f2:	fefa54e3          	bge	s4,a5,129da <_vfprintf_r+0x5a6>
   129f6:	45a2                	lw	a1,8(sp)
   129f8:	1110                	add	a2,sp,160
   129fa:	854e                	mv	a0,s3
   129fc:	3a9010ef          	jal	145a4 <__sprint_r>
   12a00:	d6051ee3          	bnez	a0,1277c <_vfprintf_r+0x348>
   12a04:	1d41                	add	s10,s10,-16
   12a06:	54aa                	lw	s1,168(sp)
   12a08:	579a                	lw	a5,164(sp)
   12a0a:	1160                	add	s0,sp,172
   12a0c:	fdab4ae3          	blt	s6,s10,129e0 <_vfprintf_r+0x5ac>
   12a10:	8ed6                	mv	t4,s5
   12a12:	8ae2                	mv	s5,s8
   12a14:	94ea                	add	s1,s1,s10
   12a16:	0785                	add	a5,a5,1
   12a18:	01542023          	sw	s5,0(s0)
   12a1c:	01a42223          	sw	s10,4(s0)
   12a20:	d526                	sw	s1,168(sp)
   12a22:	d33e                	sw	a5,164(sp)
   12a24:	471d                	li	a4,7
   12a26:	c2f75ee3          	bge	a4,a5,12662 <_vfprintf_r+0x22e>
   12a2a:	45a2                	lw	a1,8(sp)
   12a2c:	1110                	add	a2,sp,160
   12a2e:	854e                	mv	a0,s3
   12a30:	d076                	sw	t4,32(sp)
   12a32:	373010ef          	jal	145a4 <__sprint_r>
   12a36:	d40513e3          	bnez	a0,1277c <_vfprintf_r+0x348>
   12a3a:	54aa                	lw	s1,168(sp)
   12a3c:	5e82                	lw	t4,32(sp)
   12a3e:	b115                	j	12662 <_vfprintf_r+0x22e>
   12a40:	2007f713          	and	a4,a5,512
   12a44:	d4071be3          	bnez	a4,1279a <_vfprintf_r+0x366>
   12a48:	4422                	lw	s0,8(sp)
   12a4a:	4c28                	lw	a0,88(s0)
   12a4c:	f15fe0ef          	jal	11960 <__retarget_lock_release_recursive>
   12a50:	00c41783          	lh	a5,12(s0)
   12a54:	b399                	j	1279a <_vfprintf_r+0x366>
   12a56:	00094e03          	lbu	t3,0(s2)
   12a5a:	020a6a13          	or	s4,s4,32
   12a5e:	b601                	j	1255e <_vfprintf_r+0x12a>
   12a60:	4752                	lw	a4,20(sp)
   12a62:	04300793          	li	a5,67
   12a66:	8f52                	mv	t5,s4
   12a68:	8ed6                	mv	t4,s5
   12a6a:	00470493          	add	s1,a4,4
   12a6e:	26fe07e3          	beq	t3,a5,134dc <_vfprintf_r+0x10a8>
   12a72:	010a7793          	and	a5,s4,16
   12a76:	260793e3          	bnez	a5,134dc <_vfprintf_r+0x10a8>
   12a7a:	47d2                	lw	a5,20(sp)
   12a7c:	4c85                	li	s9,1
   12a7e:	4b05                	li	s6,1
   12a80:	439c                	lw	a5,0(a5)
   12a82:	0ec10c13          	add	s8,sp,236
   12a86:	0ef10623          	sb	a5,236(sp)
   12a8a:	06010ba3          	sb	zero,119(sp)
   12a8e:	ca26                	sw	s1,20(sp)
   12a90:	4601                	li	a2,0
   12a92:	c802                	sw	zero,16(sp)
   12a94:	4301                	li	t1,0
   12a96:	d202                	sw	zero,36(sp)
   12a98:	d002                	sw	zero,32(sp)
   12a9a:	4a01                	li	s4,0
   12a9c:	b635                	j	125c8 <_vfprintf_r+0x194>
   12a9e:	47d2                	lw	a5,20(sp)
   12aa0:	06010ba3          	sb	zero,119(sp)
   12aa4:	8ed6                	mv	t4,s5
   12aa6:	0007ac03          	lw	s8,0(a5)
   12aaa:	8f52                	mv	t5,s4
   12aac:	835a                	mv	t1,s6
   12aae:	00478a93          	add	s5,a5,4
   12ab2:	200c03e3          	beqz	s8,134b8 <_vfprintf_r+0x1084>
   12ab6:	05300713          	li	a4,83
   12aba:	52ee07e3          	beq	t3,a4,137e8 <_vfprintf_r+0x13b4>
   12abe:	010a7a13          	and	s4,s4,16
   12ac2:	520a13e3          	bnez	s4,137e8 <_vfprintf_r+0x13b4>
   12ac6:	000b5463          	bgez	s6,12ace <_vfprintf_r+0x69a>
   12aca:	0600106f          	j	13b2a <_vfprintf_r+0x16f6>
   12ace:	865a                	mv	a2,s6
   12ad0:	4581                	li	a1,0
   12ad2:	8562                	mv	a0,s8
   12ad4:	d276                	sw	t4,36(sp)
   12ad6:	d07a                	sw	t5,32(sp)
   12ad8:	ca5a                	sw	s6,20(sp)
   12ada:	61c030ef          	jal	160f6 <memchr>
   12ade:	c82a                	sw	a0,16(sp)
   12ae0:	4352                	lw	t1,20(sp)
   12ae2:	5f02                	lw	t5,32(sp)
   12ae4:	5e92                	lw	t4,36(sp)
   12ae6:	e119                	bnez	a0,12aec <_vfprintf_r+0x6b8>
   12ae8:	03f0106f          	j	14326 <_vfprintf_r+0x1ef2>
   12aec:	47c2                	lw	a5,16(sp)
   12aee:	07714603          	lbu	a2,119(sp)
   12af2:	ca56                	sw	s5,20(sp)
   12af4:	41878b33          	sub	s6,a5,s8
   12af8:	fffb4813          	not	a6,s6
   12afc:	41f85813          	sra	a6,a6,0x1f
   12b00:	d202                	sw	zero,36(sp)
   12b02:	d002                	sw	zero,32(sp)
   12b04:	c802                	sw	zero,16(sp)
   12b06:	010b7cb3          	and	s9,s6,a6
   12b0a:	4301                	li	t1,0
   12b0c:	07300e13          	li	t3,115
   12b10:	aa060ce3          	beqz	a2,125c8 <_vfprintf_r+0x194>
   12b14:	bb49                	j	128a6 <_vfprintf_r+0x472>
   12b16:	47d2                	lw	a5,20(sp)
   12b18:	0007aa83          	lw	s5,0(a5)
   12b1c:	0791                	add	a5,a5,4
   12b1e:	7c0adb63          	bgez	s5,132f4 <_vfprintf_r+0xec0>
   12b22:	41500ab3          	neg	s5,s5
   12b26:	ca3e                	sw	a5,20(sp)
   12b28:	00094e03          	lbu	t3,0(s2)
   12b2c:	004a6a13          	or	s4,s4,4
   12b30:	b43d                	j	1255e <_vfprintf_r+0x12a>
   12b32:	00094e03          	lbu	t3,0(s2)
   12b36:	06c00793          	li	a5,108
   12b3a:	12fe05e3          	beq	t3,a5,13464 <_vfprintf_r+0x1030>
   12b3e:	010a6a13          	or	s4,s4,16
   12b42:	bc31                	j	1255e <_vfprintf_r+0x12a>
   12b44:	00094e03          	lbu	t3,0(s2)
   12b48:	06800793          	li	a5,104
   12b4c:	12fe03e3          	beq	t3,a5,13472 <_vfprintf_r+0x103e>
   12b50:	040a6a13          	or	s4,s4,64
   12b54:	b429                	j	1255e <_vfprintf_r+0x12a>
   12b56:	02b00793          	li	a5,43
   12b5a:	00094e03          	lbu	t3,0(s2)
   12b5e:	06f10ba3          	sb	a5,119(sp)
   12b62:	baf5                	j	1255e <_vfprintf_r+0x12a>
   12b64:	00094e03          	lbu	t3,0(s2)
   12b68:	080a6a13          	or	s4,s4,128
   12b6c:	bacd                	j	1255e <_vfprintf_r+0x12a>
   12b6e:	00094e03          	lbu	t3,0(s2)
   12b72:	02a00793          	li	a5,42
   12b76:	00190693          	add	a3,s2,1
   12b7a:	00fe1463          	bne	t3,a5,12b82 <_vfprintf_r+0x74e>
   12b7e:	05d0106f          	j	143da <_vfprintf_r+0x1fa6>
   12b82:	fd0e0713          	add	a4,t3,-48
   12b86:	47a5                	li	a5,9
   12b88:	4b01                	li	s6,0
   12b8a:	4625                	li	a2,9
   12b8c:	02e7e163          	bltu	a5,a4,12bae <_vfprintf_r+0x77a>
   12b90:	0006ce03          	lbu	t3,0(a3)
   12b94:	002b1793          	sll	a5,s6,0x2
   12b98:	97da                	add	a5,a5,s6
   12b9a:	0786                	sll	a5,a5,0x1
   12b9c:	00e78b33          	add	s6,a5,a4
   12ba0:	fd0e0713          	add	a4,t3,-48
   12ba4:	0685                	add	a3,a3,1
   12ba6:	fee675e3          	bgeu	a2,a4,12b90 <_vfprintf_r+0x75c>
   12baa:	040b4ae3          	bltz	s6,133fe <_vfprintf_r+0xfca>
   12bae:	8936                	mv	s2,a3
   12bb0:	ba45                	j	12560 <_vfprintf_r+0x12c>
   12bb2:	00094e03          	lbu	t3,0(s2)
   12bb6:	001a6a13          	or	s4,s4,1
   12bba:	b255                	j	1255e <_vfprintf_r+0x12a>
   12bbc:	07714783          	lbu	a5,119(sp)
   12bc0:	00094e03          	lbu	t3,0(s2)
   12bc4:	98079de3          	bnez	a5,1255e <_vfprintf_r+0x12a>
   12bc8:	02000793          	li	a5,32
   12bcc:	06f10ba3          	sb	a5,119(sp)
   12bd0:	b279                	j	1255e <_vfprintf_r+0x12a>
   12bd2:	8ed6                	mv	t4,s5
   12bd4:	835a                	mv	t1,s6
   12bd6:	010a6f13          	or	t5,s4,16
   12bda:	020f7793          	and	a5,t5,32
   12bde:	6c078a63          	beqz	a5,132b2 <_vfprintf_r+0xe7e>
   12be2:	47d2                	lw	a5,20(sp)
   12be4:	00778a93          	add	s5,a5,7
   12be8:	ff8afa93          	and	s5,s5,-8
   12bec:	000aa483          	lw	s1,0(s5)
   12bf0:	004aac83          	lw	s9,4(s5)
   12bf4:	008a8793          	add	a5,s5,8
   12bf8:	ca3e                	sw	a5,20(sp)
   12bfa:	bfff7d13          	and	s10,t5,-1025
   12bfe:	4781                	li	a5,0
   12c00:	4701                	li	a4,0
   12c02:	06e10ba3          	sb	a4,119(sp)
   12c06:	1e034a63          	bltz	t1,12dfa <_vfprintf_r+0x9c6>
   12c0a:	0194e733          	or	a4,s1,s9
   12c0e:	f7fd7f13          	and	t5,s10,-129
   12c12:	1e071363          	bnez	a4,12df8 <_vfprintf_r+0x9c4>
   12c16:	22031b63          	bnez	t1,12e4c <_vfprintf_r+0xa18>
   12c1a:	14079be3          	bnez	a5,13570 <_vfprintf_r+0x113c>
   12c1e:	001d7b13          	and	s6,s10,1
   12c22:	15010c13          	add	s8,sp,336
   12c26:	720b1463          	bnez	s6,1334e <_vfprintf_r+0xf1a>
   12c2a:	07714603          	lbu	a2,119(sp)
   12c2e:	8c9a                	mv	s9,t1
   12c30:	01635363          	bge	t1,s6,12c36 <_vfprintf_r+0x802>
   12c34:	8cda                	mv	s9,s6
   12c36:	c802                	sw	zero,16(sp)
   12c38:	d202                	sw	zero,36(sp)
   12c3a:	d002                	sw	zero,32(sp)
   12c3c:	4a01                	li	s4,0
   12c3e:	980605e3          	beqz	a2,125c8 <_vfprintf_r+0x194>
   12c42:	b195                	j	128a6 <_vfprintf_r+0x472>
   12c44:	8ed6                	mv	t4,s5
   12c46:	835a                	mv	t1,s6
   12c48:	010a6d13          	or	s10,s4,16
   12c4c:	020d7793          	and	a5,s10,32
   12c50:	64078263          	beqz	a5,13294 <_vfprintf_r+0xe60>
   12c54:	47d2                	lw	a5,20(sp)
   12c56:	00778a93          	add	s5,a5,7
   12c5a:	ff8afa93          	and	s5,s5,-8
   12c5e:	008a8793          	add	a5,s5,8
   12c62:	ca3e                	sw	a5,20(sp)
   12c64:	000aa483          	lw	s1,0(s5)
   12c68:	004aac83          	lw	s9,4(s5)
   12c6c:	4785                	li	a5,1
   12c6e:	bf49                	j	12c00 <_vfprintf_r+0x7cc>
   12c70:	00094e03          	lbu	t3,0(s2)
   12c74:	008a6a13          	or	s4,s4,8
   12c78:	b0dd                	j	1255e <_vfprintf_r+0x12a>
   12c7a:	8ed6                	mv	t4,s5
   12c7c:	835a                	mv	t1,s6
   12c7e:	010a6f13          	or	t5,s4,16
   12c82:	020f7793          	and	a5,t5,32
   12c86:	5c078763          	beqz	a5,13254 <_vfprintf_r+0xe20>
   12c8a:	47d2                	lw	a5,20(sp)
   12c8c:	00778a93          	add	s5,a5,7
   12c90:	ff8afa93          	and	s5,s5,-8
   12c94:	004aa783          	lw	a5,4(s5)
   12c98:	000aa483          	lw	s1,0(s5)
   12c9c:	008a8713          	add	a4,s5,8
   12ca0:	ca3a                	sw	a4,20(sp)
   12ca2:	8cbe                	mv	s9,a5
   12ca4:	5c07cb63          	bltz	a5,1327a <_vfprintf_r+0xe46>
   12ca8:	8d7a                	mv	s10,t5
   12caa:	00034e63          	bltz	t1,12cc6 <_vfprintf_r+0x892>
   12cae:	0194e7b3          	or	a5,s1,s9
   12cb2:	f7ff7d13          	and	s10,t5,-129
   12cb6:	eb81                	bnez	a5,12cc6 <_vfprintf_r+0x892>
   12cb8:	00031c63          	bnez	t1,12cd0 <_vfprintf_r+0x89c>
   12cbc:	4b01                	li	s6,0
   12cbe:	8f6a                	mv	t5,s10
   12cc0:	15010c13          	add	s8,sp,336
   12cc4:	b79d                	j	12c2a <_vfprintf_r+0x7f6>
   12cc6:	100c90e3          	bnez	s9,135c6 <_vfprintf_r+0x1192>
   12cca:	47a5                	li	a5,9
   12ccc:	0e97ede3          	bltu	a5,s1,135c6 <_vfprintf_r+0x1192>
   12cd0:	03048493          	add	s1,s1,48
   12cd4:	149107a3          	sb	s1,335(sp)
   12cd8:	8f6a                	mv	t5,s10
   12cda:	4b05                	li	s6,1
   12cdc:	14f10c13          	add	s8,sp,335
   12ce0:	b7a9                	j	12c2a <_vfprintf_r+0x7f6>
   12ce2:	4752                	lw	a4,20(sp)
   12ce4:	67a1                	lui	a5,0x8
   12ce6:	83078793          	add	a5,a5,-2000 # 7830 <exit-0x8864>
   12cea:	06f11c23          	sh	a5,120(sp)
   12cee:	00470793          	add	a5,a4,4
   12cf2:	ca3e                	sw	a5,20(sp)
   12cf4:	0000a797          	auipc	a5,0xa
   12cf8:	de878793          	add	a5,a5,-536 # 1cadc <__trunctfdf2+0x2de>
   12cfc:	dc3e                	sw	a5,56(sp)
   12cfe:	4304                	lw	s1,0(a4)
   12d00:	8ed6                	mv	t4,s5
   12d02:	835a                	mv	t1,s6
   12d04:	4c81                	li	s9,0
   12d06:	002a6d13          	or	s10,s4,2
   12d0a:	4789                	li	a5,2
   12d0c:	07800e13          	li	t3,120
   12d10:	bdc5                	j	12c00 <_vfprintf_r+0x7cc>
   12d12:	020a7793          	and	a5,s4,32
   12d16:	6c078263          	beqz	a5,133da <_vfprintf_r+0xfa6>
   12d1a:	47d2                	lw	a5,20(sp)
   12d1c:	46b2                	lw	a3,12(sp)
   12d1e:	439c                	lw	a5,0(a5)
   12d20:	41f6d713          	sra	a4,a3,0x1f
   12d24:	c394                	sw	a3,0(a5)
   12d26:	c3d8                	sw	a4,4(a5)
   12d28:	47d2                	lw	a5,20(sp)
   12d2a:	8c4a                	mv	s8,s2
   12d2c:	0791                	add	a5,a5,4
   12d2e:	ca3e                	sw	a5,20(sp)
   12d30:	fe2ff06f          	j	12512 <_vfprintf_r+0xde>
   12d34:	06500713          	li	a4,101
   12d38:	2bc75b63          	bge	a4,t3,12fee <_vfprintf_r+0xbba>
   12d3c:	56a2                	lw	a3,40(sp)
   12d3e:	5732                	lw	a4,44(sp)
   12d40:	4601                	li	a2,0
   12d42:	8536                	mv	a0,a3
   12d44:	85ba                	mv	a1,a4
   12d46:	4681                	li	a3,0
   12d48:	c4f6                	sw	t4,72(sp)
   12d4a:	c2fa                	sw	t5,68(sp)
   12d4c:	2d9080ef          	jal	1b824 <__eqdf2>
   12d50:	4f16                	lw	t5,68(sp)
   12d52:	4ea6                	lw	t4,72(sp)
   12d54:	36051d63          	bnez	a0,130ce <_vfprintf_r+0xc9a>
   12d58:	579a                	lw	a5,164(sp)
   12d5a:	0000a717          	auipc	a4,0xa
   12d5e:	db270713          	add	a4,a4,-590 # 1cb0c <__trunctfdf2+0x30e>
   12d62:	c018                	sw	a4,0(s0)
   12d64:	0485                	add	s1,s1,1
   12d66:	4705                	li	a4,1
   12d68:	0785                	add	a5,a5,1
   12d6a:	c058                	sw	a4,4(s0)
   12d6c:	d526                	sw	s1,168(sp)
   12d6e:	d33e                	sw	a5,164(sp)
   12d70:	471d                	li	a4,7
   12d72:	0421                	add	s0,s0,8
   12d74:	24f74ae3          	blt	a4,a5,137c8 <_vfprintf_r+0x1394>
   12d78:	57f6                	lw	a5,124(sp)
   12d7a:	4762                	lw	a4,24(sp)
   12d7c:	56e7d363          	bge	a5,a4,132e2 <_vfprintf_r+0xeae>
   12d80:	57d2                	lw	a5,52(sp)
   12d82:	5742                	lw	a4,48(sp)
   12d84:	0421                	add	s0,s0,8
   12d86:	fef42c23          	sw	a5,-8(s0)
   12d8a:	579a                	lw	a5,164(sp)
   12d8c:	94ba                	add	s1,s1,a4
   12d8e:	fee42e23          	sw	a4,-4(s0)
   12d92:	0785                	add	a5,a5,1
   12d94:	d526                	sw	s1,168(sp)
   12d96:	d33e                	sw	a5,164(sp)
   12d98:	471d                	li	a4,7
   12d9a:	70f74163          	blt	a4,a5,1349c <_vfprintf_r+0x1068>
   12d9e:	47e2                	lw	a5,24(sp)
   12da0:	fff78d13          	add	s10,a5,-1
   12da4:	8ba057e3          	blez	s10,12652 <_vfprintf_r+0x21e>
   12da8:	4741                	li	a4,16
   12daa:	579a                	lw	a5,164(sp)
   12dac:	0000a297          	auipc	t0,0xa
   12db0:	31828293          	add	t0,t0,792 # 1d0c4 <zeroes.0>
   12db4:	33a753e3          	bge	a4,s10,138da <_vfprintf_r+0x14a6>
   12db8:	8726                	mv	a4,s1
   12dba:	4b41                	li	s6,16
   12dbc:	4a9d                	li	s5,7
   12dbe:	8c7a                	mv	s8,t5
   12dc0:	84f6                	mv	s1,t4
   12dc2:	8a16                	mv	s4,t0
   12dc4:	a021                	j	12dcc <_vfprintf_r+0x998>
   12dc6:	1d41                	add	s10,s10,-16
   12dc8:	31ab55e3          	bge	s6,s10,138d2 <_vfprintf_r+0x149e>
   12dcc:	0741                	add	a4,a4,16
   12dce:	0785                	add	a5,a5,1
   12dd0:	01442023          	sw	s4,0(s0)
   12dd4:	01642223          	sw	s6,4(s0)
   12dd8:	d53a                	sw	a4,168(sp)
   12dda:	d33e                	sw	a5,164(sp)
   12ddc:	0421                	add	s0,s0,8
   12dde:	fefad4e3          	bge	s5,a5,12dc6 <_vfprintf_r+0x992>
   12de2:	45a2                	lw	a1,8(sp)
   12de4:	1110                	add	a2,sp,160
   12de6:	854e                	mv	a0,s3
   12de8:	7bc010ef          	jal	145a4 <__sprint_r>
   12dec:	980518e3          	bnez	a0,1277c <_vfprintf_r+0x348>
   12df0:	572a                	lw	a4,168(sp)
   12df2:	579a                	lw	a5,164(sp)
   12df4:	1160                	add	s0,sp,172
   12df6:	bfc1                	j	12dc6 <_vfprintf_r+0x992>
   12df8:	8d7a                	mv	s10,t5
   12dfa:	4705                	li	a4,1
   12dfc:	ece785e3          	beq	a5,a4,12cc6 <_vfprintf_r+0x892>
   12e00:	4709                	li	a4,2
   12e02:	04e78e63          	beq	a5,a4,12e5e <_vfprintf_r+0xa2a>
   12e06:	15010c13          	add	s8,sp,336
   12e0a:	01dc9793          	sll	a5,s9,0x1d
   12e0e:	0074f713          	and	a4,s1,7
   12e12:	808d                	srl	s1,s1,0x3
   12e14:	03070713          	add	a4,a4,48
   12e18:	8cdd                	or	s1,s1,a5
   12e1a:	003cdc93          	srl	s9,s9,0x3
   12e1e:	feec0fa3          	sb	a4,-1(s8)
   12e22:	0194e7b3          	or	a5,s1,s9
   12e26:	8662                	mv	a2,s8
   12e28:	1c7d                	add	s8,s8,-1
   12e2a:	f3e5                	bnez	a5,12e0a <_vfprintf_r+0x9d6>
   12e2c:	001d7693          	and	a3,s10,1
   12e30:	cab9                	beqz	a3,12e86 <_vfprintf_r+0xa52>
   12e32:	03000693          	li	a3,48
   12e36:	04d70863          	beq	a4,a3,12e86 <_vfprintf_r+0xa52>
   12e3a:	1679                	add	a2,a2,-2
   12e3c:	0a9c                	add	a5,sp,336
   12e3e:	fedc0fa3          	sb	a3,-1(s8)
   12e42:	40c78b33          	sub	s6,a5,a2
   12e46:	8f6a                	mv	t5,s10
   12e48:	8c32                	mv	s8,a2
   12e4a:	b3c5                	j	12c2a <_vfprintf_r+0x7f6>
   12e4c:	4705                	li	a4,1
   12e4e:	00e79463          	bne	a5,a4,12e56 <_vfprintf_r+0xa22>
   12e52:	2f00106f          	j	14142 <_vfprintf_r+0x1d0e>
   12e56:	4709                	li	a4,2
   12e58:	8d7a                	mv	s10,t5
   12e5a:	fae796e3          	bne	a5,a4,12e06 <_vfprintf_r+0x9d2>
   12e5e:	56e2                	lw	a3,56(sp)
   12e60:	15010c13          	add	s8,sp,336
   12e64:	00f4f793          	and	a5,s1,15
   12e68:	97b6                	add	a5,a5,a3
   12e6a:	0007c703          	lbu	a4,0(a5)
   12e6e:	8091                	srl	s1,s1,0x4
   12e70:	01cc9793          	sll	a5,s9,0x1c
   12e74:	8cdd                	or	s1,s1,a5
   12e76:	004cdc93          	srl	s9,s9,0x4
   12e7a:	feec0fa3          	sb	a4,-1(s8)
   12e7e:	0194e7b3          	or	a5,s1,s9
   12e82:	1c7d                	add	s8,s8,-1
   12e84:	f3e5                	bnez	a5,12e64 <_vfprintf_r+0xa30>
   12e86:	0a9c                	add	a5,sp,336
   12e88:	41878b33          	sub	s6,a5,s8
   12e8c:	8f6a                	mv	t5,s10
   12e8e:	bb71                	j	12c2a <_vfprintf_r+0x7f6>
   12e90:	419e8ab3          	sub	s5,t4,s9
   12e94:	f9505a63          	blez	s5,12628 <_vfprintf_r+0x1f4>
   12e98:	45c1                	li	a1,16
   12e9a:	561a                	lw	a2,164(sp)
   12e9c:	0000a297          	auipc	t0,0xa
   12ea0:	22828293          	add	t0,t0,552 # 1d0c4 <zeroes.0>
   12ea4:	0755d263          	bge	a1,s5,12f08 <_vfprintf_r+0xad4>
   12ea8:	87a2                	mv	a5,s0
   12eaa:	8726                	mv	a4,s1
   12eac:	8456                	mv	s0,s5
   12eae:	48c1                	li	a7,16
   12eb0:	8ad2                	mv	s5,s4
   12eb2:	4d1d                	li	s10,7
   12eb4:	c2fa                	sw	t5,68(sp)
   12eb6:	c4f2                	sw	t3,72(sp)
   12eb8:	caf6                	sw	t4,84(sp)
   12eba:	8a1a                	mv	s4,t1
   12ebc:	8496                	mv	s1,t0
   12ebe:	a021                	j	12ec6 <_vfprintf_r+0xa92>
   12ec0:	1441                	add	s0,s0,-16
   12ec2:	0288da63          	bge	a7,s0,12ef6 <_vfprintf_r+0xac2>
   12ec6:	0741                	add	a4,a4,16
   12ec8:	0605                	add	a2,a2,1
   12eca:	c384                	sw	s1,0(a5)
   12ecc:	0117a223          	sw	a7,4(a5)
   12ed0:	d53a                	sw	a4,168(sp)
   12ed2:	d332                	sw	a2,164(sp)
   12ed4:	07a1                	add	a5,a5,8
   12ed6:	fecd55e3          	bge	s10,a2,12ec0 <_vfprintf_r+0xa8c>
   12eda:	45a2                	lw	a1,8(sp)
   12edc:	1110                	add	a2,sp,160
   12ede:	854e                	mv	a0,s3
   12ee0:	6c4010ef          	jal	145a4 <__sprint_r>
   12ee4:	88051ce3          	bnez	a0,1277c <_vfprintf_r+0x348>
   12ee8:	48c1                	li	a7,16
   12eea:	1441                	add	s0,s0,-16
   12eec:	572a                	lw	a4,168(sp)
   12eee:	561a                	lw	a2,164(sp)
   12ef0:	117c                	add	a5,sp,172
   12ef2:	fc88cae3          	blt	a7,s0,12ec6 <_vfprintf_r+0xa92>
   12ef6:	4f16                	lw	t5,68(sp)
   12ef8:	4e26                	lw	t3,72(sp)
   12efa:	4ed6                	lw	t4,84(sp)
   12efc:	8352                	mv	t1,s4
   12efe:	82a6                	mv	t0,s1
   12f00:	8a56                	mv	s4,s5
   12f02:	84ba                	mv	s1,a4
   12f04:	8aa2                	mv	s5,s0
   12f06:	843e                	mv	s0,a5
   12f08:	94d6                	add	s1,s1,s5
   12f0a:	0605                	add	a2,a2,1
   12f0c:	00542023          	sw	t0,0(s0)
   12f10:	01542223          	sw	s5,4(s0)
   12f14:	d526                	sw	s1,168(sp)
   12f16:	d332                	sw	a2,164(sp)
   12f18:	471d                	li	a4,7
   12f1a:	0421                	add	s0,s0,8
   12f1c:	f0c75663          	bge	a4,a2,12628 <_vfprintf_r+0x1f4>
   12f20:	45a2                	lw	a1,8(sp)
   12f22:	1110                	add	a2,sp,160
   12f24:	854e                	mv	a0,s3
   12f26:	cc9a                	sw	t1,88(sp)
   12f28:	caf6                	sw	t4,84(sp)
   12f2a:	c4f2                	sw	t3,72(sp)
   12f2c:	c2fa                	sw	t5,68(sp)
   12f2e:	676010ef          	jal	145a4 <__sprint_r>
   12f32:	840515e3          	bnez	a0,1277c <_vfprintf_r+0x348>
   12f36:	54aa                	lw	s1,168(sp)
   12f38:	4366                	lw	t1,88(sp)
   12f3a:	4ed6                	lw	t4,84(sp)
   12f3c:	4e26                	lw	t3,72(sp)
   12f3e:	4f16                	lw	t5,68(sp)
   12f40:	1160                	add	s0,sp,172
   12f42:	ee6ff06f          	j	12628 <_vfprintf_r+0x1f4>
   12f46:	4741                	li	a4,16
   12f48:	561a                	lw	a2,164(sp)
   12f4a:	0000a297          	auipc	t0,0xa
   12f4e:	17a28293          	add	t0,t0,378 # 1d0c4 <zeroes.0>
   12f52:	07575163          	bge	a4,s5,12fb4 <_vfprintf_r+0xb80>
   12f56:	87a2                	mv	a5,s0
   12f58:	86a6                	mv	a3,s1
   12f5a:	8456                	mv	s0,s5
   12f5c:	4741                	li	a4,16
   12f5e:	4d1d                	li	s10,7
   12f60:	c2fa                	sw	t5,68(sp)
   12f62:	c4f2                	sw	t3,72(sp)
   12f64:	84f6                	mv	s1,t4
   12f66:	8a96                	mv	s5,t0
   12f68:	a021                	j	12f70 <_vfprintf_r+0xb3c>
   12f6a:	1441                	add	s0,s0,-16
   12f6c:	02875d63          	bge	a4,s0,12fa6 <_vfprintf_r+0xb72>
   12f70:	06c1                	add	a3,a3,16
   12f72:	0605                	add	a2,a2,1
   12f74:	0000a597          	auipc	a1,0xa
   12f78:	15058593          	add	a1,a1,336 # 1d0c4 <zeroes.0>
   12f7c:	c38c                	sw	a1,0(a5)
   12f7e:	c3d8                	sw	a4,4(a5)
   12f80:	d536                	sw	a3,168(sp)
   12f82:	d332                	sw	a2,164(sp)
   12f84:	07a1                	add	a5,a5,8
   12f86:	fecd52e3          	bge	s10,a2,12f6a <_vfprintf_r+0xb36>
   12f8a:	45a2                	lw	a1,8(sp)
   12f8c:	1110                	add	a2,sp,160
   12f8e:	854e                	mv	a0,s3
   12f90:	614010ef          	jal	145a4 <__sprint_r>
   12f94:	fe051463          	bnez	a0,1277c <_vfprintf_r+0x348>
   12f98:	4741                	li	a4,16
   12f9a:	1441                	add	s0,s0,-16
   12f9c:	56aa                	lw	a3,168(sp)
   12f9e:	561a                	lw	a2,164(sp)
   12fa0:	117c                	add	a5,sp,172
   12fa2:	fc8747e3          	blt	a4,s0,12f70 <_vfprintf_r+0xb3c>
   12fa6:	4f16                	lw	t5,68(sp)
   12fa8:	4e26                	lw	t3,72(sp)
   12faa:	8ea6                	mv	t4,s1
   12fac:	82d6                	mv	t0,s5
   12fae:	84b6                	mv	s1,a3
   12fb0:	8aa2                	mv	s5,s0
   12fb2:	843e                	mv	s0,a5
   12fb4:	94d6                	add	s1,s1,s5
   12fb6:	0605                	add	a2,a2,1
   12fb8:	00542023          	sw	t0,0(s0)
   12fbc:	01542223          	sw	s5,4(s0)
   12fc0:	d526                	sw	s1,168(sp)
   12fc2:	d332                	sw	a2,164(sp)
   12fc4:	471d                	li	a4,7
   12fc6:	0421                	add	s0,s0,8
   12fc8:	e6c75463          	bge	a4,a2,12630 <_vfprintf_r+0x1fc>
   12fcc:	45a2                	lw	a1,8(sp)
   12fce:	1110                	add	a2,sp,160
   12fd0:	854e                	mv	a0,s3
   12fd2:	caf6                	sw	t4,84(sp)
   12fd4:	c4f2                	sw	t3,72(sp)
   12fd6:	c2fa                	sw	t5,68(sp)
   12fd8:	5cc010ef          	jal	145a4 <__sprint_r>
   12fdc:	fa051063          	bnez	a0,1277c <_vfprintf_r+0x348>
   12fe0:	54aa                	lw	s1,168(sp)
   12fe2:	4ed6                	lw	t4,84(sp)
   12fe4:	4e26                	lw	t3,72(sp)
   12fe6:	4f16                	lw	t5,68(sp)
   12fe8:	1160                	add	s0,sp,172
   12fea:	e46ff06f          	j	12630 <_vfprintf_r+0x1fc>
   12fee:	5d1a                	lw	s10,164(sp)
   12ff0:	47e2                	lw	a5,24(sp)
   12ff2:	4685                	li	a3,1
   12ff4:	01842023          	sw	s8,0(s0)
   12ff8:	0485                	add	s1,s1,1
   12ffa:	0d05                	add	s10,s10,1
   12ffc:	00840a93          	add	s5,s0,8
   13000:	1cf6d363          	bge	a3,a5,131c6 <_vfprintf_r+0xd92>
   13004:	4685                	li	a3,1
   13006:	c054                	sw	a3,4(s0)
   13008:	d526                	sw	s1,168(sp)
   1300a:	d36a                	sw	s10,164(sp)
   1300c:	469d                	li	a3,7
   1300e:	59a6c663          	blt	a3,s10,1359a <_vfprintf_r+0x1166>
   13012:	57c2                	lw	a5,48(sp)
   13014:	5752                	lw	a4,52(sp)
   13016:	0d05                	add	s10,s10,1
   13018:	94be                	add	s1,s1,a5
   1301a:	00eaa023          	sw	a4,0(s5)
   1301e:	00faa223          	sw	a5,4(s5)
   13022:	d526                	sw	s1,168(sp)
   13024:	d36a                	sw	s10,164(sp)
   13026:	469d                	li	a3,7
   13028:	0aa1                	add	s5,s5,8
   1302a:	55a6c863          	blt	a3,s10,1357a <_vfprintf_r+0x1146>
   1302e:	5622                	lw	a2,40(sp)
   13030:	56b2                	lw	a3,44(sp)
   13032:	47e2                	lw	a5,24(sp)
   13034:	8532                	mv	a0,a2
   13036:	85b6                	mv	a1,a3
   13038:	4601                	li	a2,0
   1303a:	4681                	li	a3,0
   1303c:	d276                	sw	t4,36(sp)
   1303e:	d07a                	sw	t5,32(sp)
   13040:	fff78413          	add	s0,a5,-1
   13044:	7e0080ef          	jal	1b824 <__eqdf2>
   13048:	5f02                	lw	t5,32(sp)
   1304a:	5e92                	lw	t4,36(sp)
   1304c:	1a050763          	beqz	a0,131fa <_vfprintf_r+0xdc6>
   13050:	001c0793          	add	a5,s8,1
   13054:	0d05                	add	s10,s10,1
   13056:	94a2                	add	s1,s1,s0
   13058:	00faa023          	sw	a5,0(s5)
   1305c:	008aa223          	sw	s0,4(s5)
   13060:	d526                	sw	s1,168(sp)
   13062:	d36a                	sw	s10,164(sp)
   13064:	479d                	li	a5,7
   13066:	0aa1                	add	s5,s5,8
   13068:	73a7cf63          	blt	a5,s10,137a6 <_vfprintf_r+0x1372>
   1306c:	4706                	lw	a4,64(sp)
   1306e:	013c                	add	a5,sp,136
   13070:	0d05                	add	s10,s10,1
   13072:	94ba                	add	s1,s1,a4
   13074:	00faa023          	sw	a5,0(s5)
   13078:	00eaa223          	sw	a4,4(s5)
   1307c:	d526                	sw	s1,168(sp)
   1307e:	d36a                	sw	s10,164(sp)
   13080:	479d                	li	a5,7
   13082:	008a8413          	add	s0,s5,8
   13086:	dda7d663          	bge	a5,s10,12652 <_vfprintf_r+0x21e>
   1308a:	45a2                	lw	a1,8(sp)
   1308c:	1110                	add	a2,sp,160
   1308e:	854e                	mv	a0,s3
   13090:	d276                	sw	t4,36(sp)
   13092:	d07a                	sw	t5,32(sp)
   13094:	510010ef          	jal	145a4 <__sprint_r>
   13098:	ee051263          	bnez	a0,1277c <_vfprintf_r+0x348>
   1309c:	54aa                	lw	s1,168(sp)
   1309e:	5e92                	lw	t4,36(sp)
   130a0:	5f02                	lw	t5,32(sp)
   130a2:	1160                	add	s0,sp,172
   130a4:	daeff06f          	j	12652 <_vfprintf_r+0x21e>
   130a8:	45a2                	lw	a1,8(sp)
   130aa:	1110                	add	a2,sp,160
   130ac:	854e                	mv	a0,s3
   130ae:	cc9a                	sw	t1,88(sp)
   130b0:	caf6                	sw	t4,84(sp)
   130b2:	c4f2                	sw	t3,72(sp)
   130b4:	c2fa                	sw	t5,68(sp)
   130b6:	4ee010ef          	jal	145a4 <__sprint_r>
   130ba:	ec051163          	bnez	a0,1277c <_vfprintf_r+0x348>
   130be:	54aa                	lw	s1,168(sp)
   130c0:	4366                	lw	t1,88(sp)
   130c2:	4ed6                	lw	t4,84(sp)
   130c4:	4e26                	lw	t3,72(sp)
   130c6:	4f16                	lw	t5,68(sp)
   130c8:	1160                	add	s0,sp,172
   130ca:	d56ff06f          	j	12620 <_vfprintf_r+0x1ec>
   130ce:	5676                	lw	a2,124(sp)
   130d0:	22c05763          	blez	a2,132fe <_vfprintf_r+0xeca>
   130d4:	47e2                	lw	a5,24(sp)
   130d6:	8ad2                	mv	s5,s4
   130d8:	0147d363          	bge	a5,s4,130de <_vfprintf_r+0xcaa>
   130dc:	8abe                	mv	s5,a5
   130de:	03505163          	blez	s5,13100 <_vfprintf_r+0xccc>
   130e2:	569a                	lw	a3,164(sp)
   130e4:	94d6                	add	s1,s1,s5
   130e6:	01842023          	sw	s8,0(s0)
   130ea:	0685                	add	a3,a3,1
   130ec:	01542223          	sw	s5,4(s0)
   130f0:	d526                	sw	s1,168(sp)
   130f2:	d336                	sw	a3,164(sp)
   130f4:	461d                	li	a2,7
   130f6:	0421                	add	s0,s0,8
   130f8:	00d65463          	bge	a2,a3,13100 <_vfprintf_r+0xccc>
   130fc:	7890006f          	j	14084 <_vfprintf_r+0x1c50>
   13100:	fffac693          	not	a3,s5
   13104:	86fd                	sra	a3,a3,0x1f
   13106:	00daf733          	and	a4,s5,a3
   1310a:	40ea0ab3          	sub	s5,s4,a4
   1310e:	015046e3          	bgtz	s5,1391a <_vfprintf_r+0x14e6>
   13112:	400f7713          	and	a4,t5,1024
   13116:	014c0b33          	add	s6,s8,s4
   1311a:	500714e3          	bnez	a4,13e22 <_vfprintf_r+0x19ee>
   1311e:	5d76                	lw	s10,124(sp)
   13120:	47e2                	lw	a5,24(sp)
   13122:	3efd4d63          	blt	s10,a5,1351c <_vfprintf_r+0x10e8>
   13126:	001f7713          	and	a4,t5,1
   1312a:	3e071963          	bnez	a4,1351c <_vfprintf_r+0x10e8>
   1312e:	4762                	lw	a4,24(sp)
   13130:	00ec07b3          	add	a5,s8,a4
   13134:	41a70d33          	sub	s10,a4,s10
   13138:	41678ab3          	sub	s5,a5,s6
   1313c:	015d5363          	bge	s10,s5,13142 <_vfprintf_r+0xd0e>
   13140:	8aea                	mv	s5,s10
   13142:	03505163          	blez	s5,13164 <_vfprintf_r+0xd30>
   13146:	571a                	lw	a4,164(sp)
   13148:	94d6                	add	s1,s1,s5
   1314a:	01642023          	sw	s6,0(s0)
   1314e:	0705                	add	a4,a4,1
   13150:	01542223          	sw	s5,4(s0)
   13154:	d526                	sw	s1,168(sp)
   13156:	d33a                	sw	a4,164(sp)
   13158:	469d                	li	a3,7
   1315a:	0421                	add	s0,s0,8
   1315c:	00e6d463          	bge	a3,a4,13164 <_vfprintf_r+0xd30>
   13160:	75d0006f          	j	140bc <_vfprintf_r+0x1c88>
   13164:	fffac713          	not	a4,s5
   13168:	877d                	sra	a4,a4,0x1f
   1316a:	00eaf7b3          	and	a5,s5,a4
   1316e:	40fd0d33          	sub	s10,s10,a5
   13172:	cfa05063          	blez	s10,12652 <_vfprintf_r+0x21e>
   13176:	4741                	li	a4,16
   13178:	579a                	lw	a5,164(sp)
   1317a:	0000a297          	auipc	t0,0xa
   1317e:	f4a28293          	add	t0,t0,-182 # 1d0c4 <zeroes.0>
   13182:	75a75c63          	bge	a4,s10,138da <_vfprintf_r+0x14a6>
   13186:	8726                	mv	a4,s1
   13188:	4b41                	li	s6,16
   1318a:	4a9d                	li	s5,7
   1318c:	8c7a                	mv	s8,t5
   1318e:	84f6                	mv	s1,t4
   13190:	8a16                	mv	s4,t0
   13192:	a021                	j	1319a <_vfprintf_r+0xd66>
   13194:	1d41                	add	s10,s10,-16
   13196:	73ab5e63          	bge	s6,s10,138d2 <_vfprintf_r+0x149e>
   1319a:	0741                	add	a4,a4,16
   1319c:	0785                	add	a5,a5,1
   1319e:	01442023          	sw	s4,0(s0)
   131a2:	01642223          	sw	s6,4(s0)
   131a6:	d53a                	sw	a4,168(sp)
   131a8:	d33e                	sw	a5,164(sp)
   131aa:	0421                	add	s0,s0,8
   131ac:	fefad4e3          	bge	s5,a5,13194 <_vfprintf_r+0xd60>
   131b0:	45a2                	lw	a1,8(sp)
   131b2:	1110                	add	a2,sp,160
   131b4:	854e                	mv	a0,s3
   131b6:	3ee010ef          	jal	145a4 <__sprint_r>
   131ba:	dc051163          	bnez	a0,1277c <_vfprintf_r+0x348>
   131be:	572a                	lw	a4,168(sp)
   131c0:	579a                	lw	a5,164(sp)
   131c2:	1160                	add	s0,sp,172
   131c4:	bfc1                	j	13194 <_vfprintf_r+0xd60>
   131c6:	001f7613          	and	a2,t5,1
   131ca:	e2061de3          	bnez	a2,13004 <_vfprintf_r+0xbd0>
   131ce:	c054                	sw	a3,4(s0)
   131d0:	d526                	sw	s1,168(sp)
   131d2:	d36a                	sw	s10,164(sp)
   131d4:	479d                	li	a5,7
   131d6:	e9a7dbe3          	bge	a5,s10,1306c <_vfprintf_r+0xc38>
   131da:	45a2                	lw	a1,8(sp)
   131dc:	1110                	add	a2,sp,160
   131de:	854e                	mv	a0,s3
   131e0:	d276                	sw	t4,36(sp)
   131e2:	d07a                	sw	t5,32(sp)
   131e4:	3c0010ef          	jal	145a4 <__sprint_r>
   131e8:	d8051a63          	bnez	a0,1277c <_vfprintf_r+0x348>
   131ec:	54aa                	lw	s1,168(sp)
   131ee:	5d1a                	lw	s10,164(sp)
   131f0:	5e92                	lw	t4,36(sp)
   131f2:	5f02                	lw	t5,32(sp)
   131f4:	0ac10a93          	add	s5,sp,172
   131f8:	bd95                	j	1306c <_vfprintf_r+0xc38>
   131fa:	4762                	lw	a4,24(sp)
   131fc:	4785                	li	a5,1
   131fe:	e6e7d7e3          	bge	a5,a4,1306c <_vfprintf_r+0xc38>
   13202:	47c5                	li	a5,17
   13204:	0000a297          	auipc	t0,0xa
   13208:	ec028293          	add	t0,t0,-320 # 1d0c4 <zeroes.0>
   1320c:	70e7d163          	bge	a5,a4,1390e <_vfprintf_r+0x14da>
   13210:	8a22                	mv	s4,s0
   13212:	87a6                	mv	a5,s1
   13214:	4c41                	li	s8,16
   13216:	4b1d                	li	s6,7
   13218:	d07a                	sw	t5,32(sp)
   1321a:	84f6                	mv	s1,t4
   1321c:	8416                	mv	s0,t0
   1321e:	a021                	j	13226 <_vfprintf_r+0xdf2>
   13220:	1a41                	add	s4,s4,-16
   13222:	6f4c5163          	bge	s8,s4,13904 <_vfprintf_r+0x14d0>
   13226:	07c1                	add	a5,a5,16
   13228:	0d05                	add	s10,s10,1
   1322a:	008aa023          	sw	s0,0(s5)
   1322e:	018aa223          	sw	s8,4(s5)
   13232:	d53e                	sw	a5,168(sp)
   13234:	d36a                	sw	s10,164(sp)
   13236:	0aa1                	add	s5,s5,8
   13238:	ffab54e3          	bge	s6,s10,13220 <_vfprintf_r+0xdec>
   1323c:	45a2                	lw	a1,8(sp)
   1323e:	1110                	add	a2,sp,160
   13240:	854e                	mv	a0,s3
   13242:	362010ef          	jal	145a4 <__sprint_r>
   13246:	d2051b63          	bnez	a0,1277c <_vfprintf_r+0x348>
   1324a:	57aa                	lw	a5,168(sp)
   1324c:	5d1a                	lw	s10,164(sp)
   1324e:	0ac10a93          	add	s5,sp,172
   13252:	b7f9                	j	13220 <_vfprintf_r+0xdec>
   13254:	4752                	lw	a4,20(sp)
   13256:	010f7793          	and	a5,t5,16
   1325a:	4304                	lw	s1,0(a4)
   1325c:	0711                	add	a4,a4,4
   1325e:	ca3a                	sw	a4,20(sp)
   13260:	12079063          	bnez	a5,13380 <_vfprintf_r+0xf4c>
   13264:	040f7793          	and	a5,t5,64
   13268:	10078863          	beqz	a5,13378 <_vfprintf_r+0xf44>
   1326c:	04c2                	sll	s1,s1,0x10
   1326e:	84c1                	sra	s1,s1,0x10
   13270:	41f4dc93          	sra	s9,s1,0x1f
   13274:	87e6                	mv	a5,s9
   13276:	a207d9e3          	bgez	a5,12ca8 <_vfprintf_r+0x874>
   1327a:	009037b3          	snez	a5,s1
   1327e:	41900cb3          	neg	s9,s9
   13282:	40fc8cb3          	sub	s9,s9,a5
   13286:	409004b3          	neg	s1,s1
   1328a:	8d7a                	mv	s10,t5
   1328c:	02d00713          	li	a4,45
   13290:	4785                	li	a5,1
   13292:	ba85                	j	12c02 <_vfprintf_r+0x7ce>
   13294:	4752                	lw	a4,20(sp)
   13296:	010d7793          	and	a5,s10,16
   1329a:	4304                	lw	s1,0(a4)
   1329c:	0711                	add	a4,a4,4
   1329e:	ca3a                	sw	a4,20(sp)
   132a0:	e3f9                	bnez	a5,13366 <_vfprintf_r+0xf32>
   132a2:	040d7793          	and	a5,s10,64
   132a6:	cbdd                	beqz	a5,1335c <_vfprintf_r+0xf28>
   132a8:	04c2                	sll	s1,s1,0x10
   132aa:	80c1                	srl	s1,s1,0x10
   132ac:	4c81                	li	s9,0
   132ae:	4785                	li	a5,1
   132b0:	ba81                	j	12c00 <_vfprintf_r+0x7cc>
   132b2:	4752                	lw	a4,20(sp)
   132b4:	010f7793          	and	a5,t5,16
   132b8:	4304                	lw	s1,0(a4)
   132ba:	0711                	add	a4,a4,4
   132bc:	ca3a                	sw	a4,20(sp)
   132be:	ebdd                	bnez	a5,13374 <_vfprintf_r+0xf40>
   132c0:	040f7793          	and	a5,t5,64
   132c4:	c7c5                	beqz	a5,1336c <_vfprintf_r+0xf38>
   132c6:	04c2                	sll	s1,s1,0x10
   132c8:	80c1                	srl	s1,s1,0x10
   132ca:	4c81                	li	s9,0
   132cc:	b23d                	j	12bfa <_vfprintf_r+0x7c6>
   132ce:	4422                	lw	s0,8(sp)
   132d0:	c63e                	sw	a5,12(sp)
   132d2:	4c28                	lw	a0,88(s0)
   132d4:	e80fe0ef          	jal	11954 <__retarget_lock_acquire_recursive>
   132d8:	00c41703          	lh	a4,12(s0)
   132dc:	47b2                	lw	a5,12(sp)
   132de:	9acff06f          	j	1248a <_vfprintf_r+0x56>
   132e2:	001f7793          	and	a5,t5,1
   132e6:	b6078663          	beqz	a5,12652 <_vfprintf_r+0x21e>
   132ea:	bc59                	j	12d80 <_vfprintf_r+0x94c>
   132ec:	8f52                	mv	t5,s4
   132ee:	8ed6                	mv	t4,s5
   132f0:	835a                	mv	t1,s6
   132f2:	ba41                	j	12c82 <_vfprintf_r+0x84e>
   132f4:	00094e03          	lbu	t3,0(s2)
   132f8:	ca3e                	sw	a5,20(sp)
   132fa:	a64ff06f          	j	1255e <_vfprintf_r+0x12a>
   132fe:	571a                	lw	a4,164(sp)
   13300:	0000a697          	auipc	a3,0xa
   13304:	80c68693          	add	a3,a3,-2036 # 1cb0c <__trunctfdf2+0x30e>
   13308:	c014                	sw	a3,0(s0)
   1330a:	0485                	add	s1,s1,1
   1330c:	4685                	li	a3,1
   1330e:	0705                	add	a4,a4,1
   13310:	c054                	sw	a3,4(s0)
   13312:	d526                	sw	s1,168(sp)
   13314:	d33a                	sw	a4,164(sp)
   13316:	469d                	li	a3,7
   13318:	0421                	add	s0,s0,8
   1331a:	7ae6c463          	blt	a3,a4,13ac2 <_vfprintf_r+0x168e>
   1331e:	e4061363          	bnez	a2,12964 <_vfprintf_r+0x530>
   13322:	47e2                	lw	a5,24(sp)
   13324:	001f7713          	and	a4,t5,1
   13328:	8f5d                	or	a4,a4,a5
   1332a:	b2070463          	beqz	a4,12652 <_vfprintf_r+0x21e>
   1332e:	5752                	lw	a4,52(sp)
   13330:	57c2                	lw	a5,48(sp)
   13332:	469d                	li	a3,7
   13334:	c018                	sw	a4,0(s0)
   13336:	571a                	lw	a4,164(sp)
   13338:	009785b3          	add	a1,a5,s1
   1333c:	c05c                	sw	a5,4(s0)
   1333e:	0705                	add	a4,a4,1
   13340:	d52e                	sw	a1,168(sp)
   13342:	d33a                	sw	a4,164(sp)
   13344:	00e6cfe3          	blt	a3,a4,13b62 <_vfprintf_r+0x172e>
   13348:	0421                	add	s0,s0,8
   1334a:	e42ff06f          	j	1298c <_vfprintf_r+0x558>
   1334e:	03000793          	li	a5,48
   13352:	14f107a3          	sb	a5,335(sp)
   13356:	14f10c13          	add	s8,sp,335
   1335a:	b8c1                	j	12c2a <_vfprintf_r+0x7f6>
   1335c:	200d7793          	and	a5,s10,512
   13360:	c399                	beqz	a5,13366 <_vfprintf_r+0xf32>
   13362:	0ff4f493          	zext.b	s1,s1
   13366:	4c81                	li	s9,0
   13368:	4785                	li	a5,1
   1336a:	b859                	j	12c00 <_vfprintf_r+0x7cc>
   1336c:	200f7793          	and	a5,t5,512
   13370:	78079e63          	bnez	a5,13b0c <_vfprintf_r+0x16d8>
   13374:	4c81                	li	s9,0
   13376:	b051                	j	12bfa <_vfprintf_r+0x7c6>
   13378:	200f7793          	and	a5,t5,512
   1337c:	78079163          	bnez	a5,13afe <_vfprintf_r+0x16ca>
   13380:	41f4dc93          	sra	s9,s1,0x1f
   13384:	87e6                	mv	a5,s9
   13386:	ba39                	j	12ca4 <_vfprintf_r+0x870>
   13388:	57f2                	lw	a5,60(sp)
   1338a:	00094e03          	lbu	t3,0(s2)
   1338e:	9c078863          	beqz	a5,1255e <_vfprintf_r+0x12a>
   13392:	0007c783          	lbu	a5,0(a5)
   13396:	9c078463          	beqz	a5,1255e <_vfprintf_r+0x12a>
   1339a:	400a6a13          	or	s4,s4,1024
   1339e:	9c0ff06f          	j	1255e <_vfprintf_r+0x12a>
   133a2:	47d2                	lw	a5,20(sp)
   133a4:	1088                	add	a0,sp,96
   133a6:	d256                	sw	s5,36(sp)
   133a8:	4398                	lw	a4,0(a5)
   133aa:	d072                	sw	t3,32(sp)
   133ac:	00478a93          	add	s5,a5,4
   133b0:	4314                	lw	a3,0(a4)
   133b2:	c2da                	sw	s6,68(sp)
   133b4:	c852                	sw	s4,16(sp)
   133b6:	d0b6                	sw	a3,96(sp)
   133b8:	4354                	lw	a3,4(a4)
   133ba:	d2b6                	sw	a3,100(sp)
   133bc:	4714                	lw	a3,8(a4)
   133be:	d4b6                	sw	a3,104(sp)
   133c0:	4758                	lw	a4,12(a4)
   133c2:	d6ba                	sw	a4,108(sp)
   133c4:	43a090ef          	jal	1c7fe <__trunctfdf2>
   133c8:	5e02                	lw	t3,32(sp)
   133ca:	5e92                	lw	t4,36(sp)
   133cc:	d42a                	sw	a0,40(sp)
   133ce:	d62e                	sw	a1,44(sp)
   133d0:	ca56                	sw	s5,20(sp)
   133d2:	8f52                	mv	t5,s4
   133d4:	835a                	mv	t1,s6
   133d6:	c32ff06f          	j	12808 <_vfprintf_r+0x3d4>
   133da:	010a7793          	and	a5,s4,16
   133de:	50079d63          	bnez	a5,138f8 <_vfprintf_r+0x14c4>
   133e2:	040a7793          	and	a5,s4,64
   133e6:	70079163          	bnez	a5,13ae8 <_vfprintf_r+0x16b4>
   133ea:	200a7f13          	and	t5,s4,512
   133ee:	500f0563          	beqz	t5,138f8 <_vfprintf_r+0x14c4>
   133f2:	47d2                	lw	a5,20(sp)
   133f4:	4732                	lw	a4,12(sp)
   133f6:	439c                	lw	a5,0(a5)
   133f8:	00e78023          	sb	a4,0(a5)
   133fc:	b235                	j	12d28 <_vfprintf_r+0x8f4>
   133fe:	5b7d                	li	s6,-1
   13400:	8936                	mv	s2,a3
   13402:	95eff06f          	j	12560 <_vfprintf_r+0x12c>
   13406:	8ed6                	mv	t4,s5
   13408:	835a                	mv	t1,s6
   1340a:	8d52                	mv	s10,s4
   1340c:	b081                	j	12c4c <_vfprintf_r+0x818>
   1340e:	00009797          	auipc	a5,0x9
   13412:	6e278793          	add	a5,a5,1762 # 1caf0 <__trunctfdf2+0x2f2>
   13416:	8f52                	mv	t5,s4
   13418:	8ed6                	mv	t4,s5
   1341a:	835a                	mv	t1,s6
   1341c:	dc3e                	sw	a5,56(sp)
   1341e:	020f7793          	and	a5,t5,32
   13422:	12078963          	beqz	a5,13554 <_vfprintf_r+0x1120>
   13426:	47d2                	lw	a5,20(sp)
   13428:	00778a93          	add	s5,a5,7
   1342c:	ff8afa93          	and	s5,s5,-8
   13430:	000aa483          	lw	s1,0(s5)
   13434:	004aac83          	lw	s9,4(s5)
   13438:	008a8793          	add	a5,s5,8
   1343c:	ca3e                	sw	a5,20(sp)
   1343e:	001f7793          	and	a5,t5,1
   13442:	cf81                	beqz	a5,1345a <_vfprintf_r+0x1026>
   13444:	0194e7b3          	or	a5,s1,s9
   13448:	cb89                	beqz	a5,1345a <_vfprintf_r+0x1026>
   1344a:	03000793          	li	a5,48
   1344e:	06f10c23          	sb	a5,120(sp)
   13452:	07c10ca3          	sb	t3,121(sp)
   13456:	002f6f13          	or	t5,t5,2
   1345a:	bfff7d13          	and	s10,t5,-1025
   1345e:	4789                	li	a5,2
   13460:	fa0ff06f          	j	12c00 <_vfprintf_r+0x7cc>
   13464:	00194e03          	lbu	t3,1(s2)
   13468:	020a6a13          	or	s4,s4,32
   1346c:	0905                	add	s2,s2,1
   1346e:	8f0ff06f          	j	1255e <_vfprintf_r+0x12a>
   13472:	00194e03          	lbu	t3,1(s2)
   13476:	200a6a13          	or	s4,s4,512
   1347a:	0905                	add	s2,s2,1
   1347c:	8e2ff06f          	j	1255e <_vfprintf_r+0x12a>
   13480:	00009797          	auipc	a5,0x9
   13484:	65c78793          	add	a5,a5,1628 # 1cadc <__trunctfdf2+0x2de>
   13488:	8f52                	mv	t5,s4
   1348a:	8ed6                	mv	t4,s5
   1348c:	835a                	mv	t1,s6
   1348e:	dc3e                	sw	a5,56(sp)
   13490:	b779                	j	1341e <_vfprintf_r+0xfea>
   13492:	8f52                	mv	t5,s4
   13494:	8ed6                	mv	t4,s5
   13496:	835a                	mv	t1,s6
   13498:	f42ff06f          	j	12bda <_vfprintf_r+0x7a6>
   1349c:	45a2                	lw	a1,8(sp)
   1349e:	1110                	add	a2,sp,160
   134a0:	854e                	mv	a0,s3
   134a2:	d276                	sw	t4,36(sp)
   134a4:	d07a                	sw	t5,32(sp)
   134a6:	0fe010ef          	jal	145a4 <__sprint_r>
   134aa:	ac051963          	bnez	a0,1277c <_vfprintf_r+0x348>
   134ae:	54aa                	lw	s1,168(sp)
   134b0:	5e92                	lw	t4,36(sp)
   134b2:	5f02                	lw	t5,32(sp)
   134b4:	1160                	add	s0,sp,172
   134b6:	b0e5                	j	12d9e <_vfprintf_r+0x96a>
   134b8:	4799                	li	a5,6
   134ba:	8cda                	mv	s9,s6
   134bc:	6367e463          	bltu	a5,s6,13ae4 <_vfprintf_r+0x16b0>
   134c0:	ca56                	sw	s5,20(sp)
   134c2:	c802                	sw	zero,16(sp)
   134c4:	8b66                	mv	s6,s9
   134c6:	4601                	li	a2,0
   134c8:	4301                	li	t1,0
   134ca:	d202                	sw	zero,36(sp)
   134cc:	d002                	sw	zero,32(sp)
   134ce:	4a01                	li	s4,0
   134d0:	00009c17          	auipc	s8,0x9
   134d4:	634c0c13          	add	s8,s8,1588 # 1cb04 <__trunctfdf2+0x306>
   134d8:	8f0ff06f          	j	125c8 <_vfprintf_r+0x194>
   134dc:	4621                	li	a2,8
   134de:	4581                	li	a1,0
   134e0:	0928                	add	a0,sp,152
   134e2:	d276                	sw	t4,36(sp)
   134e4:	d072                	sw	t3,32(sp)
   134e6:	c87a                	sw	t5,16(sp)
   134e8:	c7afe0ef          	jal	11962 <memset>
   134ec:	47d2                	lw	a5,20(sp)
   134ee:	0ec10c13          	add	s8,sp,236
   134f2:	0934                	add	a3,sp,152
   134f4:	4390                	lw	a2,0(a5)
   134f6:	85e2                	mv	a1,s8
   134f8:	854e                	mv	a0,s3
   134fa:	78e060ef          	jal	19c88 <_wcrtomb_r>
   134fe:	57fd                	li	a5,-1
   13500:	4f42                	lw	t5,16(sp)
   13502:	5e02                	lw	t3,32(sp)
   13504:	5e92                	lw	t4,36(sp)
   13506:	8b2a                	mv	s6,a0
   13508:	6ef50ae3          	beq	a0,a5,143fc <_vfprintf_r+0x1fc8>
   1350c:	fff54813          	not	a6,a0
   13510:	41f85813          	sra	a6,a6,0x1f
   13514:	01057cb3          	and	s9,a0,a6
   13518:	d72ff06f          	j	12a8a <_vfprintf_r+0x656>
   1351c:	5752                	lw	a4,52(sp)
   1351e:	57c2                	lw	a5,48(sp)
   13520:	469d                	li	a3,7
   13522:	c018                	sw	a4,0(s0)
   13524:	571a                	lw	a4,164(sp)
   13526:	94be                	add	s1,s1,a5
   13528:	c05c                	sw	a5,4(s0)
   1352a:	0705                	add	a4,a4,1
   1352c:	d526                	sw	s1,168(sp)
   1352e:	d33a                	sw	a4,164(sp)
   13530:	0421                	add	s0,s0,8
   13532:	bee6dee3          	bge	a3,a4,1312e <_vfprintf_r+0xcfa>
   13536:	45a2                	lw	a1,8(sp)
   13538:	1110                	add	a2,sp,160
   1353a:	854e                	mv	a0,s3
   1353c:	d276                	sw	t4,36(sp)
   1353e:	d07a                	sw	t5,32(sp)
   13540:	064010ef          	jal	145a4 <__sprint_r>
   13544:	a2051c63          	bnez	a0,1277c <_vfprintf_r+0x348>
   13548:	5d76                	lw	s10,124(sp)
   1354a:	54aa                	lw	s1,168(sp)
   1354c:	5e92                	lw	t4,36(sp)
   1354e:	5f02                	lw	t5,32(sp)
   13550:	1160                	add	s0,sp,172
   13552:	bef1                	j	1312e <_vfprintf_r+0xcfa>
   13554:	4752                	lw	a4,20(sp)
   13556:	010f7793          	and	a5,t5,16
   1355a:	4304                	lw	s1,0(a4)
   1355c:	0711                	add	a4,a4,4
   1355e:	ca3a                	sw	a4,20(sp)
   13560:	e3ad                	bnez	a5,135c2 <_vfprintf_r+0x118e>
   13562:	040f7793          	and	a5,t5,64
   13566:	cbb1                	beqz	a5,135ba <_vfprintf_r+0x1186>
   13568:	04c2                	sll	s1,s1,0x10
   1356a:	80c1                	srl	s1,s1,0x10
   1356c:	4c81                	li	s9,0
   1356e:	bdc1                	j	1343e <_vfprintf_r+0x100a>
   13570:	4b01                	li	s6,0
   13572:	15010c13          	add	s8,sp,336
   13576:	eb4ff06f          	j	12c2a <_vfprintf_r+0x7f6>
   1357a:	45a2                	lw	a1,8(sp)
   1357c:	1110                	add	a2,sp,160
   1357e:	854e                	mv	a0,s3
   13580:	d276                	sw	t4,36(sp)
   13582:	d07a                	sw	t5,32(sp)
   13584:	020010ef          	jal	145a4 <__sprint_r>
   13588:	9e051a63          	bnez	a0,1277c <_vfprintf_r+0x348>
   1358c:	54aa                	lw	s1,168(sp)
   1358e:	5d1a                	lw	s10,164(sp)
   13590:	5e92                	lw	t4,36(sp)
   13592:	5f02                	lw	t5,32(sp)
   13594:	0ac10a93          	add	s5,sp,172
   13598:	bc59                	j	1302e <_vfprintf_r+0xbfa>
   1359a:	45a2                	lw	a1,8(sp)
   1359c:	1110                	add	a2,sp,160
   1359e:	854e                	mv	a0,s3
   135a0:	d276                	sw	t4,36(sp)
   135a2:	d07a                	sw	t5,32(sp)
   135a4:	000010ef          	jal	145a4 <__sprint_r>
   135a8:	9c051a63          	bnez	a0,1277c <_vfprintf_r+0x348>
   135ac:	54aa                	lw	s1,168(sp)
   135ae:	5d1a                	lw	s10,164(sp)
   135b0:	5e92                	lw	t4,36(sp)
   135b2:	5f02                	lw	t5,32(sp)
   135b4:	0ac10a93          	add	s5,sp,172
   135b8:	bca9                	j	13012 <_vfprintf_r+0xbde>
   135ba:	200f7793          	and	a5,t5,512
   135be:	52079c63          	bnez	a5,13af6 <_vfprintf_r+0x16c2>
   135c2:	4c81                	li	s9,0
   135c4:	bdad                	j	1343e <_vfprintf_r+0x100a>
   135c6:	ccccdb37          	lui	s6,0xccccd
   135ca:	ccccdab7          	lui	s5,0xccccd
   135ce:	5772                	lw	a4,60(sp)
   135d0:	400d7f13          	and	t5,s10,1024
   135d4:	4581                	li	a1,0
   135d6:	0a90                	add	a2,sp,336
   135d8:	4895                	li	a7,5
   135da:	ccdb0b13          	add	s6,s6,-819 # cccccccd <__BSS_END__+0xcccadf49>
   135de:	ccca8a93          	add	s5,s5,-820 # cccccccc <__BSS_END__+0xcccadf48>
   135e2:	0ff00a13          	li	s4,255
   135e6:	a081                	j	13626 <_vfprintf_r+0x11f2>
   135e8:	009c37b3          	sltu	a5,s8,s1
   135ec:	97e2                	add	a5,a5,s8
   135ee:	0317f7b3          	remu	a5,a5,a7
   135f2:	40f487b3          	sub	a5,s1,a5
   135f6:	00f4b633          	sltu	a2,s1,a5
   135fa:	40cc8633          	sub	a2,s9,a2
   135fe:	03578833          	mul	a6,a5,s5
   13602:	03660633          	mul	a2,a2,s6
   13606:	0367b533          	mulhu	a0,a5,s6
   1360a:	9642                	add	a2,a2,a6
   1360c:	036787b3          	mul	a5,a5,s6
   13610:	962a                	add	a2,a2,a0
   13612:	01f61513          	sll	a0,a2,0x1f
   13616:	8205                	srl	a2,a2,0x1
   13618:	8385                	srl	a5,a5,0x1
   1361a:	8fc9                	or	a5,a5,a0
   1361c:	280c83e3          	beqz	s9,140a2 <_vfprintf_r+0x1c6e>
   13620:	8cb2                	mv	s9,a2
   13622:	84be                	mv	s1,a5
   13624:	8636                	mv	a2,a3
   13626:	01948c33          	add	s8,s1,s9
   1362a:	009c37b3          	sltu	a5,s8,s1
   1362e:	97e2                	add	a5,a5,s8
   13630:	0317f7b3          	remu	a5,a5,a7
   13634:	fff60693          	add	a3,a2,-1
   13638:	0585                	add	a1,a1,1
   1363a:	40f487b3          	sub	a5,s1,a5
   1363e:	00f4b533          	sltu	a0,s1,a5
   13642:	40ac8533          	sub	a0,s9,a0
   13646:	0367b833          	mulhu	a6,a5,s6
   1364a:	03650533          	mul	a0,a0,s6
   1364e:	036787b3          	mul	a5,a5,s6
   13652:	9542                	add	a0,a0,a6
   13654:	057e                	sll	a0,a0,0x1f
   13656:	8385                	srl	a5,a5,0x1
   13658:	8fc9                	or	a5,a5,a0
   1365a:	00279513          	sll	a0,a5,0x2
   1365e:	97aa                	add	a5,a5,a0
   13660:	0786                	sll	a5,a5,0x1
   13662:	40f487b3          	sub	a5,s1,a5
   13666:	03078793          	add	a5,a5,48
   1366a:	fef60fa3          	sb	a5,-1(a2)
   1366e:	f60f0de3          	beqz	t5,135e8 <_vfprintf_r+0x11b4>
   13672:	00074783          	lbu	a5,0(a4)
   13676:	f6f599e3          	bne	a1,a5,135e8 <_vfprintf_r+0x11b4>
   1367a:	f74587e3          	beq	a1,s4,135e8 <_vfprintf_r+0x11b4>
   1367e:	140c98e3          	bnez	s9,13fce <_vfprintf_r+0x1b9a>
   13682:	47a5                	li	a5,9
   13684:	1497e5e3          	bltu	a5,s1,13fce <_vfprintf_r+0x1b9a>
   13688:	8c36                	mv	s8,a3
   1368a:	0a9c                	add	a5,sp,336
   1368c:	de3a                	sw	a4,60(sp)
   1368e:	cc2e                	sw	a1,24(sp)
   13690:	41878b33          	sub	s6,a5,s8
   13694:	8f6a                	mv	t5,s10
   13696:	d94ff06f          	j	12c2a <_vfprintf_r+0x7f6>
   1369a:	45a2                	lw	a1,8(sp)
   1369c:	1110                	add	a2,sp,160
   1369e:	854e                	mv	a0,s3
   136a0:	ce9a                	sw	t1,92(sp)
   136a2:	ccf6                	sw	t4,88(sp)
   136a4:	caf2                	sw	t3,84(sp)
   136a6:	c4fa                	sw	t5,72(sp)
   136a8:	c296                	sw	t0,68(sp)
   136aa:	6fb000ef          	jal	145a4 <__sprint_r>
   136ae:	8c051763          	bnez	a0,1277c <_vfprintf_r+0x348>
   136b2:	07714603          	lbu	a2,119(sp)
   136b6:	54aa                	lw	s1,168(sp)
   136b8:	4376                	lw	t1,92(sp)
   136ba:	4ee6                	lw	t4,88(sp)
   136bc:	4e56                	lw	t3,84(sp)
   136be:	4f26                	lw	t5,72(sp)
   136c0:	4296                	lw	t0,68(sp)
   136c2:	1160                	add	s0,sp,172
   136c4:	f21fe06f          	j	125e4 <_vfprintf_r+0x1b0>
   136c8:	854e                	mv	a0,s3
   136ca:	e85fd0ef          	jal	1154e <__sinit>
   136ce:	47b2                	lw	a5,12(sp)
   136d0:	da7fe06f          	j	12476 <_vfprintf_r+0x42>
   136d4:	58a2                	lw	a7,40(sp)
   136d6:	5732                	lw	a4,44(sp)
   136d8:	c29a                	sw	t1,68(sp)
   136da:	8646                	mv	a2,a7
   136dc:	8546                	mv	a0,a7
   136de:	86ba                	mv	a3,a4
   136e0:	85ba                	mv	a1,a4
   136e2:	d276                	sw	t4,36(sp)
   136e4:	d072                	sw	t3,32(sp)
   136e6:	c87a                	sw	t5,16(sp)
   136e8:	795080ef          	jal	1c67c <__unorddf2>
   136ec:	4f42                	lw	t5,16(sp)
   136ee:	5e02                	lw	t3,32(sp)
   136f0:	5e92                	lw	t4,36(sp)
   136f2:	4316                	lw	t1,68(sp)
   136f4:	380515e3          	bnez	a0,1427e <_vfprintf_r+0x1e4a>
   136f8:	06100713          	li	a4,97
   136fc:	06ee0263          	beq	t3,a4,13760 <_vfprintf_r+0x132c>
   13700:	04100713          	li	a4,65
   13704:	05800793          	li	a5,88
   13708:	04ee0e63          	beq	t3,a4,13764 <_vfprintf_r+0x1330>
   1370c:	577d                	li	a4,-1
   1370e:	34e303e3          	beq	t1,a4,14254 <_vfprintf_r+0x1e20>
   13712:	fdfe7713          	and	a4,t3,-33
   13716:	04700693          	li	a3,71
   1371a:	c802                	sw	zero,16(sp)
   1371c:	00d71563          	bne	a4,a3,13726 <_vfprintf_r+0x12f2>
   13720:	00031363          	bnez	t1,13726 <_vfprintf_r+0x12f2>
   13724:	4305                	li	t1,1
   13726:	100f6793          	or	a5,t5,256
   1372a:	8abe                	mv	s5,a5
   1372c:	57b2                	lw	a5,44(sp)
   1372e:	c282                	sw	zero,68(sp)
   13730:	84be                	mv	s1,a5
   13732:	0007d863          	bgez	a5,13742 <_vfprintf_r+0x130e>
   13736:	800004b7          	lui	s1,0x80000
   1373a:	8cbd                	xor	s1,s1,a5
   1373c:	02d00793          	li	a5,45
   13740:	c2be                	sw	a5,68(sp)
   13742:	fbfe0713          	add	a4,t3,-65
   13746:	02500693          	li	a3,37
   1374a:	26e6e463          	bltu	a3,a4,139b2 <_vfprintf_r+0x157e>
   1374e:	0000a697          	auipc	a3,0xa
   13752:	8de68693          	add	a3,a3,-1826 # 1d02c <__clz_tab+0x26c>
   13756:	070a                	sll	a4,a4,0x2
   13758:	9736                	add	a4,a4,a3
   1375a:	4318                	lw	a4,0(a4)
   1375c:	9736                	add	a4,a4,a3
   1375e:	8702                	jr	a4
   13760:	07800793          	li	a5,120
   13764:	03000713          	li	a4,48
   13768:	06e10c23          	sb	a4,120(sp)
   1376c:	06f10ca3          	sb	a5,121(sp)
   13770:	06300713          	li	a4,99
   13774:	c802                	sw	zero,16(sp)
   13776:	002f6f13          	or	t5,t5,2
   1377a:	0ec10c13          	add	s8,sp,236
   1377e:	fa6754e3          	bge	a4,t1,13726 <_vfprintf_r+0x12f2>
   13782:	00130593          	add	a1,t1,1
   13786:	854e                	mv	a0,s3
   13788:	d276                	sw	t4,36(sp)
   1378a:	d072                	sw	t3,32(sp)
   1378c:	cc7a                	sw	t5,24(sp)
   1378e:	c81a                	sw	t1,16(sp)
   13790:	ee6fe0ef          	jal	11e76 <_malloc_r>
   13794:	4342                	lw	t1,16(sp)
   13796:	4f62                	lw	t5,24(sp)
   13798:	5e02                	lw	t3,32(sp)
   1379a:	5e92                	lw	t4,36(sp)
   1379c:	8c2a                	mv	s8,a0
   1379e:	44050fe3          	beqz	a0,143fc <_vfprintf_r+0x1fc8>
   137a2:	c82a                	sw	a0,16(sp)
   137a4:	b749                	j	13726 <_vfprintf_r+0x12f2>
   137a6:	45a2                	lw	a1,8(sp)
   137a8:	1110                	add	a2,sp,160
   137aa:	854e                	mv	a0,s3
   137ac:	d276                	sw	t4,36(sp)
   137ae:	d07a                	sw	t5,32(sp)
   137b0:	5f5000ef          	jal	145a4 <__sprint_r>
   137b4:	c119                	beqz	a0,137ba <_vfprintf_r+0x1386>
   137b6:	fc7fe06f          	j	1277c <_vfprintf_r+0x348>
   137ba:	54aa                	lw	s1,168(sp)
   137bc:	5d1a                	lw	s10,164(sp)
   137be:	5f02                	lw	t5,32(sp)
   137c0:	5e92                	lw	t4,36(sp)
   137c2:	0ac10a93          	add	s5,sp,172
   137c6:	b05d                	j	1306c <_vfprintf_r+0xc38>
   137c8:	45a2                	lw	a1,8(sp)
   137ca:	1110                	add	a2,sp,160
   137cc:	854e                	mv	a0,s3
   137ce:	d276                	sw	t4,36(sp)
   137d0:	d07a                	sw	t5,32(sp)
   137d2:	5d3000ef          	jal	145a4 <__sprint_r>
   137d6:	c119                	beqz	a0,137dc <_vfprintf_r+0x13a8>
   137d8:	fa5fe06f          	j	1277c <_vfprintf_r+0x348>
   137dc:	54aa                	lw	s1,168(sp)
   137de:	5e92                	lw	t4,36(sp)
   137e0:	5f02                	lw	t5,32(sp)
   137e2:	1160                	add	s0,sp,172
   137e4:	d94ff06f          	j	12d78 <_vfprintf_r+0x944>
   137e8:	4621                	li	a2,8
   137ea:	4581                	li	a1,0
   137ec:	0928                	add	a0,sp,152
   137ee:	d21a                	sw	t1,36(sp)
   137f0:	d076                	sw	t4,32(sp)
   137f2:	ca72                	sw	t3,20(sp)
   137f4:	c87a                	sw	t5,16(sp)
   137f6:	c362                	sw	s8,132(sp)
   137f8:	96afe0ef          	jal	11962 <memset>
   137fc:	5312                	lw	t1,36(sp)
   137fe:	4f42                	lw	t5,16(sp)
   13800:	4e52                	lw	t3,20(sp)
   13802:	5e82                	lw	t4,32(sp)
   13804:	5e034c63          	bltz	t1,13dfc <_vfprintf_r+0x19c8>
   13808:	4b01                	li	s6,0
   1380a:	c84a                	sw	s2,16(sp)
   1380c:	4c81                	li	s9,0
   1380e:	895a                	mv	s2,s6
   13810:	54fd                	li	s1,-1
   13812:	8b56                	mv	s6,s5
   13814:	8a7a                	mv	s4,t5
   13816:	8aa2                	mv	s5,s0
   13818:	8d72                	mv	s10,t3
   1381a:	ca76                	sw	t4,20(sp)
   1381c:	841a                	mv	s0,t1
   1381e:	a005                	j	1383e <_vfprintf_r+0x140a>
   13820:	0934                	add	a3,sp,152
   13822:	11ec                	add	a1,sp,236
   13824:	854e                	mv	a0,s3
   13826:	462060ef          	jal	19c88 <_wcrtomb_r>
   1382a:	229509e3          	beq	a0,s1,1425c <_vfprintf_r+0x1e28>
   1382e:	00a907b3          	add	a5,s2,a0
   13832:	00f44a63          	blt	s0,a5,13846 <_vfprintf_r+0x1412>
   13836:	0c91                	add	s9,s9,4
   13838:	2c878de3          	beq	a5,s0,14312 <_vfprintf_r+0x1ede>
   1383c:	893e                	mv	s2,a5
   1383e:	479a                	lw	a5,132(sp)
   13840:	97e6                	add	a5,a5,s9
   13842:	4390                	lw	a2,0(a5)
   13844:	fe71                	bnez	a2,13820 <_vfprintf_r+0x13ec>
   13846:	8456                	mv	s0,s5
   13848:	4ed2                	lw	t4,20(sp)
   1384a:	8ada                	mv	s5,s6
   1384c:	8b4a                	mv	s6,s2
   1384e:	4942                	lw	s2,16(sp)
   13850:	8f52                	mv	t5,s4
   13852:	8e6a                	mv	t3,s10
   13854:	7e0b0c63          	beqz	s6,1404c <_vfprintf_r+0x1c18>
   13858:	06300793          	li	a5,99
   1385c:	0f67d6e3          	bge	a5,s6,14148 <_vfprintf_r+0x1d14>
   13860:	001b0593          	add	a1,s6,1
   13864:	854e                	mv	a0,s3
   13866:	d076                	sw	t4,32(sp)
   13868:	ca72                	sw	t3,20(sp)
   1386a:	c87a                	sw	t5,16(sp)
   1386c:	e0afe0ef          	jal	11e76 <_malloc_r>
   13870:	4f42                	lw	t5,16(sp)
   13872:	4e52                	lw	t3,20(sp)
   13874:	5e82                	lw	t4,32(sp)
   13876:	8c2a                	mv	s8,a0
   13878:	1e0502e3          	beqz	a0,1425c <_vfprintf_r+0x1e28>
   1387c:	c82a                	sw	a0,16(sp)
   1387e:	4621                	li	a2,8
   13880:	4581                	li	a1,0
   13882:	0928                	add	a0,sp,152
   13884:	d276                	sw	t4,36(sp)
   13886:	d072                	sw	t3,32(sp)
   13888:	ca7a                	sw	t5,20(sp)
   1388a:	8d8fe0ef          	jal	11962 <memset>
   1388e:	0938                	add	a4,sp,152
   13890:	86da                	mv	a3,s6
   13892:	0150                	add	a2,sp,132
   13894:	85e2                	mv	a1,s8
   13896:	854e                	mv	a0,s3
   13898:	49e060ef          	jal	19d36 <_wcsrtombs_r>
   1389c:	4f52                	lw	t5,20(sp)
   1389e:	5e02                	lw	t3,32(sp)
   138a0:	5e92                	lw	t4,36(sp)
   138a2:	36ab1ae3          	bne	s6,a0,14416 <_vfprintf_r+0x1fe2>
   138a6:	016c0733          	add	a4,s8,s6
   138aa:	00070023          	sb	zero,0(a4)
   138ae:	07714603          	lbu	a2,119(sp)
   138b2:	fffb4813          	not	a6,s6
   138b6:	41f85813          	sra	a6,a6,0x1f
   138ba:	ca56                	sw	s5,20(sp)
   138bc:	d202                	sw	zero,36(sp)
   138be:	d002                	sw	zero,32(sp)
   138c0:	010b7cb3          	and	s9,s6,a6
   138c4:	4301                	li	t1,0
   138c6:	4a01                	li	s4,0
   138c8:	e219                	bnez	a2,138ce <_vfprintf_r+0x149a>
   138ca:	cfffe06f          	j	125c8 <_vfprintf_r+0x194>
   138ce:	fd9fe06f          	j	128a6 <_vfprintf_r+0x472>
   138d2:	8ea6                	mv	t4,s1
   138d4:	8f62                	mv	t5,s8
   138d6:	84ba                	mv	s1,a4
   138d8:	82d2                	mv	t0,s4
   138da:	00542023          	sw	t0,0(s0)
   138de:	01a42223          	sw	s10,4(s0)
   138e2:	94ea                	add	s1,s1,s10
   138e4:	0785                	add	a5,a5,1
   138e6:	d526                	sw	s1,168(sp)
   138e8:	d33e                	sw	a5,164(sp)
   138ea:	471d                	li	a4,7
   138ec:	00f74463          	blt	a4,a5,138f4 <_vfprintf_r+0x14c0>
   138f0:	d61fe06f          	j	12650 <_vfprintf_r+0x21c>
   138f4:	8b0ff06f          	j	129a4 <_vfprintf_r+0x570>
   138f8:	47d2                	lw	a5,20(sp)
   138fa:	4732                	lw	a4,12(sp)
   138fc:	439c                	lw	a5,0(a5)
   138fe:	c398                	sw	a4,0(a5)
   13900:	c28ff06f          	j	12d28 <_vfprintf_r+0x8f4>
   13904:	5f02                	lw	t5,32(sp)
   13906:	8ea6                	mv	t4,s1
   13908:	82a2                	mv	t0,s0
   1390a:	84be                	mv	s1,a5
   1390c:	8452                	mv	s0,s4
   1390e:	94a2                	add	s1,s1,s0
   13910:	0d05                	add	s10,s10,1
   13912:	005aa023          	sw	t0,0(s5)
   13916:	f46ff06f          	j	1305c <_vfprintf_r+0xc28>
   1391a:	4641                	li	a2,16
   1391c:	569a                	lw	a3,164(sp)
   1391e:	00009297          	auipc	t0,0x9
   13922:	7a628293          	add	t0,t0,1958 # 1d0c4 <zeroes.0>
   13926:	05565a63          	bge	a2,s5,1397a <_vfprintf_r+0x1546>
   1392a:	87a2                	mv	a5,s0
   1392c:	8726                	mv	a4,s1
   1392e:	4d22                	lw	s10,8(sp)
   13930:	48c1                	li	a7,16
   13932:	4b1d                	li	s6,7
   13934:	c2fa                	sw	t5,68(sp)
   13936:	84f6                	mv	s1,t4
   13938:	8416                	mv	s0,t0
   1393a:	a021                	j	13942 <_vfprintf_r+0x150e>
   1393c:	1ac1                	add	s5,s5,-16
   1393e:	0358d963          	bge	a7,s5,13970 <_vfprintf_r+0x153c>
   13942:	0741                	add	a4,a4,16
   13944:	0685                	add	a3,a3,1
   13946:	c380                	sw	s0,0(a5)
   13948:	0117a223          	sw	a7,4(a5)
   1394c:	d53a                	sw	a4,168(sp)
   1394e:	d336                	sw	a3,164(sp)
   13950:	07a1                	add	a5,a5,8
   13952:	fedb55e3          	bge	s6,a3,1393c <_vfprintf_r+0x1508>
   13956:	1110                	add	a2,sp,160
   13958:	85ea                	mv	a1,s10
   1395a:	854e                	mv	a0,s3
   1395c:	449000ef          	jal	145a4 <__sprint_r>
   13960:	c119                	beqz	a0,13966 <_vfprintf_r+0x1532>
   13962:	e1bfe06f          	j	1277c <_vfprintf_r+0x348>
   13966:	572a                	lw	a4,168(sp)
   13968:	569a                	lw	a3,164(sp)
   1396a:	117c                	add	a5,sp,172
   1396c:	48c1                	li	a7,16
   1396e:	b7f9                	j	1393c <_vfprintf_r+0x1508>
   13970:	4f16                	lw	t5,68(sp)
   13972:	8ea6                	mv	t4,s1
   13974:	82a2                	mv	t0,s0
   13976:	84ba                	mv	s1,a4
   13978:	843e                	mv	s0,a5
   1397a:	94d6                	add	s1,s1,s5
   1397c:	0685                	add	a3,a3,1
   1397e:	00542023          	sw	t0,0(s0)
   13982:	01542223          	sw	s5,4(s0)
   13986:	d526                	sw	s1,168(sp)
   13988:	d336                	sw	a3,164(sp)
   1398a:	471d                	li	a4,7
   1398c:	0421                	add	s0,s0,8
   1398e:	f8d75263          	bge	a4,a3,13112 <_vfprintf_r+0xcde>
   13992:	45a2                	lw	a1,8(sp)
   13994:	1110                	add	a2,sp,160
   13996:	854e                	mv	a0,s3
   13998:	c4f6                	sw	t4,72(sp)
   1399a:	c2fa                	sw	t5,68(sp)
   1399c:	409000ef          	jal	145a4 <__sprint_r>
   139a0:	c119                	beqz	a0,139a6 <_vfprintf_r+0x1572>
   139a2:	ddbfe06f          	j	1277c <_vfprintf_r+0x348>
   139a6:	54aa                	lw	s1,168(sp)
   139a8:	4ea6                	lw	t4,72(sp)
   139aa:	4f16                	lw	t5,68(sp)
   139ac:	1160                	add	s0,sp,172
   139ae:	f64ff06f          	j	13112 <_vfprintf_r+0xcde>
   139b2:	5722                	lw	a4,40(sp)
   139b4:	09810893          	add	a7,sp,152
   139b8:	08410813          	add	a6,sp,132
   139bc:	853a                	mv	a0,a4
   139be:	85aa                	mv	a1,a0
   139c0:	871a                	mv	a4,t1
   139c2:	18fc                	add	a5,sp,124
   139c4:	4689                	li	a3,2
   139c6:	8626                	mv	a2,s1
   139c8:	854e                	mv	a0,s3
   139ca:	c4f6                	sw	t4,72(sp)
   139cc:	d272                	sw	t3,36(sp)
   139ce:	d07a                	sw	t5,32(sp)
   139d0:	cc1a                	sw	t1,24(sp)
   139d2:	005030ef          	jal	171d6 <_dtoa_r>
   139d6:	5f02                	lw	t5,32(sp)
   139d8:	4362                	lw	t1,24(sp)
   139da:	5e12                	lw	t3,36(sp)
   139dc:	001f7713          	and	a4,t5,1
   139e0:	4ea6                	lw	t4,72(sp)
   139e2:	8c2a                	mv	s8,a0
   139e4:	6c071463          	bnez	a4,140ac <_vfprintf_r+0x1c78>
   139e8:	4b6a                	lw	s6,152(sp)
   139ea:	5a76                	lw	s4,124(sp)
   139ec:	40ab07b3          	sub	a5,s6,a0
   139f0:	cc3e                	sw	a5,24(sp)
   139f2:	5775                	li	a4,-3
   139f4:	00ea4463          	blt	s4,a4,139fc <_vfprintf_r+0x15c8>
   139f8:	59435763          	bge	t1,s4,13f86 <_vfprintf_r+0x1b52>
   139fc:	1e79                	add	t3,t3,-2
   139fe:	fffa0313          	add	t1,s4,-1
   13a02:	de9a                	sw	t1,124(sp)
   13a04:	0ffe7713          	zext.b	a4,t3
   13a08:	4681                	li	a3,0
   13a0a:	08e10423          	sb	a4,136(sp)
   13a0e:	02b00713          	li	a4,43
   13a12:	00035763          	bgez	t1,13a20 <_vfprintf_r+0x15ec>
   13a16:	4305                	li	t1,1
   13a18:	41430333          	sub	t1,t1,s4
   13a1c:	02d00713          	li	a4,45
   13a20:	08e104a3          	sb	a4,137(sp)
   13a24:	4725                	li	a4,9
   13a26:	006752e3          	bge	a4,t1,1422a <_vfprintf_r+0x1df6>
   13a2a:	09f10893          	add	a7,sp,159
   13a2e:	8fc6                	mv	t6,a7
   13a30:	4629                	li	a2,10
   13a32:	06300513          	li	a0,99
   13a36:	02c367b3          	rem	a5,t1,a2
   13a3a:	887e                	mv	a6,t6
   13a3c:	871a                	mv	a4,t1
   13a3e:	1ffd                	add	t6,t6,-1
   13a40:	03078793          	add	a5,a5,48
   13a44:	fef80fa3          	sb	a5,-1(a6)
   13a48:	02c34333          	div	t1,t1,a2
   13a4c:	fee545e3          	blt	a0,a4,13a36 <_vfprintf_r+0x1602>
   13a50:	03030313          	add	t1,t1,48
   13a54:	ffe80713          	add	a4,a6,-2
   13a58:	fe6f8fa3          	sb	t1,-1(t6)
   13a5c:	19177ce3          	bgeu	a4,a7,143f4 <_vfprintf_r+0x1fc0>
   13a60:	08a10693          	add	a3,sp,138
   13a64:	00074783          	lbu	a5,0(a4)
   13a68:	0705                	add	a4,a4,1
   13a6a:	0685                	add	a3,a3,1
   13a6c:	fef68fa3          	sb	a5,-1(a3)
   13a70:	ff171ae3          	bne	a4,a7,13a64 <_vfprintf_r+0x1630>
   13a74:	0a9c                	add	a5,sp,336
   13a76:	41078733          	sub	a4,a5,a6
   13a7a:	f5370793          	add	a5,a4,-173
   13a7e:	c0be                	sw	a5,64(sp)
   13a80:	47e2                	lw	a5,24(sp)
   13a82:	4686                	lw	a3,64(sp)
   13a84:	4705                	li	a4,1
   13a86:	00d78b33          	add	s6,a5,a3
   13a8a:	7ef75463          	bge	a4,a5,14272 <_vfprintf_r+0x1e3e>
   13a8e:	57c2                	lw	a5,48(sp)
   13a90:	9b3e                	add	s6,s6,a5
   13a92:	fffb4813          	not	a6,s6
   13a96:	bfff7f13          	and	t5,t5,-1025
   13a9a:	41f85813          	sra	a6,a6,0x1f
   13a9e:	100f6f13          	or	t5,t5,256
   13aa2:	010b7cb3          	and	s9,s6,a6
   13aa6:	d202                	sw	zero,36(sp)
   13aa8:	d002                	sw	zero,32(sp)
   13aaa:	4a01                	li	s4,0
   13aac:	4796                	lw	a5,68(sp)
   13aae:	32079d63          	bnez	a5,13de8 <_vfprintf_r+0x19b4>
   13ab2:	07714603          	lbu	a2,119(sp)
   13ab6:	4301                	li	t1,0
   13ab8:	e219                	bnez	a2,13abe <_vfprintf_r+0x168a>
   13aba:	b0ffe06f          	j	125c8 <_vfprintf_r+0x194>
   13abe:	de9fe06f          	j	128a6 <_vfprintf_r+0x472>
   13ac2:	45a2                	lw	a1,8(sp)
   13ac4:	1110                	add	a2,sp,160
   13ac6:	854e                	mv	a0,s3
   13ac8:	d276                	sw	t4,36(sp)
   13aca:	d07a                	sw	t5,32(sp)
   13acc:	2d9000ef          	jal	145a4 <__sprint_r>
   13ad0:	c119                	beqz	a0,13ad6 <_vfprintf_r+0x16a2>
   13ad2:	cabfe06f          	j	1277c <_vfprintf_r+0x348>
   13ad6:	5676                	lw	a2,124(sp)
   13ad8:	54aa                	lw	s1,168(sp)
   13ada:	5e92                	lw	t4,36(sp)
   13adc:	5f02                	lw	t5,32(sp)
   13ade:	1160                	add	s0,sp,172
   13ae0:	83fff06f          	j	1331e <_vfprintf_r+0xeea>
   13ae4:	4c99                	li	s9,6
   13ae6:	bae9                	j	134c0 <_vfprintf_r+0x108c>
   13ae8:	47d2                	lw	a5,20(sp)
   13aea:	4732                	lw	a4,12(sp)
   13aec:	439c                	lw	a5,0(a5)
   13aee:	00e79023          	sh	a4,0(a5)
   13af2:	a36ff06f          	j	12d28 <_vfprintf_r+0x8f4>
   13af6:	0ff4f493          	zext.b	s1,s1
   13afa:	4c81                	li	s9,0
   13afc:	b289                	j	1343e <_vfprintf_r+0x100a>
   13afe:	04e2                	sll	s1,s1,0x18
   13b00:	84e1                	sra	s1,s1,0x18
   13b02:	41f4dc93          	sra	s9,s1,0x1f
   13b06:	87e6                	mv	a5,s9
   13b08:	99cff06f          	j	12ca4 <_vfprintf_r+0x870>
   13b0c:	0ff4f493          	zext.b	s1,s1
   13b10:	4c81                	li	s9,0
   13b12:	8e8ff06f          	j	12bfa <_vfprintf_r+0x7c6>
   13b16:	45a2                	lw	a1,8(sp)
   13b18:	1110                	add	a2,sp,160
   13b1a:	854e                	mv	a0,s3
   13b1c:	289000ef          	jal	145a4 <__sprint_r>
   13b20:	e119                	bnez	a0,13b26 <_vfprintf_r+0x16f2>
   13b22:	c33fe06f          	j	12754 <_vfprintf_r+0x320>
   13b26:	c65fe06f          	j	1278a <_vfprintf_r+0x356>
   13b2a:	8562                	mv	a0,s8
   13b2c:	c4f6                	sw	t4,72(sp)
   13b2e:	c2fa                	sw	t5,68(sp)
   13b30:	2ea030ef          	jal	16e1a <strlen>
   13b34:	07714603          	lbu	a2,119(sp)
   13b38:	fff54813          	not	a6,a0
   13b3c:	41f85813          	sra	a6,a6,0x1f
   13b40:	ca56                	sw	s5,20(sp)
   13b42:	d202                	sw	zero,36(sp)
   13b44:	d002                	sw	zero,32(sp)
   13b46:	c802                	sw	zero,16(sp)
   13b48:	4f16                	lw	t5,68(sp)
   13b4a:	4ea6                	lw	t4,72(sp)
   13b4c:	8b2a                	mv	s6,a0
   13b4e:	01057cb3          	and	s9,a0,a6
   13b52:	4301                	li	t1,0
   13b54:	07300e13          	li	t3,115
   13b58:	e219                	bnez	a2,13b5e <_vfprintf_r+0x172a>
   13b5a:	a6ffe06f          	j	125c8 <_vfprintf_r+0x194>
   13b5e:	d49fe06f          	j	128a6 <_vfprintf_r+0x472>
   13b62:	45a2                	lw	a1,8(sp)
   13b64:	1110                	add	a2,sp,160
   13b66:	854e                	mv	a0,s3
   13b68:	d276                	sw	t4,36(sp)
   13b6a:	d07a                	sw	t5,32(sp)
   13b6c:	239000ef          	jal	145a4 <__sprint_r>
   13b70:	c119                	beqz	a0,13b76 <_vfprintf_r+0x1742>
   13b72:	c0bfe06f          	j	1277c <_vfprintf_r+0x348>
   13b76:	5676                	lw	a2,124(sp)
   13b78:	55aa                	lw	a1,168(sp)
   13b7a:	571a                	lw	a4,164(sp)
   13b7c:	5e92                	lw	t4,36(sp)
   13b7e:	5f02                	lw	t5,32(sp)
   13b80:	1160                	add	s0,sp,172
   13b82:	e03fe06f          	j	12984 <_vfprintf_r+0x550>
   13b86:	4e28                	lw	a0,88(a2)
   13b88:	c63e                	sw	a5,12(sp)
   13b8a:	dd7fd0ef          	jal	11960 <__retarget_lock_release_recursive>
   13b8e:	47b2                	lw	a5,12(sp)
   13b90:	b33fe06f          	j	126c2 <_vfprintf_r+0x28e>
   13b94:	00130b13          	add	s6,t1,1
   13b98:	4689                	li	a3,2
   13b9a:	5722                	lw	a4,40(sp)
   13b9c:	08410813          	add	a6,sp,132
   13ba0:	09810893          	add	a7,sp,152
   13ba4:	853a                	mv	a0,a4
   13ba6:	85aa                	mv	a1,a0
   13ba8:	875a                	mv	a4,s6
   13baa:	18fc                	add	a5,sp,124
   13bac:	8626                	mv	a2,s1
   13bae:	854e                	mv	a0,s3
   13bb0:	c49a                	sw	t1,72(sp)
   13bb2:	d276                	sw	t4,36(sp)
   13bb4:	d072                	sw	t3,32(sp)
   13bb6:	cc7a                	sw	t5,24(sp)
   13bb8:	61e030ef          	jal	171d6 <_dtoa_r>
   13bbc:	5e02                	lw	t3,32(sp)
   13bbe:	04600693          	li	a3,70
   13bc2:	4f62                	lw	t5,24(sp)
   13bc4:	fdfe7813          	and	a6,t3,-33
   13bc8:	5e92                	lw	t4,36(sp)
   13bca:	4326                	lw	t1,72(sp)
   13bcc:	8c2a                	mv	s8,a0
   13bce:	01650733          	add	a4,a0,s6
   13bd2:	02d81ee3          	bne	a6,a3,1440e <_vfprintf_r+0x1fda>
   13bd6:	000c4603          	lbu	a2,0(s8)
   13bda:	03000693          	li	a3,48
   13bde:	50d60263          	beq	a2,a3,140e2 <_vfprintf_r+0x1cae>
   13be2:	56f6                	lw	a3,124(sp)
   13be4:	9736                	add	a4,a4,a3
   13be6:	56a2                	lw	a3,40(sp)
   13be8:	85a6                	mv	a1,s1
   13bea:	4601                	li	a2,0
   13bec:	8536                	mv	a0,a3
   13bee:	4681                	li	a3,0
   13bf0:	ccba                	sw	a4,88(sp)
   13bf2:	ca9a                	sw	t1,84(sp)
   13bf4:	c4f6                	sw	t4,72(sp)
   13bf6:	d272                	sw	t3,36(sp)
   13bf8:	d07a                	sw	t5,32(sp)
   13bfa:	cc42                	sw	a6,24(sp)
   13bfc:	429070ef          	jal	1b824 <__eqdf2>
   13c00:	4862                	lw	a6,24(sp)
   13c02:	5f02                	lw	t5,32(sp)
   13c04:	5e12                	lw	t3,36(sp)
   13c06:	4ea6                	lw	t4,72(sp)
   13c08:	4356                	lw	t1,84(sp)
   13c0a:	4766                	lw	a4,88(sp)
   13c0c:	4a050563          	beqz	a0,140b6 <_vfprintf_r+0x1c82>
   13c10:	4b6a                	lw	s6,152(sp)
   13c12:	00eb7c63          	bgeu	s6,a4,13c2a <_vfprintf_r+0x17f6>
   13c16:	03000613          	li	a2,48
   13c1a:	001b0793          	add	a5,s6,1
   13c1e:	cd3e                	sw	a5,152(sp)
   13c20:	00cb0023          	sb	a2,0(s6)
   13c24:	4b6a                	lw	s6,152(sp)
   13c26:	feeb6ae3          	bltu	s6,a4,13c1a <_vfprintf_r+0x17e6>
   13c2a:	5a76                	lw	s4,124(sp)
   13c2c:	418b07b3          	sub	a5,s6,s8
   13c30:	04700713          	li	a4,71
   13c34:	cc3e                	sw	a5,24(sp)
   13c36:	dae80ee3          	beq	a6,a4,139f2 <_vfprintf_r+0x15be>
   13c3a:	04600713          	li	a4,70
   13c3e:	4ce80c63          	beq	a6,a4,14116 <_vfprintf_r+0x1ce2>
   13c42:	fffa0313          	add	t1,s4,-1
   13c46:	bb75                	j	13a02 <_vfprintf_r+0x15ce>
   13c48:	5722                	lw	a4,40(sp)
   13c4a:	18f0                	add	a2,sp,124
   13c4c:	85a6                	mv	a1,s1
   13c4e:	853a                	mv	a0,a4
   13c50:	c09a                	sw	t1,64(sp)
   13c52:	d276                	sw	t4,36(sp)
   13c54:	d072                	sw	t3,32(sp)
   13c56:	cc7a                	sw	t5,24(sp)
   13c58:	3bc030ef          	jal	17014 <frexp>
   13c5c:	0000b717          	auipc	a4,0xb
   13c60:	ab470713          	add	a4,a4,-1356 # 1e710 <__SDATA_BEGIN__+0x8>
   13c64:	4310                	lw	a2,0(a4)
   13c66:	4354                	lw	a3,4(a4)
   13c68:	5a9070ef          	jal	1ba10 <__muldf3>
   13c6c:	4601                	li	a2,0
   13c6e:	4681                	li	a3,0
   13c70:	8b2a                	mv	s6,a0
   13c72:	8d2e                	mv	s10,a1
   13c74:	3b1070ef          	jal	1b824 <__eqdf2>
   13c78:	4f62                	lw	t5,24(sp)
   13c7a:	5e02                	lw	t3,32(sp)
   13c7c:	5e92                	lw	t4,36(sp)
   13c7e:	4306                	lw	t1,64(sp)
   13c80:	e119                	bnez	a0,13c86 <_vfprintf_r+0x1852>
   13c82:	4705                	li	a4,1
   13c84:	deba                	sw	a4,124(sp)
   13c86:	00009797          	auipc	a5,0x9
   13c8a:	e6a78793          	add	a5,a5,-406 # 1caf0 <__trunctfdf2+0x2f2>
   13c8e:	06100713          	li	a4,97
   13c92:	d03e                	sw	a5,32(sp)
   13c94:	00ee1763          	bne	t3,a4,13ca2 <_vfprintf_r+0x186e>
   13c98:	00009797          	auipc	a5,0x9
   13c9c:	e4478793          	add	a5,a5,-444 # 1cadc <__trunctfdf2+0x2de>
   13ca0:	d03e                	sw	a5,32(sp)
   13ca2:	0000b717          	auipc	a4,0xb
   13ca6:	a7670713          	add	a4,a4,-1418 # 1e718 <__SDATA_BEGIN__+0x10>
   13caa:	431c                	lw	a5,0(a4)
   13cac:	00472803          	lw	a6,4(a4)
   13cb0:	d24a                	sw	s2,36(sp)
   13cb2:	cc3e                	sw	a5,24(sp)
   13cb4:	87ea                	mv	a5,s10
   13cb6:	895a                	mv	s2,s6
   13cb8:	8d62                	mv	s10,s8
   13cba:	8b22                	mv	s6,s0
   13cbc:	5482                	lw	s1,32(sp)
   13cbe:	8462                	mv	s0,s8
   13cc0:	ce42                	sw	a6,28(sp)
   13cc2:	8c4e                	mv	s8,s3
   13cc4:	fff30a93          	add	s5,t1,-1
   13cc8:	5cfd                	li	s9,-1
   13cca:	c0fa                	sw	t5,64(sp)
   13ccc:	c4f2                	sw	t3,72(sp)
   13cce:	caf6                	sw	t4,84(sp)
   13cd0:	89be                	mv	s3,a5
   13cd2:	a811                	j	13ce6 <_vfprintf_r+0x18b2>
   13cd4:	4601                	li	a2,0
   13cd6:	4681                	li	a3,0
   13cd8:	fffa8a13          	add	s4,s5,-1
   13cdc:	349070ef          	jal	1b824 <__eqdf2>
   13ce0:	66050263          	beqz	a0,14344 <_vfprintf_r+0x1f10>
   13ce4:	8ad2                	mv	s5,s4
   13ce6:	4662                	lw	a2,24(sp)
   13ce8:	46f2                	lw	a3,28(sp)
   13cea:	854a                	mv	a0,s2
   13cec:	85ce                	mv	a1,s3
   13cee:	523070ef          	jal	1ba10 <__muldf3>
   13cf2:	892e                	mv	s2,a1
   13cf4:	89aa                	mv	s3,a0
   13cf6:	1c3080ef          	jal	1c6b8 <__fixdfsi>
   13cfa:	8a2a                	mv	s4,a0
   13cfc:	223080ef          	jal	1c71e <__floatsidf>
   13d00:	86ae                	mv	a3,a1
   13d02:	862a                	mv	a2,a0
   13d04:	85ca                	mv	a1,s2
   13d06:	854e                	mv	a0,s3
   13d08:	226080ef          	jal	1bf2e <__subdf3>
   13d0c:	01448733          	add	a4,s1,s4
   13d10:	00074683          	lbu	a3,0(a4)
   13d14:	8822                	mv	a6,s0
   13d16:	892a                	mv	s2,a0
   13d18:	00d40023          	sb	a3,0(s0)
   13d1c:	89ae                	mv	s3,a1
   13d1e:	0405                	add	s0,s0,1
   13d20:	fb9a9ae3          	bne	s5,s9,13cd4 <_vfprintf_r+0x18a0>
   13d24:	0000b697          	auipc	a3,0xb
   13d28:	9fc68693          	add	a3,a3,-1540 # 1e720 <__SDATA_BEGIN__+0x18>
   13d2c:	0006a303          	lw	t1,0(a3)
   13d30:	0046a383          	lw	t2,4(a3)
   13d34:	4f06                	lw	t5,64(sp)
   13d36:	4ed6                	lw	t4,84(sp)
   13d38:	861a                	mv	a2,t1
   13d3a:	869e                	mv	a3,t2
   13d3c:	ccfa                	sw	t5,88(sp)
   13d3e:	c0f6                	sw	t4,64(sp)
   13d40:	cc42                	sw	a6,24(sp)
   13d42:	84a2                	mv	s1,s0
   13d44:	89e2                	mv	s3,s8
   13d46:	845a                	mv	s0,s6
   13d48:	8c6a                	mv	s8,s10
   13d4a:	8b2a                	mv	s6,a0
   13d4c:	8d2e                	mv	s10,a1
   13d4e:	343070ef          	jal	1b890 <__gedf2>
   13d52:	0000b797          	auipc	a5,0xb
   13d56:	9ce78793          	add	a5,a5,-1586 # 1e720 <__SDATA_BEGIN__+0x18>
   13d5a:	5912                	lw	s2,36(sp)
   13d5c:	0007a303          	lw	t1,0(a5)
   13d60:	0047a383          	lw	t2,4(a5)
   13d64:	4862                	lw	a6,24(sp)
   13d66:	4e86                	lw	t4,64(sp)
   13d68:	4e26                	lw	t3,72(sp)
   13d6a:	4f66                	lw	t5,88(sp)
   13d6c:	60a05e63          	blez	a0,14388 <_vfprintf_r+0x1f54>
   13d70:	5782                	lw	a5,32(sp)
   13d72:	cd42                	sw	a6,152(sp)
   13d74:	fff4c603          	lbu	a2,-1(s1) # 7fffffff <__BSS_END__+0x7ffe127b>
   13d78:	00f7c583          	lbu	a1,15(a5)
   13d7c:	86a6                	mv	a3,s1
   13d7e:	00b61e63          	bne	a2,a1,13d9a <_vfprintf_r+0x1966>
   13d82:	03000513          	li	a0,48
   13d86:	fea68fa3          	sb	a0,-1(a3)
   13d8a:	46ea                	lw	a3,152(sp)
   13d8c:	fff68793          	add	a5,a3,-1
   13d90:	cd3e                	sw	a5,152(sp)
   13d92:	fff6c603          	lbu	a2,-1(a3)
   13d96:	feb608e3          	beq	a2,a1,13d86 <_vfprintf_r+0x1952>
   13d9a:	00160593          	add	a1,a2,1
   13d9e:	03900513          	li	a0,57
   13da2:	0ff5f593          	zext.b	a1,a1
   13da6:	02a60b63          	beq	a2,a0,13ddc <_vfprintf_r+0x19a8>
   13daa:	feb68fa3          	sb	a1,-1(a3)
   13dae:	8b26                	mv	s6,s1
   13db0:	5a76                	lw	s4,124(sp)
   13db2:	418b07b3          	sub	a5,s6,s8
   13db6:	06100693          	li	a3,97
   13dba:	fffa0313          	add	t1,s4,-1
   13dbe:	cc3e                	sw	a5,24(sp)
   13dc0:	de9a                	sw	t1,124(sp)
   13dc2:	07000713          	li	a4,112
   13dc6:	00de0663          	beq	t3,a3,13dd2 <_vfprintf_r+0x199e>
   13dca:	05000713          	li	a4,80
   13dce:	04100e13          	li	t3,65
   13dd2:	4685                	li	a3,1
   13dd4:	b91d                	j	13a0a <_vfprintf_r+0x15d6>
   13dd6:	8b1a                	mv	s6,t1
   13dd8:	468d                	li	a3,3
   13dda:	b3c1                	j	13b9a <_vfprintf_r+0x1766>
   13ddc:	5782                	lw	a5,32(sp)
   13dde:	00a7c583          	lbu	a1,10(a5)
   13de2:	feb68fa3          	sb	a1,-1(a3)
   13de6:	b7e1                	j	13dae <_vfprintf_r+0x197a>
   13de8:	02d00713          	li	a4,45
   13dec:	06e10ba3          	sb	a4,119(sp)
   13df0:	02d00613          	li	a2,45
   13df4:	4301                	li	t1,0
   13df6:	0c85                	add	s9,s9,1
   13df8:	fd0fe06f          	j	125c8 <_vfprintf_r+0x194>
   13dfc:	0938                	add	a4,sp,152
   13dfe:	4681                	li	a3,0
   13e00:	0150                	add	a2,sp,132
   13e02:	4581                	li	a1,0
   13e04:	854e                	mv	a0,s3
   13e06:	d076                	sw	t4,32(sp)
   13e08:	ca72                	sw	t3,20(sp)
   13e0a:	c87a                	sw	t5,16(sp)
   13e0c:	72b050ef          	jal	19d36 <_wcsrtombs_r>
   13e10:	577d                	li	a4,-1
   13e12:	4f42                	lw	t5,16(sp)
   13e14:	4e52                	lw	t3,20(sp)
   13e16:	5e82                	lw	t4,32(sp)
   13e18:	8b2a                	mv	s6,a0
   13e1a:	44e50163          	beq	a0,a4,1425c <_vfprintf_r+0x1e28>
   13e1e:	c362                	sw	s8,132(sp)
   13e20:	bc15                	j	13854 <_vfprintf_r+0x1420>
   13e22:	47e2                	lw	a5,24(sp)
   13e24:	8722                	mv	a4,s0
   13e26:	5402                	lw	s0,32(sp)
   13e28:	97e2                	add	a5,a5,s8
   13e2a:	cee6                	sw	s9,92(sp)
   13e2c:	8626                	mv	a2,s1
   13e2e:	c2be                	sw	a5,68(sp)
   13e30:	5492                	lw	s1,36(sp)
   13e32:	c4ca                	sw	s2,72(sp)
   13e34:	d262                	sw	s8,36(sp)
   13e36:	cafa                	sw	t5,84(sp)
   13e38:	ccf6                	sw	t4,88(sp)
   13e3a:	8c5a                	mv	s8,s6
   13e3c:	4cc6                	lw	s9,80(sp)
   13e3e:	4a22                	lw	s4,8(sp)
   13e40:	5b72                	lw	s6,60(sp)
   13e42:	469d                	li	a3,7
   13e44:	4d41                	li	s10,16
   13e46:	00009a97          	auipc	s5,0x9
   13e4a:	27ea8a93          	add	s5,s5,638 # 1d0c4 <zeroes.0>
   13e4e:	06805563          	blez	s0,13eb8 <_vfprintf_r+0x1a84>
   13e52:	0e905f63          	blez	s1,13f50 <_vfprintf_r+0x1b1c>
   13e56:	14fd                	add	s1,s1,-1
   13e58:	47b6                	lw	a5,76(sp)
   13e5a:	9666                	add	a2,a2,s9
   13e5c:	01972223          	sw	s9,4(a4)
   13e60:	c31c                	sw	a5,0(a4)
   13e62:	579a                	lw	a5,164(sp)
   13e64:	d532                	sw	a2,168(sp)
   13e66:	0721                	add	a4,a4,8
   13e68:	0785                	add	a5,a5,1
   13e6a:	d33e                	sw	a5,164(sp)
   13e6c:	0ef6c563          	blt	a3,a5,13f56 <_vfprintf_r+0x1b22>
   13e70:	4796                	lw	a5,68(sp)
   13e72:	000b4583          	lbu	a1,0(s6)
   13e76:	41878933          	sub	s2,a5,s8
   13e7a:	0125d363          	bge	a1,s2,13e80 <_vfprintf_r+0x1a4c>
   13e7e:	892e                	mv	s2,a1
   13e80:	03205063          	blez	s2,13ea0 <_vfprintf_r+0x1a6c>
   13e84:	559a                	lw	a1,164(sp)
   13e86:	964a                	add	a2,a2,s2
   13e88:	01872023          	sw	s8,0(a4)
   13e8c:	0585                	add	a1,a1,1
   13e8e:	01272223          	sw	s2,4(a4)
   13e92:	d532                	sw	a2,168(sp)
   13e94:	d32e                	sw	a1,164(sp)
   13e96:	0cb6cb63          	blt	a3,a1,13f6c <_vfprintf_r+0x1b38>
   13e9a:	000b4583          	lbu	a1,0(s6)
   13e9e:	0721                	add	a4,a4,8
   13ea0:	fff94513          	not	a0,s2
   13ea4:	857d                	sra	a0,a0,0x1f
   13ea6:	00a977b3          	and	a5,s2,a0
   13eaa:	40f58933          	sub	s2,a1,a5
   13eae:	03204863          	bgtz	s2,13ede <_vfprintf_r+0x1aaa>
   13eb2:	9c2e                	add	s8,s8,a1
   13eb4:	f8804fe3          	bgtz	s0,13e52 <_vfprintf_r+0x1a1e>
   13eb8:	f8904fe3          	bgtz	s1,13e56 <_vfprintf_r+0x1a22>
   13ebc:	47e2                	lw	a5,24(sp)
   13ebe:	de5a                	sw	s6,60(sp)
   13ec0:	8b62                	mv	s6,s8
   13ec2:	5c12                	lw	s8,36(sp)
   13ec4:	843a                	mv	s0,a4
   13ec6:	4926                	lw	s2,72(sp)
   13ec8:	00fc0733          	add	a4,s8,a5
   13ecc:	4f56                	lw	t5,84(sp)
   13ece:	4ee6                	lw	t4,88(sp)
   13ed0:	4cf6                	lw	s9,92(sp)
   13ed2:	84b2                	mv	s1,a2
   13ed4:	a5677563          	bgeu	a4,s6,1311e <_vfprintf_r+0xcea>
   13ed8:	8b3a                	mv	s6,a4
   13eda:	a44ff06f          	j	1311e <_vfprintf_r+0xcea>
   13ede:	559a                	lw	a1,164(sp)
   13ee0:	00009e97          	auipc	t4,0x9
   13ee4:	1e4e8e93          	add	t4,t4,484 # 1d0c4 <zeroes.0>
   13ee8:	052d5563          	bge	s10,s2,13f32 <_vfprintf_r+0x1afe>
   13eec:	d022                	sw	s0,32(sp)
   13eee:	844a                	mv	s0,s2
   13ef0:	8956                	mv	s2,s5
   13ef2:	a021                	j	13efa <_vfprintf_r+0x1ac6>
   13ef4:	1441                	add	s0,s0,-16
   13ef6:	028d5b63          	bge	s10,s0,13f2c <_vfprintf_r+0x1af8>
   13efa:	0641                	add	a2,a2,16
   13efc:	0585                	add	a1,a1,1
   13efe:	01572023          	sw	s5,0(a4)
   13f02:	01a72223          	sw	s10,4(a4)
   13f06:	d532                	sw	a2,168(sp)
   13f08:	d32e                	sw	a1,164(sp)
   13f0a:	0721                	add	a4,a4,8
   13f0c:	feb6d4e3          	bge	a3,a1,13ef4 <_vfprintf_r+0x1ac0>
   13f10:	1110                	add	a2,sp,160
   13f12:	85d2                	mv	a1,s4
   13f14:	854e                	mv	a0,s3
   13f16:	2579                	jal	145a4 <__sprint_r>
   13f18:	c119                	beqz	a0,13f1e <_vfprintf_r+0x1aea>
   13f1a:	863fe06f          	j	1277c <_vfprintf_r+0x348>
   13f1e:	1441                	add	s0,s0,-16
   13f20:	562a                	lw	a2,168(sp)
   13f22:	559a                	lw	a1,164(sp)
   13f24:	1178                	add	a4,sp,172
   13f26:	469d                	li	a3,7
   13f28:	fc8d49e3          	blt	s10,s0,13efa <_vfprintf_r+0x1ac6>
   13f2c:	8eca                	mv	t4,s2
   13f2e:	8922                	mv	s2,s0
   13f30:	5402                	lw	s0,32(sp)
   13f32:	964a                	add	a2,a2,s2
   13f34:	0585                	add	a1,a1,1
   13f36:	01d72023          	sw	t4,0(a4)
   13f3a:	01272223          	sw	s2,4(a4)
   13f3e:	d532                	sw	a2,168(sp)
   13f40:	d32e                	sw	a1,164(sp)
   13f42:	12b6c363          	blt	a3,a1,14068 <_vfprintf_r+0x1c34>
   13f46:	000b4583          	lbu	a1,0(s6)
   13f4a:	0721                	add	a4,a4,8
   13f4c:	9c2e                	add	s8,s8,a1
   13f4e:	b79d                	j	13eb4 <_vfprintf_r+0x1a80>
   13f50:	1b7d                	add	s6,s6,-1
   13f52:	147d                	add	s0,s0,-1
   13f54:	b711                	j	13e58 <_vfprintf_r+0x1a24>
   13f56:	1110                	add	a2,sp,160
   13f58:	85d2                	mv	a1,s4
   13f5a:	854e                	mv	a0,s3
   13f5c:	25a1                	jal	145a4 <__sprint_r>
   13f5e:	c119                	beqz	a0,13f64 <_vfprintf_r+0x1b30>
   13f60:	81dfe06f          	j	1277c <_vfprintf_r+0x348>
   13f64:	562a                	lw	a2,168(sp)
   13f66:	1178                	add	a4,sp,172
   13f68:	469d                	li	a3,7
   13f6a:	b719                	j	13e70 <_vfprintf_r+0x1a3c>
   13f6c:	1110                	add	a2,sp,160
   13f6e:	85d2                	mv	a1,s4
   13f70:	854e                	mv	a0,s3
   13f72:	2d0d                	jal	145a4 <__sprint_r>
   13f74:	c119                	beqz	a0,13f7a <_vfprintf_r+0x1b46>
   13f76:	807fe06f          	j	1277c <_vfprintf_r+0x348>
   13f7a:	000b4583          	lbu	a1,0(s6)
   13f7e:	562a                	lw	a2,168(sp)
   13f80:	1178                	add	a4,sp,172
   13f82:	469d                	li	a3,7
   13f84:	bf31                	j	13ea0 <_vfprintf_r+0x1a6c>
   13f86:	47e2                	lw	a5,24(sp)
   13f88:	1cfa4563          	blt	s4,a5,14152 <_vfprintf_r+0x1d1e>
   13f8c:	001f7713          	and	a4,t5,1
   13f90:	8b52                	mv	s6,s4
   13f92:	c701                	beqz	a4,13f9a <_vfprintf_r+0x1b66>
   13f94:	57c2                	lw	a5,48(sp)
   13f96:	00fa0b33          	add	s6,s4,a5
   13f9a:	400f7f13          	and	t5,t5,1024
   13f9e:	000f0463          	beqz	t5,13fa6 <_vfprintf_r+0x1b72>
   13fa2:	31404363          	bgtz	s4,142a8 <_vfprintf_r+0x1e74>
   13fa6:	fffb4813          	not	a6,s6
   13faa:	41f85813          	sra	a6,a6,0x1f
   13fae:	010b7cb3          	and	s9,s6,a6
   13fb2:	06700e13          	li	t3,103
   13fb6:	8f56                	mv	t5,s5
   13fb8:	d202                	sw	zero,36(sp)
   13fba:	d002                	sw	zero,32(sp)
   13fbc:	bcc5                	j	13aac <_vfprintf_r+0x1678>
   13fbe:	02d00793          	li	a5,45
   13fc2:	06f10ba3          	sb	a5,119(sp)
   13fc6:	02d00613          	li	a2,45
   13fca:	8affe06f          	j	12878 <_vfprintf_r+0x444>
   13fce:	47c6                	lw	a5,80(sp)
   13fd0:	45b6                	lw	a1,76(sp)
   13fd2:	c2fa                	sw	t5,68(sp)
   13fd4:	8e9d                	sub	a3,a3,a5
   13fd6:	863e                	mv	a2,a5
   13fd8:	8536                	mv	a0,a3
   13fda:	de1a                	sw	t1,60(sp)
   13fdc:	d276                	sw	t4,36(sp)
   13fde:	d072                	sw	t3,32(sp)
   13fe0:	cc3a                	sw	a4,24(sp)
   13fe2:	c836                	sw	a3,16(sp)
   13fe4:	1a0020ef          	jal	16184 <strncpy>
   13fe8:	009c37b3          	sltu	a5,s8,s1
   13fec:	4615                	li	a2,5
   13fee:	97e2                	add	a5,a5,s8
   13ff0:	02c7f7b3          	remu	a5,a5,a2
   13ff4:	4762                	lw	a4,24(sp)
   13ff6:	ccccd537          	lui	a0,0xccccd
   13ffa:	ccccd837          	lui	a6,0xccccd
   13ffe:	00174603          	lbu	a2,1(a4)
   14002:	ccd50513          	add	a0,a0,-819 # cccccccd <__BSS_END__+0xcccadf49>
   14006:	ccc80813          	add	a6,a6,-820 # cccccccc <__BSS_END__+0xcccadf48>
   1400a:	00c03633          	snez	a2,a2
   1400e:	9732                	add	a4,a4,a2
   14010:	46c2                	lw	a3,16(sp)
   14012:	5e02                	lw	t3,32(sp)
   14014:	5e92                	lw	t4,36(sp)
   14016:	5372                	lw	t1,60(sp)
   14018:	4f16                	lw	t5,68(sp)
   1401a:	4581                	li	a1,0
   1401c:	4895                	li	a7,5
   1401e:	40f487b3          	sub	a5,s1,a5
   14022:	00f4b633          	sltu	a2,s1,a5
   14026:	40cc8633          	sub	a2,s9,a2
   1402a:	02a60633          	mul	a2,a2,a0
   1402e:	03078833          	mul	a6,a5,a6
   14032:	02a7bfb3          	mulhu	t6,a5,a0
   14036:	9642                	add	a2,a2,a6
   14038:	02a78533          	mul	a0,a5,a0
   1403c:	967e                	add	a2,a2,t6
   1403e:	01f61793          	sll	a5,a2,0x1f
   14042:	8205                	srl	a2,a2,0x1
   14044:	8105                	srl	a0,a0,0x1
   14046:	8fc9                	or	a5,a5,a0
   14048:	dd8ff06f          	j	13620 <_vfprintf_r+0x11ec>
   1404c:	07714603          	lbu	a2,119(sp)
   14050:	ca56                	sw	s5,20(sp)
   14052:	d202                	sw	zero,36(sp)
   14054:	d002                	sw	zero,32(sp)
   14056:	c802                	sw	zero,16(sp)
   14058:	4c81                	li	s9,0
   1405a:	4301                	li	t1,0
   1405c:	4a01                	li	s4,0
   1405e:	e219                	bnez	a2,14064 <_vfprintf_r+0x1c30>
   14060:	d68fe06f          	j	125c8 <_vfprintf_r+0x194>
   14064:	843fe06f          	j	128a6 <_vfprintf_r+0x472>
   14068:	1110                	add	a2,sp,160
   1406a:	85d2                	mv	a1,s4
   1406c:	854e                	mv	a0,s3
   1406e:	2b1d                	jal	145a4 <__sprint_r>
   14070:	c119                	beqz	a0,14076 <_vfprintf_r+0x1c42>
   14072:	f0afe06f          	j	1277c <_vfprintf_r+0x348>
   14076:	000b4583          	lbu	a1,0(s6)
   1407a:	562a                	lw	a2,168(sp)
   1407c:	1178                	add	a4,sp,172
   1407e:	469d                	li	a3,7
   14080:	9c2e                	add	s8,s8,a1
   14082:	bd0d                	j	13eb4 <_vfprintf_r+0x1a80>
   14084:	45a2                	lw	a1,8(sp)
   14086:	1110                	add	a2,sp,160
   14088:	854e                	mv	a0,s3
   1408a:	c4f6                	sw	t4,72(sp)
   1408c:	c2fa                	sw	t5,68(sp)
   1408e:	2b19                	jal	145a4 <__sprint_r>
   14090:	c119                	beqz	a0,14096 <_vfprintf_r+0x1c62>
   14092:	eeafe06f          	j	1277c <_vfprintf_r+0x348>
   14096:	54aa                	lw	s1,168(sp)
   14098:	4ea6                	lw	t4,72(sp)
   1409a:	4f16                	lw	t5,68(sp)
   1409c:	1160                	add	s0,sp,172
   1409e:	862ff06f          	j	13100 <_vfprintf_r+0xccc>
   140a2:	4525                	li	a0,9
   140a4:	d6956e63          	bltu	a0,s1,13620 <_vfprintf_r+0x11ec>
   140a8:	de0ff06f          	j	13688 <_vfprintf_r+0x1254>
   140ac:	00650733          	add	a4,a0,t1
   140b0:	04700813          	li	a6,71
   140b4:	be0d                	j	13be6 <_vfprintf_r+0x17b2>
   140b6:	5a76                	lw	s4,124(sp)
   140b8:	8b3a                	mv	s6,a4
   140ba:	be8d                	j	13c2c <_vfprintf_r+0x17f8>
   140bc:	45a2                	lw	a1,8(sp)
   140be:	1110                	add	a2,sp,160
   140c0:	854e                	mv	a0,s3
   140c2:	d276                	sw	t4,36(sp)
   140c4:	d07a                	sw	t5,32(sp)
   140c6:	29f9                	jal	145a4 <__sprint_r>
   140c8:	c119                	beqz	a0,140ce <_vfprintf_r+0x1c9a>
   140ca:	eb2fe06f          	j	1277c <_vfprintf_r+0x348>
   140ce:	5d76                	lw	s10,124(sp)
   140d0:	47e2                	lw	a5,24(sp)
   140d2:	54aa                	lw	s1,168(sp)
   140d4:	5e92                	lw	t4,36(sp)
   140d6:	5f02                	lw	t5,32(sp)
   140d8:	1160                	add	s0,sp,172
   140da:	41a78d33          	sub	s10,a5,s10
   140de:	886ff06f          	j	13164 <_vfprintf_r+0xd30>
   140e2:	5622                	lw	a2,40(sp)
   140e4:	85a6                	mv	a1,s1
   140e6:	4681                	li	a3,0
   140e8:	8532                	mv	a0,a2
   140ea:	4601                	li	a2,0
   140ec:	ccba                	sw	a4,88(sp)
   140ee:	ca9a                	sw	t1,84(sp)
   140f0:	c4f6                	sw	t4,72(sp)
   140f2:	d272                	sw	t3,36(sp)
   140f4:	d07a                	sw	t5,32(sp)
   140f6:	cc42                	sw	a6,24(sp)
   140f8:	72c070ef          	jal	1b824 <__eqdf2>
   140fc:	4862                	lw	a6,24(sp)
   140fe:	5f02                	lw	t5,32(sp)
   14100:	5e12                	lw	t3,36(sp)
   14102:	4ea6                	lw	t4,72(sp)
   14104:	4356                	lw	t1,84(sp)
   14106:	4766                	lw	a4,88(sp)
   14108:	26051a63          	bnez	a0,1437c <_vfprintf_r+0x1f48>
   1410c:	5a76                	lw	s4,124(sp)
   1410e:	9752                	add	a4,a4,s4
   14110:	418707b3          	sub	a5,a4,s8
   14114:	cc3e                	sw	a5,24(sp)
   14116:	001f7713          	and	a4,t5,1
   1411a:	00676733          	or	a4,a4,t1
   1411e:	29405a63          	blez	s4,143b2 <_vfprintf_r+0x1f7e>
   14122:	1e071063          	bnez	a4,14302 <_vfprintf_r+0x1ece>
   14126:	8b52                	mv	s6,s4
   14128:	06600e13          	li	t3,102
   1412c:	400f7f13          	and	t5,t5,1024
   14130:	160f1e63          	bnez	t5,142ac <_vfprintf_r+0x1e78>
   14134:	fffb4813          	not	a6,s6
   14138:	41f85813          	sra	a6,a6,0x1f
   1413c:	010b7cb3          	and	s9,s6,a6
   14140:	bd9d                	j	13fb6 <_vfprintf_r+0x1b82>
   14142:	8d7a                	mv	s10,t5
   14144:	b8dfe06f          	j	12cd0 <_vfprintf_r+0x89c>
   14148:	c802                	sw	zero,16(sp)
   1414a:	0ec10c13          	add	s8,sp,236
   1414e:	f30ff06f          	j	1387e <_vfprintf_r+0x144a>
   14152:	47e2                	lw	a5,24(sp)
   14154:	5742                	lw	a4,48(sp)
   14156:	06700e13          	li	t3,103
   1415a:	00e78b33          	add	s6,a5,a4
   1415e:	fd4047e3          	bgtz	s4,1412c <_vfprintf_r+0x1cf8>
   14162:	414b06b3          	sub	a3,s6,s4
   14166:	00168b13          	add	s6,a3,1
   1416a:	fffb4813          	not	a6,s6
   1416e:	41f85813          	sra	a6,a6,0x1f
   14172:	010b7cb3          	and	s9,s6,a6
   14176:	b581                	j	13fb6 <_vfprintf_r+0x1b82>
   14178:	47a2                	lw	a5,8(sp)
   1417a:	53fc                	lw	a5,100(a5)
   1417c:	8b85                	and	a5,a5,1
   1417e:	eb99                	bnez	a5,14194 <_vfprintf_r+0x1d60>
   14180:	47a2                	lw	a5,8(sp)
   14182:	00c7d783          	lhu	a5,12(a5)
   14186:	2007f793          	and	a5,a5,512
   1418a:	e789                	bnez	a5,14194 <_vfprintf_r+0x1d60>
   1418c:	47a2                	lw	a5,8(sp)
   1418e:	4fa8                	lw	a0,88(a5)
   14190:	fd0fd0ef          	jal	11960 <__retarget_lock_release_recursive>
   14194:	57fd                	li	a5,-1
   14196:	c63e                	sw	a5,12(sp)
   14198:	e34fe06f          	j	127cc <_vfprintf_r+0x398>
   1419c:	56c1                	li	a3,-16
   1419e:	40c00d33          	neg	s10,a2
   141a2:	00009297          	auipc	t0,0x9
   141a6:	f2228293          	add	t0,t0,-222 # 1d0c4 <zeroes.0>
   141aa:	04d65563          	bge	a2,a3,141f4 <_vfprintf_r+0x1dc0>
   141ae:	d04a                	sw	s2,32(sp)
   141b0:	44c1                	li	s1,16
   141b2:	4a9d                	li	s5,7
   141b4:	8a7a                	mv	s4,t5
   141b6:	8b76                	mv	s6,t4
   141b8:	8916                	mv	s2,t0
   141ba:	a021                	j	141c2 <_vfprintf_r+0x1d8e>
   141bc:	1d41                	add	s10,s10,-16
   141be:	03a4d763          	bge	s1,s10,141ec <_vfprintf_r+0x1db8>
   141c2:	05c1                	add	a1,a1,16
   141c4:	0705                	add	a4,a4,1
   141c6:	01242023          	sw	s2,0(s0)
   141ca:	c044                	sw	s1,4(s0)
   141cc:	d52e                	sw	a1,168(sp)
   141ce:	d33a                	sw	a4,164(sp)
   141d0:	0421                	add	s0,s0,8
   141d2:	feead5e3          	bge	s5,a4,141bc <_vfprintf_r+0x1d88>
   141d6:	45a2                	lw	a1,8(sp)
   141d8:	1110                	add	a2,sp,160
   141da:	854e                	mv	a0,s3
   141dc:	26e1                	jal	145a4 <__sprint_r>
   141de:	c119                	beqz	a0,141e4 <_vfprintf_r+0x1db0>
   141e0:	d9cfe06f          	j	1277c <_vfprintf_r+0x348>
   141e4:	55aa                	lw	a1,168(sp)
   141e6:	571a                	lw	a4,164(sp)
   141e8:	1160                	add	s0,sp,172
   141ea:	bfc9                	j	141bc <_vfprintf_r+0x1d88>
   141ec:	82ca                	mv	t0,s2
   141ee:	5902                	lw	s2,32(sp)
   141f0:	8f52                	mv	t5,s4
   141f2:	8eda                	mv	t4,s6
   141f4:	95ea                	add	a1,a1,s10
   141f6:	0705                	add	a4,a4,1
   141f8:	00542023          	sw	t0,0(s0)
   141fc:	01a42223          	sw	s10,4(s0)
   14200:	d52e                	sw	a1,168(sp)
   14202:	d33a                	sw	a4,164(sp)
   14204:	469d                	li	a3,7
   14206:	94e6d163          	bge	a3,a4,13348 <_vfprintf_r+0xf14>
   1420a:	45a2                	lw	a1,8(sp)
   1420c:	1110                	add	a2,sp,160
   1420e:	854e                	mv	a0,s3
   14210:	d276                	sw	t4,36(sp)
   14212:	d07a                	sw	t5,32(sp)
   14214:	2e41                	jal	145a4 <__sprint_r>
   14216:	c119                	beqz	a0,1421c <_vfprintf_r+0x1de8>
   14218:	d64fe06f          	j	1277c <_vfprintf_r+0x348>
   1421c:	55aa                	lw	a1,168(sp)
   1421e:	571a                	lw	a4,164(sp)
   14220:	5e92                	lw	t4,36(sp)
   14222:	5f02                	lw	t5,32(sp)
   14224:	1160                	add	s0,sp,172
   14226:	f66fe06f          	j	1298c <_vfprintf_r+0x558>
   1422a:	08a10713          	add	a4,sp,138
   1422e:	e699                	bnez	a3,1423c <_vfprintf_r+0x1e08>
   14230:	03000713          	li	a4,48
   14234:	08e10523          	sb	a4,138(sp)
   14238:	08b10713          	add	a4,sp,139
   1423c:	0a9c                	add	a5,sp,336
   1423e:	40f706b3          	sub	a3,a4,a5
   14242:	03030313          	add	t1,t1,48
   14246:	0c968793          	add	a5,a3,201
   1424a:	00670023          	sb	t1,0(a4)
   1424e:	c0be                	sw	a5,64(sp)
   14250:	831ff06f          	j	13a80 <_vfprintf_r+0x164c>
   14254:	c802                	sw	zero,16(sp)
   14256:	4319                	li	t1,6
   14258:	cceff06f          	j	13726 <_vfprintf_r+0x12f2>
   1425c:	47a2                	lw	a5,8(sp)
   1425e:	4f01                	li	t5,0
   14260:	00c79783          	lh	a5,12(a5)
   14264:	0407e793          	or	a5,a5,64
   14268:	4722                	lw	a4,8(sp)
   1426a:	00f71623          	sh	a5,12(a4)
   1426e:	d10fe06f          	j	1277e <_vfprintf_r+0x34a>
   14272:	001f7713          	and	a4,t5,1
   14276:	80070ee3          	beqz	a4,13a92 <_vfprintf_r+0x165e>
   1427a:	815ff06f          	j	13a8e <_vfprintf_r+0x165a>
   1427e:	57b2                	lw	a5,44(sp)
   14280:	0e07c763          	bltz	a5,1436e <_vfprintf_r+0x1f3a>
   14284:	07714603          	lbu	a2,119(sp)
   14288:	04700713          	li	a4,71
   1428c:	00009c17          	auipc	s8,0x9
   14290:	84cc0c13          	add	s8,s8,-1972 # 1cad8 <__trunctfdf2+0x2da>
   14294:	01c75463          	bge	a4,t3,1429c <_vfprintf_r+0x1e68>
   14298:	df8fe06f          	j	12890 <_vfprintf_r+0x45c>
   1429c:	00009c17          	auipc	s8,0x9
   142a0:	838c0c13          	add	s8,s8,-1992 # 1cad4 <__trunctfdf2+0x2d6>
   142a4:	decfe06f          	j	12890 <_vfprintf_r+0x45c>
   142a8:	06700e13          	li	t3,103
   142ac:	57f2                	lw	a5,60(sp)
   142ae:	0ff00613          	li	a2,255
   142b2:	0007c703          	lbu	a4,0(a5)
   142b6:	16c70763          	beq	a4,a2,14424 <_vfprintf_r+0x1ff0>
   142ba:	4581                	li	a1,0
   142bc:	4681                	li	a3,0
   142be:	01475b63          	bge	a4,s4,142d4 <_vfprintf_r+0x1ea0>
   142c2:	40ea0a33          	sub	s4,s4,a4
   142c6:	0017c703          	lbu	a4,1(a5)
   142ca:	cb05                	beqz	a4,142fa <_vfprintf_r+0x1ec6>
   142cc:	0685                	add	a3,a3,1
   142ce:	0785                	add	a5,a5,1
   142d0:	fec717e3          	bne	a4,a2,142be <_vfprintf_r+0x1e8a>
   142d4:	de3e                	sw	a5,60(sp)
   142d6:	d036                	sw	a3,32(sp)
   142d8:	d22e                	sw	a1,36(sp)
   142da:	5782                	lw	a5,32(sp)
   142dc:	5712                	lw	a4,36(sp)
   142de:	8f56                	mv	t5,s5
   142e0:	973e                	add	a4,a4,a5
   142e2:	47c6                	lw	a5,80(sp)
   142e4:	02f70733          	mul	a4,a4,a5
   142e8:	9b3a                	add	s6,s6,a4
   142ea:	fffb4813          	not	a6,s6
   142ee:	41f85813          	sra	a6,a6,0x1f
   142f2:	010b7cb3          	and	s9,s6,a6
   142f6:	fb6ff06f          	j	13aac <_vfprintf_r+0x1678>
   142fa:	0007c703          	lbu	a4,0(a5)
   142fe:	0585                	add	a1,a1,1
   14300:	bfc1                	j	142d0 <_vfprintf_r+0x1e9c>
   14302:	57c2                	lw	a5,48(sp)
   14304:	06600e13          	li	t3,102
   14308:	00f306b3          	add	a3,t1,a5
   1430c:	01468b33          	add	s6,a3,s4
   14310:	bd31                	j	1412c <_vfprintf_r+0x1cf8>
   14312:	8322                	mv	t1,s0
   14314:	4942                	lw	s2,16(sp)
   14316:	8456                	mv	s0,s5
   14318:	4ed2                	lw	t4,20(sp)
   1431a:	8ada                	mv	s5,s6
   1431c:	8f52                	mv	t5,s4
   1431e:	8e6a                	mv	t3,s10
   14320:	8b1a                	mv	s6,t1
   14322:	d32ff06f          	j	13854 <_vfprintf_r+0x1420>
   14326:	07714603          	lbu	a2,119(sp)
   1432a:	ca56                	sw	s5,20(sp)
   1432c:	d202                	sw	zero,36(sp)
   1432e:	d002                	sw	zero,32(sp)
   14330:	8c9a                	mv	s9,t1
   14332:	8b1a                	mv	s6,t1
   14334:	07300e13          	li	t3,115
   14338:	4301                	li	t1,0
   1433a:	e219                	bnez	a2,14340 <_vfprintf_r+0x1f0c>
   1433c:	a8cfe06f          	j	125c8 <_vfprintf_r+0x194>
   14340:	d66fe06f          	j	128a6 <_vfprintf_r+0x472>
   14344:	84a2                	mv	s1,s0
   14346:	845a                	mv	s0,s6
   14348:	001a8b13          	add	s6,s5,1
   1434c:	89e2                	mv	s3,s8
   1434e:	5912                	lw	s2,36(sp)
   14350:	4f06                	lw	t5,64(sp)
   14352:	4e26                	lw	t3,72(sp)
   14354:	4ed6                	lw	t4,84(sp)
   14356:	8c6a                	mv	s8,s10
   14358:	9b26                	add	s6,s6,s1
   1435a:	03000693          	li	a3,48
   1435e:	a40ac8e3          	bltz	s5,13dae <_vfprintf_r+0x197a>
   14362:	0485                	add	s1,s1,1
   14364:	fed48fa3          	sb	a3,-1(s1)
   14368:	ff649de3          	bne	s1,s6,14362 <_vfprintf_r+0x1f2e>
   1436c:	b491                	j	13db0 <_vfprintf_r+0x197c>
   1436e:	02d00793          	li	a5,45
   14372:	06f10ba3          	sb	a5,119(sp)
   14376:	02d00613          	li	a2,45
   1437a:	b739                	j	14288 <_vfprintf_r+0x1e54>
   1437c:	4685                	li	a3,1
   1437e:	416686b3          	sub	a3,a3,s6
   14382:	deb6                	sw	a3,124(sp)
   14384:	861ff06f          	j	13be4 <_vfprintf_r+0x17b0>
   14388:	855a                	mv	a0,s6
   1438a:	85ea                	mv	a1,s10
   1438c:	861a                	mv	a2,t1
   1438e:	869e                	mv	a3,t2
   14390:	c4c2                	sw	a6,72(sp)
   14392:	c0f6                	sw	t4,64(sp)
   14394:	d272                	sw	t3,36(sp)
   14396:	cc7a                	sw	t5,24(sp)
   14398:	48c070ef          	jal	1b824 <__eqdf2>
   1439c:	4f62                	lw	t5,24(sp)
   1439e:	5e12                	lw	t3,36(sp)
   143a0:	4e86                	lw	t4,64(sp)
   143a2:	4826                	lw	a6,72(sp)
   143a4:	a00515e3          	bnez	a0,13dae <_vfprintf_r+0x197a>
   143a8:	001a7693          	and	a3,s4,1
   143ac:	a00681e3          	beqz	a3,13dae <_vfprintf_r+0x197a>
   143b0:	b2c1                	j	13d70 <_vfprintf_r+0x193c>
   143b2:	e711                	bnez	a4,143be <_vfprintf_r+0x1f8a>
   143b4:	4c85                	li	s9,1
   143b6:	06600e13          	li	t3,102
   143ba:	4b05                	li	s6,1
   143bc:	beed                	j	13fb6 <_vfprintf_r+0x1b82>
   143be:	57c2                	lw	a5,48(sp)
   143c0:	06600e13          	li	t3,102
   143c4:	00178693          	add	a3,a5,1
   143c8:	00668b33          	add	s6,a3,t1
   143cc:	fffb4813          	not	a6,s6
   143d0:	41f85813          	sra	a6,a6,0x1f
   143d4:	010b7cb3          	and	s9,s6,a6
   143d8:	bef9                	j	13fb6 <_vfprintf_r+0x1b82>
   143da:	47d2                	lw	a5,20(sp)
   143dc:	0007ab03          	lw	s6,0(a5)
   143e0:	0791                	add	a5,a5,4
   143e2:	000b5363          	bgez	s6,143e8 <_vfprintf_r+0x1fb4>
   143e6:	5b7d                	li	s6,-1
   143e8:	00194e03          	lbu	t3,1(s2)
   143ec:	ca3e                	sw	a5,20(sp)
   143ee:	8936                	mv	s2,a3
   143f0:	96efe06f          	j	1255e <_vfprintf_r+0x12a>
   143f4:	4789                	li	a5,2
   143f6:	c0be                	sw	a5,64(sp)
   143f8:	e88ff06f          	j	13a80 <_vfprintf_r+0x164c>
   143fc:	4722                	lw	a4,8(sp)
   143fe:	00c71783          	lh	a5,12(a4)
   14402:	0407e793          	or	a5,a5,64
   14406:	00f71623          	sh	a5,12(a4)
   1440a:	b86fe06f          	j	12790 <_vfprintf_r+0x35c>
   1440e:	04500813          	li	a6,69
   14412:	fd4ff06f          	j	13be6 <_vfprintf_r+0x17b2>
   14416:	47a2                	lw	a5,8(sp)
   14418:	4f42                	lw	t5,16(sp)
   1441a:	00c79783          	lh	a5,12(a5)
   1441e:	0407e793          	or	a5,a5,64
   14422:	b599                	j	14268 <_vfprintf_r+0x1e34>
   14424:	d202                	sw	zero,36(sp)
   14426:	d002                	sw	zero,32(sp)
   14428:	bd4d                	j	142da <_vfprintf_r+0x1ea6>

0001442a <vfprintf>:
   1442a:	86b2                	mv	a3,a2
   1442c:	862e                	mv	a2,a1
   1442e:	85aa                	mv	a1,a0
   14430:	f681a503          	lw	a0,-152(gp) # 1e778 <_impure_ptr>
   14434:	800fe06f          	j	12434 <_vfprintf_r>

00014438 <__sbprintf>:
   14438:	b7010113          	add	sp,sp,-1168
   1443c:	00c59783          	lh	a5,12(a1)
   14440:	00e5d703          	lhu	a4,14(a1)
   14444:	48812423          	sw	s0,1160(sp)
   14448:	842e                	mv	s0,a1
   1444a:	65c1                	lui	a1,0x10
   1444c:	15f5                	add	a1,a1,-3 # fffd <exit-0x97>
   1444e:	06442303          	lw	t1,100(s0)
   14452:	01c42883          	lw	a7,28(s0)
   14456:	02442803          	lw	a6,36(s0)
   1445a:	0742                	sll	a4,a4,0x10
   1445c:	8fed                	and	a5,a5,a1
   1445e:	8fd9                	or	a5,a5,a4
   14460:	40000593          	li	a1,1024
   14464:	49212023          	sw	s2,1152(sp)
   14468:	ca3e                	sw	a5,20(sp)
   1446a:	892a                	mv	s2,a0
   1446c:	189c                	add	a5,sp,112
   1446e:	1088                	add	a0,sp,96
   14470:	48112623          	sw	ra,1164(sp)
   14474:	48912223          	sw	s1,1156(sp)
   14478:	47312e23          	sw	s3,1148(sp)
   1447c:	84b2                	mv	s1,a2
   1447e:	89b6                	mv	s3,a3
   14480:	d69a                	sw	t1,108(sp)
   14482:	d246                	sw	a7,36(sp)
   14484:	d642                	sw	a6,44(sp)
   14486:	c43e                	sw	a5,8(sp)
   14488:	cc3e                	sw	a5,24(sp)
   1448a:	c82e                	sw	a1,16(sp)
   1448c:	ce2e                	sw	a1,28(sp)
   1448e:	d002                	sw	zero,32(sp)
   14490:	cbcfd0ef          	jal	1194c <__retarget_lock_init_recursive>
   14494:	8626                	mv	a2,s1
   14496:	86ce                	mv	a3,s3
   14498:	002c                	add	a1,sp,8
   1449a:	854a                	mv	a0,s2
   1449c:	f99fd0ef          	jal	12434 <_vfprintf_r>
   144a0:	84aa                	mv	s1,a0
   144a2:	02055e63          	bgez	a0,144de <__sbprintf+0xa6>
   144a6:	01415783          	lhu	a5,20(sp)
   144aa:	0407f793          	and	a5,a5,64
   144ae:	c799                	beqz	a5,144bc <__sbprintf+0x84>
   144b0:	00c45783          	lhu	a5,12(s0)
   144b4:	0407e793          	or	a5,a5,64
   144b8:	00f41623          	sh	a5,12(s0)
   144bc:	5506                	lw	a0,96(sp)
   144be:	c92fd0ef          	jal	11950 <__retarget_lock_close_recursive>
   144c2:	48c12083          	lw	ra,1164(sp)
   144c6:	48812403          	lw	s0,1160(sp)
   144ca:	48012903          	lw	s2,1152(sp)
   144ce:	47c12983          	lw	s3,1148(sp)
   144d2:	8526                	mv	a0,s1
   144d4:	48412483          	lw	s1,1156(sp)
   144d8:	49010113          	add	sp,sp,1168
   144dc:	8082                	ret
   144de:	002c                	add	a1,sp,8
   144e0:	854a                	mv	a0,s2
   144e2:	4f6010ef          	jal	159d8 <_fflush_r>
   144e6:	d161                	beqz	a0,144a6 <__sbprintf+0x6e>
   144e8:	54fd                	li	s1,-1
   144ea:	bf75                	j	144a6 <__sbprintf+0x6e>

000144ec <__sprint_r.part.0>:
   144ec:	51fc                	lw	a5,100(a1)
   144ee:	7179                	add	sp,sp,-48
   144f0:	c85a                	sw	s6,16(sp)
   144f2:	d606                	sw	ra,44(sp)
   144f4:	01279713          	sll	a4,a5,0x12
   144f8:	8b32                	mv	s6,a2
   144fa:	08075b63          	bgez	a4,14590 <__sprint_r.part.0+0xa4>
   144fe:	461c                	lw	a5,8(a2)
   14500:	d04a                	sw	s2,32(sp)
   14502:	ce4e                	sw	s3,28(sp)
   14504:	ca56                	sw	s5,20(sp)
   14506:	c65e                	sw	s7,12(sp)
   14508:	892e                	mv	s2,a1
   1450a:	00062b83          	lw	s7,0(a2)
   1450e:	89aa                	mv	s3,a0
   14510:	5afd                	li	s5,-1
   14512:	cbad                	beqz	a5,14584 <__sprint_r.part.0+0x98>
   14514:	d422                	sw	s0,40(sp)
   14516:	d226                	sw	s1,36(sp)
   14518:	cc52                	sw	s4,24(sp)
   1451a:	c462                	sw	s8,8(sp)
   1451c:	004bac03          	lw	s8,4(s7)
   14520:	000ba403          	lw	s0,0(s7)
   14524:	002c5a13          	srl	s4,s8,0x2
   14528:	040a0263          	beqz	s4,1456c <__sprint_r.part.0+0x80>
   1452c:	4481                	li	s1,0
   1452e:	a021                	j	14536 <__sprint_r.part.0+0x4a>
   14530:	0411                	add	s0,s0,4
   14532:	029a0b63          	beq	s4,s1,14568 <__sprint_r.part.0+0x7c>
   14536:	400c                	lw	a1,0(s0)
   14538:	864a                	mv	a2,s2
   1453a:	854e                	mv	a0,s3
   1453c:	2af010ef          	jal	15fea <_fputwc_r>
   14540:	0485                	add	s1,s1,1
   14542:	ff5517e3          	bne	a0,s5,14530 <__sprint_r.part.0+0x44>
   14546:	5422                	lw	s0,40(sp)
   14548:	5492                	lw	s1,36(sp)
   1454a:	5902                	lw	s2,32(sp)
   1454c:	49f2                	lw	s3,28(sp)
   1454e:	4a62                	lw	s4,24(sp)
   14550:	4ad2                	lw	s5,20(sp)
   14552:	4bb2                	lw	s7,12(sp)
   14554:	4c22                	lw	s8,8(sp)
   14556:	557d                	li	a0,-1
   14558:	50b2                	lw	ra,44(sp)
   1455a:	000b2423          	sw	zero,8(s6)
   1455e:	000b2223          	sw	zero,4(s6)
   14562:	4b42                	lw	s6,16(sp)
   14564:	6145                	add	sp,sp,48
   14566:	8082                	ret
   14568:	008b2783          	lw	a5,8(s6)
   1456c:	ffcc7c13          	and	s8,s8,-4
   14570:	418787b3          	sub	a5,a5,s8
   14574:	00fb2423          	sw	a5,8(s6)
   14578:	0ba1                	add	s7,s7,8
   1457a:	f3cd                	bnez	a5,1451c <__sprint_r.part.0+0x30>
   1457c:	5422                	lw	s0,40(sp)
   1457e:	5492                	lw	s1,36(sp)
   14580:	4a62                	lw	s4,24(sp)
   14582:	4c22                	lw	s8,8(sp)
   14584:	5902                	lw	s2,32(sp)
   14586:	49f2                	lw	s3,28(sp)
   14588:	4ad2                	lw	s5,20(sp)
   1458a:	4bb2                	lw	s7,12(sp)
   1458c:	4501                	li	a0,0
   1458e:	b7e9                	j	14558 <__sprint_r.part.0+0x6c>
   14590:	54e010ef          	jal	15ade <__sfvwrite_r>
   14594:	50b2                	lw	ra,44(sp)
   14596:	000b2423          	sw	zero,8(s6)
   1459a:	000b2223          	sw	zero,4(s6)
   1459e:	4b42                	lw	s6,16(sp)
   145a0:	6145                	add	sp,sp,48
   145a2:	8082                	ret

000145a4 <__sprint_r>:
   145a4:	4618                	lw	a4,8(a2)
   145a6:	c311                	beqz	a4,145aa <__sprint_r+0x6>
   145a8:	b791                	j	144ec <__sprint_r.part.0>
   145aa:	00062223          	sw	zero,4(a2)
   145ae:	4501                	li	a0,0
   145b0:	8082                	ret

000145b2 <_vfiprintf_r>:
   145b2:	714d                	add	sp,sp,-336
   145b4:	14912223          	sw	s1,324(sp)
   145b8:	13412c23          	sw	s4,312(sp)
   145bc:	13912223          	sw	s9,292(sp)
   145c0:	84aa                	mv	s1,a0
   145c2:	8a2e                	mv	s4,a1
   145c4:	8cb2                	mv	s9,a2
   145c6:	4581                	li	a1,0
   145c8:	4621                	li	a2,8
   145ca:	0888                	add	a0,sp,80
   145cc:	13612823          	sw	s6,304(sp)
   145d0:	14112623          	sw	ra,332(sp)
   145d4:	8b36                	mv	s6,a3
   145d6:	b8cfd0ef          	jal	11962 <memset>
   145da:	c481                	beqz	s1,145e2 <_vfiprintf_r+0x30>
   145dc:	58dc                	lw	a5,52(s1)
   145de:	6c0786e3          	beqz	a5,154aa <_vfiprintf_r+0xef8>
   145e2:	064a2703          	lw	a4,100(s4)
   145e6:	00ca1783          	lh	a5,12(s4)
   145ea:	8b05                	and	a4,a4,1
   145ec:	e709                	bnez	a4,145f6 <_vfiprintf_r+0x44>
   145ee:	2007f713          	and	a4,a5,512
   145f2:	36070de3          	beqz	a4,1516c <_vfiprintf_r+0xbba>
   145f6:	01279713          	sll	a4,a5,0x12
   145fa:	00074f63          	bltz	a4,14618 <_vfiprintf_r+0x66>
   145fe:	064a2703          	lw	a4,100(s4)
   14602:	6609                	lui	a2,0x2
   14604:	76f9                	lui	a3,0xffffe
   14606:	8fd1                	or	a5,a5,a2
   14608:	16fd                	add	a3,a3,-1 # ffffdfff <__BSS_END__+0xfffdf27b>
   1460a:	07c2                	sll	a5,a5,0x10
   1460c:	87c1                	sra	a5,a5,0x10
   1460e:	8f75                	and	a4,a4,a3
   14610:	00fa1623          	sh	a5,12(s4)
   14614:	06ea2223          	sw	a4,100(s4)
   14618:	0087f713          	and	a4,a5,8
   1461c:	1e070e63          	beqz	a4,14818 <_vfiprintf_r+0x266>
   14620:	010a2703          	lw	a4,16(s4)
   14624:	1e070a63          	beqz	a4,14818 <_vfiprintf_r+0x266>
   14628:	01a7f713          	and	a4,a5,26
   1462c:	46a9                	li	a3,10
   1462e:	20d70263          	beq	a4,a3,14832 <_vfiprintf_r+0x280>
   14632:	13512a23          	sw	s5,308(sp)
   14636:	06c10a93          	add	s5,sp,108
   1463a:	14812423          	sw	s0,328(sp)
   1463e:	15212023          	sw	s2,320(sp)
   14642:	13312e23          	sw	s3,316(sp)
   14646:	13712623          	sw	s7,300(sp)
   1464a:	13812423          	sw	s8,296(sp)
   1464e:	13a12023          	sw	s10,288(sp)
   14652:	11b12e23          	sw	s11,284(sp)
   14656:	d0d6                	sw	s5,96(sp)
   14658:	d482                	sw	zero,104(sp)
   1465a:	d282                	sw	zero,100(sp)
   1465c:	8456                	mv	s0,s5
   1465e:	ca02                	sw	zero,20(sp)
   14660:	d602                	sw	zero,44(sp)
   14662:	d802                	sw	zero,48(sp)
   14664:	da02                	sw	zero,52(sp)
   14666:	c602                	sw	zero,12(sp)
   14668:	d6818913          	add	s2,gp,-664 # 1e578 <__global_locale>
   1466c:	02500993          	li	s3,37
   14670:	00009c17          	auipc	s8,0x9
   14674:	a74c0c13          	add	s8,s8,-1420 # 1d0e4 <blanks.1+0x10>
   14678:	00009b97          	auipc	s7,0x9
   1467c:	bd8b8b93          	add	s7,s7,-1064 # 1d250 <zeroes.0>
   14680:	8d66                	mv	s10,s9
   14682:	8dea                	mv	s11,s10
   14684:	0e492c83          	lw	s9,228(s2)
   14688:	52c020ef          	jal	16bb4 <__locale_mb_cur_max>
   1468c:	86aa                	mv	a3,a0
   1468e:	0898                	add	a4,sp,80
   14690:	866e                	mv	a2,s11
   14692:	00ac                	add	a1,sp,72
   14694:	8526                	mv	a0,s1
   14696:	9c82                	jalr	s9
   14698:	24050d63          	beqz	a0,148f2 <_vfiprintf_r+0x340>
   1469c:	24054363          	bltz	a0,148e2 <_vfiprintf_r+0x330>
   146a0:	47a6                	lw	a5,72(sp)
   146a2:	01378463          	beq	a5,s3,146aa <_vfiprintf_r+0xf8>
   146a6:	9daa                	add	s11,s11,a0
   146a8:	bff1                	j	14684 <_vfiprintf_r+0xd2>
   146aa:	8caa                	mv	s9,a0
   146ac:	41ad87b3          	sub	a5,s11,s10
   146b0:	25ad9663          	bne	s11,s10,148fc <_vfiprintf_r+0x34a>
   146b4:	001dc703          	lbu	a4,1(s11) # 7f0001 <__BSS_END__+0x7d127d>
   146b8:	001d8d13          	add	s10,s11,1
   146bc:	040101a3          	sb	zero,67(sp)
   146c0:	5cfd                	li	s9,-1
   146c2:	4881                	li	a7,0
   146c4:	4e01                	li	t3,0
   146c6:	05a00d93          	li	s11,90
   146ca:	0d05                	add	s10,s10,1
   146cc:	fe070793          	add	a5,a4,-32
   146d0:	02fdeb63          	bltu	s11,a5,14706 <_vfiprintf_r+0x154>
   146d4:	078a                	sll	a5,a5,0x2
   146d6:	97e2                	add	a5,a5,s8
   146d8:	439c                	lw	a5,0(a5)
   146da:	97e2                	add	a5,a5,s8
   146dc:	8782                	jr	a5
   146de:	4881                	li	a7,0
   146e0:	fd070793          	add	a5,a4,-48
   146e4:	4625                	li	a2,9
   146e6:	000d4703          	lbu	a4,0(s10)
   146ea:	00289693          	sll	a3,a7,0x2
   146ee:	98b6                	add	a7,a7,a3
   146f0:	0886                	sll	a7,a7,0x1
   146f2:	98be                	add	a7,a7,a5
   146f4:	fd070793          	add	a5,a4,-48
   146f8:	0d05                	add	s10,s10,1
   146fa:	fef676e3          	bgeu	a2,a5,146e6 <_vfiprintf_r+0x134>
   146fe:	fe070793          	add	a5,a4,-32
   14702:	fcfdf9e3          	bgeu	s11,a5,146d4 <_vfiprintf_r+0x122>
   14706:	22070863          	beqz	a4,14936 <_vfiprintf_r+0x384>
   1470a:	0ae10623          	sb	a4,172(sp)
   1470e:	040101a3          	sb	zero,67(sp)
   14712:	4e85                	li	t4,1
   14714:	4d85                	li	s11,1
   14716:	0ac10813          	add	a6,sp,172
   1471a:	c802                	sw	zero,16(sp)
   1471c:	4c81                	li	s9,0
   1471e:	4f81                	li	t6,0
   14720:	5616                	lw	a2,100(sp)
   14722:	084e7293          	and	t0,t3,132
   14726:	57a6                	lw	a5,104(sp)
   14728:	00160593          	add	a1,a2,1 # 2001 <exit-0xe093>
   1472c:	8f2e                	mv	t5,a1
   1472e:	00029663          	bnez	t0,1473a <_vfiprintf_r+0x188>
   14732:	41d88733          	sub	a4,a7,t4
   14736:	0ce043e3          	bgtz	a4,14ffc <_vfiprintf_r+0xa4a>
   1473a:	04314703          	lbu	a4,67(sp)
   1473e:	cf19                	beqz	a4,1475c <_vfiprintf_r+0x1aa>
   14740:	04310713          	add	a4,sp,67
   14744:	0785                	add	a5,a5,1
   14746:	c018                	sw	a4,0(s0)
   14748:	4705                	li	a4,1
   1474a:	c058                	sw	a4,4(s0)
   1474c:	d4be                	sw	a5,104(sp)
   1474e:	d2fa                	sw	t5,100(sp)
   14750:	471d                	li	a4,7
   14752:	01e74ee3          	blt	a4,t5,14f6e <_vfiprintf_r+0x9bc>
   14756:	867a                	mv	a2,t5
   14758:	0421                	add	s0,s0,8
   1475a:	0f05                	add	t5,t5,1
   1475c:	040f8363          	beqz	t6,147a2 <_vfiprintf_r+0x1f0>
   14760:	00d8                	add	a4,sp,68
   14762:	0789                	add	a5,a5,2
   14764:	c018                	sw	a4,0(s0)
   14766:	4709                	li	a4,2
   14768:	c058                	sw	a4,4(s0)
   1476a:	d4be                	sw	a5,104(sp)
   1476c:	d2fa                	sw	t5,100(sp)
   1476e:	471d                	li	a4,7
   14770:	05e752e3          	bge	a4,t5,14fb4 <_vfiprintf_r+0xa02>
   14774:	1a0787e3          	beqz	a5,15122 <_vfiprintf_r+0xb70>
   14778:	1090                	add	a2,sp,96
   1477a:	85d2                	mv	a1,s4
   1477c:	8526                	mv	a0,s1
   1477e:	d476                	sw	t4,40(sp)
   14780:	d246                	sw	a7,36(sp)
   14782:	d042                	sw	a6,32(sp)
   14784:	ce16                	sw	t0,28(sp)
   14786:	cc72                	sw	t3,24(sp)
   14788:	3395                	jal	144ec <__sprint_r.part.0>
   1478a:	1c051463          	bnez	a0,14952 <_vfiprintf_r+0x3a0>
   1478e:	5616                	lw	a2,100(sp)
   14790:	57a6                	lw	a5,104(sp)
   14792:	5ea2                	lw	t4,40(sp)
   14794:	5892                	lw	a7,36(sp)
   14796:	5802                	lw	a6,32(sp)
   14798:	42f2                	lw	t0,28(sp)
   1479a:	4e62                	lw	t3,24(sp)
   1479c:	8456                	mv	s0,s5
   1479e:	00160f13          	add	t5,a2,1
   147a2:	08000713          	li	a4,128
   147a6:	64e28e63          	beq	t0,a4,14e02 <_vfiprintf_r+0x850>
   147aa:	41bc82b3          	sub	t0,s9,s11
   147ae:	72504063          	bgtz	t0,14ece <_vfiprintf_r+0x91c>
   147b2:	97ee                	add	a5,a5,s11
   147b4:	01042023          	sw	a6,0(s0)
   147b8:	01b42223          	sw	s11,4(s0)
   147bc:	d4be                	sw	a5,104(sp)
   147be:	d2fa                	sw	t5,100(sp)
   147c0:	471d                	li	a4,7
   147c2:	63e75a63          	bge	a4,t5,14df6 <_vfiprintf_r+0x844>
   147c6:	1e078463          	beqz	a5,149ae <_vfiprintf_r+0x3fc>
   147ca:	1090                	add	a2,sp,96
   147cc:	85d2                	mv	a1,s4
   147ce:	8526                	mv	a0,s1
   147d0:	d076                	sw	t4,32(sp)
   147d2:	ce46                	sw	a7,28(sp)
   147d4:	cc72                	sw	t3,24(sp)
   147d6:	3b19                	jal	144ec <__sprint_r.part.0>
   147d8:	16051d63          	bnez	a0,14952 <_vfiprintf_r+0x3a0>
   147dc:	57a6                	lw	a5,104(sp)
   147de:	5e82                	lw	t4,32(sp)
   147e0:	48f2                	lw	a7,28(sp)
   147e2:	4e62                	lw	t3,24(sp)
   147e4:	8456                	mv	s0,s5
   147e6:	004e7e13          	and	t3,t3,4
   147ea:	000e0663          	beqz	t3,147f6 <_vfiprintf_r+0x244>
   147ee:	41d88cb3          	sub	s9,a7,t4
   147f2:	1d904863          	bgtz	s9,149c2 <_vfiprintf_r+0x410>
   147f6:	01d8d363          	bge	a7,t4,147fc <_vfiprintf_r+0x24a>
   147fa:	88f6                	mv	a7,t4
   147fc:	4732                	lw	a4,12(sp)
   147fe:	9746                	add	a4,a4,a7
   14800:	c63a                	sw	a4,12(sp)
   14802:	14079163          	bnez	a5,14944 <_vfiprintf_r+0x392>
   14806:	47c2                	lw	a5,16(sp)
   14808:	d282                	sw	zero,100(sp)
   1480a:	c789                	beqz	a5,14814 <_vfiprintf_r+0x262>
   1480c:	85be                	mv	a1,a5
   1480e:	8526                	mv	a0,s1
   14810:	c3efd0ef          	jal	11c4e <_free_r>
   14814:	8456                	mv	s0,s5
   14816:	b5b5                	j	14682 <_vfiprintf_r+0xd0>
   14818:	85d2                	mv	a1,s4
   1481a:	8526                	mv	a0,s1
   1481c:	61a010ef          	jal	15e36 <__swsetup_r>
   14820:	5e051de3          	bnez	a0,1561a <_vfiprintf_r+0x1068>
   14824:	00ca1783          	lh	a5,12(s4)
   14828:	46a9                	li	a3,10
   1482a:	01a7f713          	and	a4,a5,26
   1482e:	e0d712e3          	bne	a4,a3,14632 <_vfiprintf_r+0x80>
   14832:	00ea1703          	lh	a4,14(s4)
   14836:	de074ee3          	bltz	a4,14632 <_vfiprintf_r+0x80>
   1483a:	064a2703          	lw	a4,100(s4)
   1483e:	8b05                	and	a4,a4,1
   14840:	e709                	bnez	a4,1484a <_vfiprintf_r+0x298>
   14842:	2007f793          	and	a5,a5,512
   14846:	54078fe3          	beqz	a5,155a4 <_vfiprintf_r+0xff2>
   1484a:	86da                	mv	a3,s6
   1484c:	8666                	mv	a2,s9
   1484e:	85d2                	mv	a1,s4
   14850:	8526                	mv	a0,s1
   14852:	653000ef          	jal	156a4 <__sbprintf>
   14856:	14c12083          	lw	ra,332(sp)
   1485a:	c62a                	sw	a0,12(sp)
   1485c:	4532                	lw	a0,12(sp)
   1485e:	14412483          	lw	s1,324(sp)
   14862:	13812a03          	lw	s4,312(sp)
   14866:	13012b03          	lw	s6,304(sp)
   1486a:	12412c83          	lw	s9,292(sp)
   1486e:	6171                	add	sp,sp,336
   14870:	8082                	ret
   14872:	000b2883          	lw	a7,0(s6)
   14876:	0b11                	add	s6,s6,4
   14878:	3208c763          	bltz	a7,14ba6 <_vfiprintf_r+0x5f4>
   1487c:	000d4703          	lbu	a4,0(s10)
   14880:	b5a9                	j	146ca <_vfiprintf_r+0x118>
   14882:	000d4703          	lbu	a4,0(s10)
   14886:	020e6e13          	or	t3,t3,32
   1488a:	b581                	j	146ca <_vfiprintf_r+0x118>
   1488c:	010e6e13          	or	t3,t3,16
   14890:	020e7793          	and	a5,t3,32
   14894:	1e078563          	beqz	a5,14a7e <_vfiprintf_r+0x4cc>
   14898:	0b1d                	add	s6,s6,7
   1489a:	ff8b7b13          	and	s6,s6,-8
   1489e:	004b2783          	lw	a5,4(s6)
   148a2:	000b2d83          	lw	s11,0(s6)
   148a6:	0b21                	add	s6,s6,8
   148a8:	8ebe                	mv	t4,a5
   148aa:	1e07cd63          	bltz	a5,14aa4 <_vfiprintf_r+0x4f2>
   148ae:	200ccb63          	bltz	s9,14ac4 <_vfiprintf_r+0x512>
   148b2:	01dde7b3          	or	a5,s11,t4
   148b6:	f7fe7e13          	and	t3,t3,-129
   148ba:	20079563          	bnez	a5,14ac4 <_vfiprintf_r+0x512>
   148be:	4c0c9be3          	bnez	s9,15594 <_vfiprintf_r+0xfe2>
   148c2:	04314783          	lbu	a5,67(sp)
   148c6:	c802                	sw	zero,16(sp)
   148c8:	4e81                	li	t4,0
   148ca:	4d81                	li	s11,0
   148cc:	11010813          	add	a6,sp,272
   148d0:	c391                	beqz	a5,148d4 <_vfiprintf_r+0x322>
   148d2:	0e85                	add	t4,t4,1
   148d4:	002e7f93          	and	t6,t3,2
   148d8:	e40f84e3          	beqz	t6,14720 <_vfiprintf_r+0x16e>
   148dc:	0e89                	add	t4,t4,2
   148de:	4f89                	li	t6,2
   148e0:	b581                	j	14720 <_vfiprintf_r+0x16e>
   148e2:	4621                	li	a2,8
   148e4:	4581                	li	a1,0
   148e6:	0888                	add	a0,sp,80
   148e8:	87afd0ef          	jal	11962 <memset>
   148ec:	4505                	li	a0,1
   148ee:	9daa                	add	s11,s11,a0
   148f0:	bb51                	j	14684 <_vfiprintf_r+0xd2>
   148f2:	8caa                	mv	s9,a0
   148f4:	41ad87b3          	sub	a5,s11,s10
   148f8:	03ad8f63          	beq	s11,s10,14936 <_vfiprintf_r+0x384>
   148fc:	56a6                	lw	a3,104(sp)
   148fe:	5716                	lw	a4,100(sp)
   14900:	01a42023          	sw	s10,0(s0)
   14904:	96be                	add	a3,a3,a5
   14906:	0705                	add	a4,a4,1
   14908:	c05c                	sw	a5,4(s0)
   1490a:	d4b6                	sw	a3,104(sp)
   1490c:	d2ba                	sw	a4,100(sp)
   1490e:	461d                	li	a2,7
   14910:	0421                	add	s0,s0,8
   14912:	00e65d63          	bge	a2,a4,1492c <_vfiprintf_r+0x37a>
   14916:	7c068763          	beqz	a3,150e4 <_vfiprintf_r+0xb32>
   1491a:	1090                	add	a2,sp,96
   1491c:	85d2                	mv	a1,s4
   1491e:	8526                	mv	a0,s1
   14920:	c83e                	sw	a5,16(sp)
   14922:	bcbff0ef          	jal	144ec <__sprint_r.part.0>
   14926:	47c2                	lw	a5,16(sp)
   14928:	e91d                	bnez	a0,1495e <_vfiprintf_r+0x3ac>
   1492a:	8456                	mv	s0,s5
   1492c:	4732                	lw	a4,12(sp)
   1492e:	97ba                	add	a5,a5,a4
   14930:	c63e                	sw	a5,12(sp)
   14932:	d80c91e3          	bnez	s9,146b4 <_vfiprintf_r+0x102>
   14936:	57a6                	lw	a5,104(sp)
   14938:	4a079ae3          	bnez	a5,155ec <_vfiprintf_r+0x103a>
   1493c:	00ca1783          	lh	a5,12(s4)
   14940:	d282                	sw	zero,100(sp)
   14942:	a005                	j	14962 <_vfiprintf_r+0x3b0>
   14944:	1090                	add	a2,sp,96
   14946:	85d2                	mv	a1,s4
   14948:	8526                	mv	a0,s1
   1494a:	ba3ff0ef          	jal	144ec <__sprint_r.part.0>
   1494e:	ea050ce3          	beqz	a0,14806 <_vfiprintf_r+0x254>
   14952:	47c2                	lw	a5,16(sp)
   14954:	c789                	beqz	a5,1495e <_vfiprintf_r+0x3ac>
   14956:	45c2                	lw	a1,16(sp)
   14958:	8526                	mv	a0,s1
   1495a:	af4fd0ef          	jal	11c4e <_free_r>
   1495e:	00ca1783          	lh	a5,12(s4)
   14962:	064a2703          	lw	a4,100(s4)
   14966:	8b05                	and	a4,a4,1
   14968:	10070063          	beqz	a4,14a68 <_vfiprintf_r+0x4b6>
   1496c:	0407f793          	and	a5,a5,64
   14970:	14812403          	lw	s0,328(sp)
   14974:	14012903          	lw	s2,320(sp)
   14978:	13c12983          	lw	s3,316(sp)
   1497c:	13412a83          	lw	s5,308(sp)
   14980:	12c12b83          	lw	s7,300(sp)
   14984:	12812c03          	lw	s8,296(sp)
   14988:	12012d03          	lw	s10,288(sp)
   1498c:	11c12d83          	lw	s11,284(sp)
   14990:	4a0792e3          	bnez	a5,15634 <_vfiprintf_r+0x1082>
   14994:	14c12083          	lw	ra,332(sp)
   14998:	4532                	lw	a0,12(sp)
   1499a:	14412483          	lw	s1,324(sp)
   1499e:	13812a03          	lw	s4,312(sp)
   149a2:	13012b03          	lw	s6,304(sp)
   149a6:	12412c83          	lw	s9,292(sp)
   149aa:	6171                	add	sp,sp,336
   149ac:	8082                	ret
   149ae:	d282                	sw	zero,100(sp)
   149b0:	004e7e13          	and	t3,t3,4
   149b4:	6e0e0963          	beqz	t3,150a6 <_vfiprintf_r+0xaf4>
   149b8:	41d88cb3          	sub	s9,a7,t4
   149bc:	6f905563          	blez	s9,150a6 <_vfiprintf_r+0xaf4>
   149c0:	8456                	mv	s0,s5
   149c2:	4741                	li	a4,16
   149c4:	5696                	lw	a3,100(sp)
   149c6:	43975ce3          	bge	a4,s9,155fe <_vfiprintf_r+0x104c>
   149ca:	00009317          	auipc	t1,0x9
   149ce:	89630313          	add	t1,t1,-1898 # 1d260 <blanks.1>
   149d2:	85a2                	mv	a1,s0
   149d4:	4841                	li	a6,16
   149d6:	8466                	mv	s0,s9
   149d8:	4d9d                	li	s11,7
   149da:	8cda                	mv	s9,s6
   149dc:	cc46                	sw	a7,24(sp)
   149de:	ce76                	sw	t4,28(sp)
   149e0:	8b1a                	mv	s6,t1
   149e2:	a801                	j	149f2 <_vfiprintf_r+0x440>
   149e4:	00268613          	add	a2,a3,2
   149e8:	05a1                	add	a1,a1,8
   149ea:	86ba                	mv	a3,a4
   149ec:	1441                	add	s0,s0,-16
   149ee:	02885e63          	bge	a6,s0,14a2a <_vfiprintf_r+0x478>
   149f2:	07c1                	add	a5,a5,16
   149f4:	00168713          	add	a4,a3,1
   149f8:	0165a023          	sw	s6,0(a1)
   149fc:	0105a223          	sw	a6,4(a1)
   14a00:	d4be                	sw	a5,104(sp)
   14a02:	d2ba                	sw	a4,100(sp)
   14a04:	feedd0e3          	bge	s11,a4,149e4 <_vfiprintf_r+0x432>
   14a08:	3e078963          	beqz	a5,14dfa <_vfiprintf_r+0x848>
   14a0c:	1090                	add	a2,sp,96
   14a0e:	85d2                	mv	a1,s4
   14a10:	8526                	mv	a0,s1
   14a12:	adbff0ef          	jal	144ec <__sprint_r.part.0>
   14a16:	fd15                	bnez	a0,14952 <_vfiprintf_r+0x3a0>
   14a18:	5696                	lw	a3,100(sp)
   14a1a:	4841                	li	a6,16
   14a1c:	1441                	add	s0,s0,-16
   14a1e:	57a6                	lw	a5,104(sp)
   14a20:	85d6                	mv	a1,s5
   14a22:	00168613          	add	a2,a3,1
   14a26:	fc8846e3          	blt	a6,s0,149f2 <_vfiprintf_r+0x440>
   14a2a:	48e2                	lw	a7,24(sp)
   14a2c:	4ef2                	lw	t4,28(sp)
   14a2e:	835a                	mv	t1,s6
   14a30:	8b66                	mv	s6,s9
   14a32:	8ca2                	mv	s9,s0
   14a34:	842e                	mv	s0,a1
   14a36:	97e6                	add	a5,a5,s9
   14a38:	00642023          	sw	t1,0(s0)
   14a3c:	01942223          	sw	s9,4(s0)
   14a40:	d4be                	sw	a5,104(sp)
   14a42:	d2b2                	sw	a2,100(sp)
   14a44:	471d                	li	a4,7
   14a46:	dac758e3          	bge	a4,a2,147f6 <_vfiprintf_r+0x244>
   14a4a:	64078e63          	beqz	a5,150a6 <_vfiprintf_r+0xaf4>
   14a4e:	1090                	add	a2,sp,96
   14a50:	85d2                	mv	a1,s4
   14a52:	8526                	mv	a0,s1
   14a54:	ce76                	sw	t4,28(sp)
   14a56:	cc46                	sw	a7,24(sp)
   14a58:	a95ff0ef          	jal	144ec <__sprint_r.part.0>
   14a5c:	ee051be3          	bnez	a0,14952 <_vfiprintf_r+0x3a0>
   14a60:	57a6                	lw	a5,104(sp)
   14a62:	4ef2                	lw	t4,28(sp)
   14a64:	48e2                	lw	a7,24(sp)
   14a66:	bb41                	j	147f6 <_vfiprintf_r+0x244>
   14a68:	2007f713          	and	a4,a5,512
   14a6c:	f00710e3          	bnez	a4,1496c <_vfiprintf_r+0x3ba>
   14a70:	058a2503          	lw	a0,88(s4)
   14a74:	eedfc0ef          	jal	11960 <__retarget_lock_release_recursive>
   14a78:	00ca1783          	lh	a5,12(s4)
   14a7c:	bdc5                	j	1496c <_vfiprintf_r+0x3ba>
   14a7e:	010e7793          	and	a5,t3,16
   14a82:	000b2d83          	lw	s11,0(s6)
   14a86:	0b11                	add	s6,s6,4
   14a88:	70079463          	bnez	a5,15190 <_vfiprintf_r+0xbde>
   14a8c:	040e7793          	and	a5,t3,64
   14a90:	6e078c63          	beqz	a5,15188 <_vfiprintf_r+0xbd6>
   14a94:	0dc2                	sll	s11,s11,0x10
   14a96:	410ddd93          	sra	s11,s11,0x10
   14a9a:	41fdde93          	sra	t4,s11,0x1f
   14a9e:	87f6                	mv	a5,t4
   14aa0:	e007d7e3          	bgez	a5,148ae <_vfiprintf_r+0x2fc>
   14aa4:	02d00713          	li	a4,45
   14aa8:	01b037b3          	snez	a5,s11
   14aac:	41d00eb3          	neg	t4,t4
   14ab0:	04e101a3          	sb	a4,67(sp)
   14ab4:	40fe8eb3          	sub	t4,t4,a5
   14ab8:	41b00db3          	neg	s11,s11
   14abc:	000cc463          	bltz	s9,14ac4 <_vfiprintf_r+0x512>
   14ac0:	f7fe7e13          	and	t3,t3,-129
   14ac4:	080e92e3          	bnez	t4,15348 <_vfiprintf_r+0xd96>
   14ac8:	47a5                	li	a5,9
   14aca:	07b7efe3          	bltu	a5,s11,15348 <_vfiprintf_r+0xd96>
   14ace:	030d8793          	add	a5,s11,48
   14ad2:	0ff7f793          	zext.b	a5,a5
   14ad6:	10f107a3          	sb	a5,271(sp)
   14ada:	8ee6                	mv	t4,s9
   14adc:	01904363          	bgtz	s9,14ae2 <_vfiprintf_r+0x530>
   14ae0:	4e85                	li	t4,1
   14ae2:	4d85                	li	s11,1
   14ae4:	10f10813          	add	a6,sp,271
   14ae8:	04314783          	lbu	a5,67(sp)
   14aec:	c802                	sw	zero,16(sp)
   14aee:	de0792e3          	bnez	a5,148d2 <_vfiprintf_r+0x320>
   14af2:	b3cd                	j	148d4 <_vfiprintf_r+0x322>
   14af4:	000b2803          	lw	a6,0(s6)
   14af8:	004b0793          	add	a5,s6,4
   14afc:	040101a3          	sb	zero,67(sp)
   14b00:	cc3e                	sw	a5,24(sp)
   14b02:	1c080ee3          	beqz	a6,154de <_vfiprintf_r+0xf2c>
   14b06:	05300793          	li	a5,83
   14b0a:	74f70663          	beq	a4,a5,15256 <_vfiprintf_r+0xca4>
   14b0e:	010e7793          	and	a5,t3,16
   14b12:	74079263          	bnez	a5,15256 <_vfiprintf_r+0xca4>
   14b16:	d246                	sw	a7,36(sp)
   14b18:	d072                	sw	t3,32(sp)
   14b1a:	2a0cc9e3          	bltz	s9,155cc <_vfiprintf_r+0x101a>
   14b1e:	8542                	mv	a0,a6
   14b20:	8666                	mv	a2,s9
   14b22:	4581                	li	a1,0
   14b24:	ce42                	sw	a6,28(sp)
   14b26:	5d0010ef          	jal	160f6 <memchr>
   14b2a:	c82a                	sw	a0,16(sp)
   14b2c:	4872                	lw	a6,28(sp)
   14b2e:	5e02                	lw	t3,32(sp)
   14b30:	5892                	lw	a7,36(sp)
   14b32:	26050fe3          	beqz	a0,155b0 <_vfiprintf_r+0xffe>
   14b36:	41050db3          	sub	s11,a0,a6
   14b3a:	fffdce93          	not	t4,s11
   14b3e:	41fede93          	sra	t4,t4,0x1f
   14b42:	01ddfeb3          	and	t4,s11,t4
   14b46:	c802                	sw	zero,16(sp)
   14b48:	1f10006f          	j	15538 <_vfiprintf_r+0xf86>
   14b4c:	04300793          	li	a5,67
   14b50:	004b0813          	add	a6,s6,4
   14b54:	00f70663          	beq	a4,a5,14b60 <_vfiprintf_r+0x5ae>
   14b58:	010e7793          	and	a5,t3,16
   14b5c:	66078463          	beqz	a5,151c4 <_vfiprintf_r+0xc12>
   14b60:	4621                	li	a2,8
   14b62:	4581                	li	a1,0
   14b64:	08a8                	add	a0,sp,88
   14b66:	ce42                	sw	a6,28(sp)
   14b68:	cc46                	sw	a7,24(sp)
   14b6a:	c872                	sw	t3,16(sp)
   14b6c:	df7fc0ef          	jal	11962 <memset>
   14b70:	000b2603          	lw	a2,0(s6)
   14b74:	0ac10c93          	add	s9,sp,172
   14b78:	08b4                	add	a3,sp,88
   14b7a:	85e6                	mv	a1,s9
   14b7c:	8526                	mv	a0,s1
   14b7e:	10a050ef          	jal	19c88 <_wcrtomb_r>
   14b82:	57fd                	li	a5,-1
   14b84:	4e42                	lw	t3,16(sp)
   14b86:	48e2                	lw	a7,24(sp)
   14b88:	4872                	lw	a6,28(sp)
   14b8a:	8daa                	mv	s11,a0
   14b8c:	2cf50ae3          	beq	a0,a5,15660 <_vfiprintf_r+0x10ae>
   14b90:	fff54e93          	not	t4,a0
   14b94:	41fede93          	sra	t4,t4,0x1f
   14b98:	01d57eb3          	and	t4,a0,t4
   14b9c:	8b42                	mv	s6,a6
   14b9e:	040101a3          	sb	zero,67(sp)
   14ba2:	8866                	mv	a6,s9
   14ba4:	be9d                	j	1471a <_vfiprintf_r+0x168>
   14ba6:	411008b3          	neg	a7,a7
   14baa:	000d4703          	lbu	a4,0(s10)
   14bae:	004e6e13          	or	t3,t3,4
   14bb2:	be21                	j	146ca <_vfiprintf_r+0x118>
   14bb4:	02b00793          	li	a5,43
   14bb8:	000d4703          	lbu	a4,0(s10)
   14bbc:	04f101a3          	sb	a5,67(sp)
   14bc0:	b629                	j	146ca <_vfiprintf_r+0x118>
   14bc2:	000d4703          	lbu	a4,0(s10)
   14bc6:	080e6e13          	or	t3,t3,128
   14bca:	b601                	j	146ca <_vfiprintf_r+0x118>
   14bcc:	000d4703          	lbu	a4,0(s10)
   14bd0:	02a00793          	li	a5,42
   14bd4:	001d0613          	add	a2,s10,1
   14bd8:	28f70ce3          	beq	a4,a5,15670 <_vfiprintf_r+0x10be>
   14bdc:	fd070793          	add	a5,a4,-48
   14be0:	46a5                	li	a3,9
   14be2:	4c81                	li	s9,0
   14be4:	45a5                	li	a1,9
   14be6:	02f6e063          	bltu	a3,a5,14c06 <_vfiprintf_r+0x654>
   14bea:	00064703          	lbu	a4,0(a2)
   14bee:	002c9693          	sll	a3,s9,0x2
   14bf2:	9cb6                	add	s9,s9,a3
   14bf4:	0c86                	sll	s9,s9,0x1
   14bf6:	9cbe                	add	s9,s9,a5
   14bf8:	fd070793          	add	a5,a4,-48
   14bfc:	0605                	add	a2,a2,1
   14bfe:	fef5f6e3          	bgeu	a1,a5,14bea <_vfiprintf_r+0x638>
   14c02:	5c0ccd63          	bltz	s9,151dc <_vfiprintf_r+0xc2a>
   14c06:	8d32                	mv	s10,a2
   14c08:	b4d1                	j	146cc <_vfiprintf_r+0x11a>
   14c0a:	8526                	mv	a0,s1
   14c0c:	cc46                	sw	a7,24(sp)
   14c0e:	c872                	sw	t3,16(sp)
   14c10:	7bd010ef          	jal	16bcc <_localeconv_r>
   14c14:	415c                	lw	a5,4(a0)
   14c16:	853e                	mv	a0,a5
   14c18:	da3e                	sw	a5,52(sp)
   14c1a:	200020ef          	jal	16e1a <strlen>
   14c1e:	87aa                	mv	a5,a0
   14c20:	8526                	mv	a0,s1
   14c22:	d83e                	sw	a5,48(sp)
   14c24:	7a9010ef          	jal	16bcc <_localeconv_r>
   14c28:	4518                	lw	a4,8(a0)
   14c2a:	57c2                	lw	a5,48(sp)
   14c2c:	4e42                	lw	t3,16(sp)
   14c2e:	d63a                	sw	a4,44(sp)
   14c30:	48e2                	lw	a7,24(sp)
   14c32:	c40785e3          	beqz	a5,1487c <_vfiprintf_r+0x2ca>
   14c36:	57b2                	lw	a5,44(sp)
   14c38:	000d4703          	lbu	a4,0(s10)
   14c3c:	a80787e3          	beqz	a5,146ca <_vfiprintf_r+0x118>
   14c40:	0007c783          	lbu	a5,0(a5)
   14c44:	a80783e3          	beqz	a5,146ca <_vfiprintf_r+0x118>
   14c48:	400e6e13          	or	t3,t3,1024
   14c4c:	bcbd                	j	146ca <_vfiprintf_r+0x118>
   14c4e:	000d4703          	lbu	a4,0(s10)
   14c52:	001e6e13          	or	t3,t3,1
   14c56:	bc95                	j	146ca <_vfiprintf_r+0x118>
   14c58:	04314783          	lbu	a5,67(sp)
   14c5c:	000d4703          	lbu	a4,0(s10)
   14c60:	a60795e3          	bnez	a5,146ca <_vfiprintf_r+0x118>
   14c64:	02000793          	li	a5,32
   14c68:	04f101a3          	sb	a5,67(sp)
   14c6c:	bcb9                	j	146ca <_vfiprintf_r+0x118>
   14c6e:	010e6713          	or	a4,t3,16
   14c72:	02077793          	and	a5,a4,32
   14c76:	48078963          	beqz	a5,15108 <_vfiprintf_r+0xb56>
   14c7a:	0b1d                	add	s6,s6,7
   14c7c:	ff8b7b13          	and	s6,s6,-8
   14c80:	000b2783          	lw	a5,0(s6)
   14c84:	004b2603          	lw	a2,4(s6)
   14c88:	0b21                	add	s6,s6,8
   14c8a:	040101a3          	sb	zero,67(sp)
   14c8e:	bff77e13          	and	t3,a4,-1025
   14c92:	0a0cc163          	bltz	s9,14d34 <_vfiprintf_r+0x782>
   14c96:	00c7e6b3          	or	a3,a5,a2
   14c9a:	b7f77713          	and	a4,a4,-1153
   14c9e:	000691e3          	bnez	a3,154a0 <_vfiprintf_r+0xeee>
   14ca2:	86f2                	mv	a3,t3
   14ca4:	4781                	li	a5,0
   14ca6:	8e3a                	mv	t3,a4
   14ca8:	060c9e63          	bnez	s9,14d24 <_vfiprintf_r+0x772>
   14cac:	c0079be3          	bnez	a5,148c2 <_vfiprintf_r+0x310>
   14cb0:	0016fd93          	and	s11,a3,1
   14cb4:	4a0d8863          	beqz	s11,15164 <_vfiprintf_r+0xbb2>
   14cb8:	03000793          	li	a5,48
   14cbc:	10f107a3          	sb	a5,271(sp)
   14cc0:	8eee                	mv	t4,s11
   14cc2:	10f10813          	add	a6,sp,271
   14cc6:	b50d                	j	14ae8 <_vfiprintf_r+0x536>
   14cc8:	000d4703          	lbu	a4,0(s10)
   14ccc:	06c00793          	li	a5,108
   14cd0:	7ef70963          	beq	a4,a5,154c2 <_vfiprintf_r+0xf10>
   14cd4:	010e6e13          	or	t3,t3,16
   14cd8:	bacd                	j	146ca <_vfiprintf_r+0x118>
   14cda:	000d4703          	lbu	a4,0(s10)
   14cde:	06800793          	li	a5,104
   14ce2:	7cf70963          	beq	a4,a5,154b4 <_vfiprintf_r+0xf02>
   14ce6:	040e6e13          	or	t3,t3,64
   14cea:	b2c5                	j	146ca <_vfiprintf_r+0x118>
   14cec:	010e6693          	or	a3,t3,16
   14cf0:	0206f793          	and	a5,a3,32
   14cf4:	3e078b63          	beqz	a5,150ea <_vfiprintf_r+0xb38>
   14cf8:	0b1d                	add	s6,s6,7
   14cfa:	ff8b7b13          	and	s6,s6,-8
   14cfe:	000b2d83          	lw	s11,0(s6)
   14d02:	004b2e83          	lw	t4,4(s6)
   14d06:	0b21                	add	s6,s6,8
   14d08:	040101a3          	sb	zero,67(sp)
   14d0c:	8e36                	mv	t3,a3
   14d0e:	da0ccbe3          	bltz	s9,14ac4 <_vfiprintf_r+0x512>
   14d12:	01dde7b3          	or	a5,s11,t4
   14d16:	f7f6fe13          	and	t3,a3,-129
   14d1a:	da0795e3          	bnez	a5,14ac4 <_vfiprintf_r+0x512>
   14d1e:	4785                	li	a5,1
   14d20:	f80c86e3          	beqz	s9,14cac <_vfiprintf_r+0x6fa>
   14d24:	4705                	li	a4,1
   14d26:	06e787e3          	beq	a5,a4,15594 <_vfiprintf_r+0xfe2>
   14d2a:	4709                	li	a4,2
   14d2c:	7ce78e63          	beq	a5,a4,15508 <_vfiprintf_r+0xf56>
   14d30:	4781                	li	a5,0
   14d32:	4601                	li	a2,0
   14d34:	11010813          	add	a6,sp,272
   14d38:	01d61693          	sll	a3,a2,0x1d
   14d3c:	0077f713          	and	a4,a5,7
   14d40:	838d                	srl	a5,a5,0x3
   14d42:	03070713          	add	a4,a4,48
   14d46:	8fd5                	or	a5,a5,a3
   14d48:	820d                	srl	a2,a2,0x3
   14d4a:	fee80fa3          	sb	a4,-1(a6)
   14d4e:	00c7e6b3          	or	a3,a5,a2
   14d52:	85c2                	mv	a1,a6
   14d54:	187d                	add	a6,a6,-1
   14d56:	f2ed                	bnez	a3,14d38 <_vfiprintf_r+0x786>
   14d58:	001e7793          	and	a5,t3,1
   14d5c:	28078863          	beqz	a5,14fec <_vfiprintf_r+0xa3a>
   14d60:	03000793          	li	a5,48
   14d64:	28f70463          	beq	a4,a5,14fec <_vfiprintf_r+0xa3a>
   14d68:	15f9                	add	a1,a1,-2
   14d6a:	fef80fa3          	sb	a5,-1(a6)
   14d6e:	0a1c                	add	a5,sp,272
   14d70:	40b78db3          	sub	s11,a5,a1
   14d74:	8ee6                	mv	t4,s9
   14d76:	47bcc063          	blt	s9,s11,151d6 <_vfiprintf_r+0xc24>
   14d7a:	882e                	mv	a6,a1
   14d7c:	b3b5                	j	14ae8 <_vfiprintf_r+0x536>
   14d7e:	6721                	lui	a4,0x8
   14d80:	83070713          	add	a4,a4,-2000 # 7830 <exit-0x8864>
   14d84:	04e11223          	sh	a4,68(sp)
   14d88:	00008717          	auipc	a4,0x8
   14d8c:	d5470713          	add	a4,a4,-684 # 1cadc <__trunctfdf2+0x2de>
   14d90:	000b2783          	lw	a5,0(s6)
   14d94:	4601                	li	a2,0
   14d96:	002e6e13          	or	t3,t3,2
   14d9a:	0b11                	add	s6,s6,4
   14d9c:	ca3a                	sw	a4,20(sp)
   14d9e:	040101a3          	sb	zero,67(sp)
   14da2:	220cc263          	bltz	s9,14fc6 <_vfiprintf_r+0xa14>
   14da6:	00c7e733          	or	a4,a5,a2
   14daa:	f7fe7593          	and	a1,t3,-129
   14dae:	20071863          	bnez	a4,14fbe <_vfiprintf_r+0xa0c>
   14db2:	86f2                	mv	a3,t3
   14db4:	4789                	li	a5,2
   14db6:	8e2e                	mv	t3,a1
   14db8:	bdc5                	j	14ca8 <_vfiprintf_r+0x6f6>
   14dba:	020e7793          	and	a5,t3,32
   14dbe:	3e079463          	bnez	a5,151a6 <_vfiprintf_r+0xbf4>
   14dc2:	010e7793          	and	a5,t3,16
   14dc6:	70079563          	bnez	a5,154d0 <_vfiprintf_r+0xf1e>
   14dca:	040e7793          	and	a5,t3,64
   14dce:	78079a63          	bnez	a5,15562 <_vfiprintf_r+0xfb0>
   14dd2:	200e7e13          	and	t3,t3,512
   14dd6:	6e0e0d63          	beqz	t3,154d0 <_vfiprintf_r+0xf1e>
   14dda:	000b2783          	lw	a5,0(s6)
   14dde:	4732                	lw	a4,12(sp)
   14de0:	0b11                	add	s6,s6,4
   14de2:	00e78023          	sb	a4,0(a5)
   14de6:	b871                	j	14682 <_vfiprintf_r+0xd0>
   14de8:	4705                	li	a4,1
   14dea:	87ee                	mv	a5,s11
   14dec:	d6c2                	sw	a6,108(sp)
   14dee:	d8ee                	sw	s11,112(sp)
   14df0:	d4ee                	sw	s11,104(sp)
   14df2:	d2ba                	sw	a4,100(sp)
   14df4:	8456                	mv	s0,s5
   14df6:	0421                	add	s0,s0,8
   14df8:	b2fd                	j	147e6 <_vfiprintf_r+0x234>
   14dfa:	4605                	li	a2,1
   14dfc:	4681                	li	a3,0
   14dfe:	85d6                	mv	a1,s5
   14e00:	b6f5                	j	149ec <_vfiprintf_r+0x43a>
   14e02:	41d88733          	sub	a4,a7,t4
   14e06:	9ae052e3          	blez	a4,147aa <_vfiprintf_r+0x1f8>
   14e0a:	45c1                	li	a1,16
   14e0c:	00e5d1e3          	bge	a1,a4,1560e <_vfiprintf_r+0x105c>
   14e10:	00008f97          	auipc	t6,0x8
   14e14:	440f8f93          	add	t6,t6,1088 # 1d250 <zeroes.0>
   14e18:	85a2                	mv	a1,s0
   14e1a:	d45a                	sw	s6,40(sp)
   14e1c:	4f41                	li	t5,16
   14e1e:	429d                	li	t0,7
   14e20:	cc72                	sw	t3,24(sp)
   14e22:	ce42                	sw	a6,28(sp)
   14e24:	d046                	sw	a7,32(sp)
   14e26:	d276                	sw	t4,36(sp)
   14e28:	843a                	mv	s0,a4
   14e2a:	8b7e                	mv	s6,t6
   14e2c:	a801                	j	14e3c <_vfiprintf_r+0x88a>
   14e2e:	00260513          	add	a0,a2,2
   14e32:	05a1                	add	a1,a1,8
   14e34:	8636                	mv	a2,a3
   14e36:	1441                	add	s0,s0,-16
   14e38:	048f5063          	bge	t5,s0,14e78 <_vfiprintf_r+0x8c6>
   14e3c:	07c1                	add	a5,a5,16
   14e3e:	00160693          	add	a3,a2,1
   14e42:	0165a023          	sw	s6,0(a1)
   14e46:	01e5a223          	sw	t5,4(a1)
   14e4a:	d4be                	sw	a5,104(sp)
   14e4c:	d2b6                	sw	a3,100(sp)
   14e4e:	fed2d0e3          	bge	t0,a3,14e2e <_vfiprintf_r+0x87c>
   14e52:	10078a63          	beqz	a5,14f66 <_vfiprintf_r+0x9b4>
   14e56:	1090                	add	a2,sp,96
   14e58:	85d2                	mv	a1,s4
   14e5a:	8526                	mv	a0,s1
   14e5c:	e90ff0ef          	jal	144ec <__sprint_r.part.0>
   14e60:	ae0519e3          	bnez	a0,14952 <_vfiprintf_r+0x3a0>
   14e64:	5616                	lw	a2,100(sp)
   14e66:	4f41                	li	t5,16
   14e68:	1441                	add	s0,s0,-16
   14e6a:	57a6                	lw	a5,104(sp)
   14e6c:	85d6                	mv	a1,s5
   14e6e:	00160513          	add	a0,a2,1
   14e72:	429d                	li	t0,7
   14e74:	fc8f44e3          	blt	t5,s0,14e3c <_vfiprintf_r+0x88a>
   14e78:	8fda                	mv	t6,s6
   14e7a:	4e62                	lw	t3,24(sp)
   14e7c:	4872                	lw	a6,28(sp)
   14e7e:	5882                	lw	a7,32(sp)
   14e80:	5e92                	lw	t4,36(sp)
   14e82:	5b22                	lw	s6,40(sp)
   14e84:	8722                	mv	a4,s0
   14e86:	842e                	mv	s0,a1
   14e88:	97ba                	add	a5,a5,a4
   14e8a:	c058                	sw	a4,4(s0)
   14e8c:	01f42023          	sw	t6,0(s0)
   14e90:	d4be                	sw	a5,104(sp)
   14e92:	d2aa                	sw	a0,100(sp)
   14e94:	471d                	li	a4,7
   14e96:	2ea75363          	bge	a4,a0,1517c <_vfiprintf_r+0xbca>
   14e9a:	6a078863          	beqz	a5,1554a <_vfiprintf_r+0xf98>
   14e9e:	1090                	add	a2,sp,96
   14ea0:	85d2                	mv	a1,s4
   14ea2:	8526                	mv	a0,s1
   14ea4:	d276                	sw	t4,36(sp)
   14ea6:	d046                	sw	a7,32(sp)
   14ea8:	ce42                	sw	a6,28(sp)
   14eaa:	cc72                	sw	t3,24(sp)
   14eac:	e40ff0ef          	jal	144ec <__sprint_r.part.0>
   14eb0:	aa0511e3          	bnez	a0,14952 <_vfiprintf_r+0x3a0>
   14eb4:	5616                	lw	a2,100(sp)
   14eb6:	41bc82b3          	sub	t0,s9,s11
   14eba:	57a6                	lw	a5,104(sp)
   14ebc:	5e92                	lw	t4,36(sp)
   14ebe:	5882                	lw	a7,32(sp)
   14ec0:	4872                	lw	a6,28(sp)
   14ec2:	4e62                	lw	t3,24(sp)
   14ec4:	8456                	mv	s0,s5
   14ec6:	00160f13          	add	t5,a2,1
   14eca:	8e5054e3          	blez	t0,147b2 <_vfiprintf_r+0x200>
   14ece:	4741                	li	a4,16
   14ed0:	00008f97          	auipc	t6,0x8
   14ed4:	380f8f93          	add	t6,t6,896 # 1d250 <zeroes.0>
   14ed8:	06575663          	bge	a4,t0,14f44 <_vfiprintf_r+0x992>
   14edc:	85a2                	mv	a1,s0
   14ede:	4cc1                	li	s9,16
   14ee0:	471d                	li	a4,7
   14ee2:	cc72                	sw	t3,24(sp)
   14ee4:	ce42                	sw	a6,28(sp)
   14ee6:	d046                	sw	a7,32(sp)
   14ee8:	d276                	sw	t4,36(sp)
   14eea:	8416                	mv	s0,t0
   14eec:	d45e                	sw	s7,40(sp)
   14eee:	a801                	j	14efe <_vfiprintf_r+0x94c>
   14ef0:	00260f13          	add	t5,a2,2
   14ef4:	05a1                	add	a1,a1,8
   14ef6:	8636                	mv	a2,a3
   14ef8:	1441                	add	s0,s0,-16
   14efa:	028cde63          	bge	s9,s0,14f36 <_vfiprintf_r+0x984>
   14efe:	07c1                	add	a5,a5,16
   14f00:	00160693          	add	a3,a2,1
   14f04:	0175a023          	sw	s7,0(a1)
   14f08:	0195a223          	sw	s9,4(a1)
   14f0c:	d4be                	sw	a5,104(sp)
   14f0e:	d2b6                	sw	a3,100(sp)
   14f10:	fed750e3          	bge	a4,a3,14ef0 <_vfiprintf_r+0x93e>
   14f14:	c7a9                	beqz	a5,14f5e <_vfiprintf_r+0x9ac>
   14f16:	1090                	add	a2,sp,96
   14f18:	85d2                	mv	a1,s4
   14f1a:	8526                	mv	a0,s1
   14f1c:	dd0ff0ef          	jal	144ec <__sprint_r.part.0>
   14f20:	a20519e3          	bnez	a0,14952 <_vfiprintf_r+0x3a0>
   14f24:	5616                	lw	a2,100(sp)
   14f26:	1441                	add	s0,s0,-16
   14f28:	57a6                	lw	a5,104(sp)
   14f2a:	85d6                	mv	a1,s5
   14f2c:	00160f13          	add	t5,a2,1
   14f30:	471d                	li	a4,7
   14f32:	fc8cc6e3          	blt	s9,s0,14efe <_vfiprintf_r+0x94c>
   14f36:	4e62                	lw	t3,24(sp)
   14f38:	4872                	lw	a6,28(sp)
   14f3a:	5882                	lw	a7,32(sp)
   14f3c:	5e92                	lw	t4,36(sp)
   14f3e:	5fa2                	lw	t6,40(sp)
   14f40:	82a2                	mv	t0,s0
   14f42:	842e                	mv	s0,a1
   14f44:	9796                	add	a5,a5,t0
   14f46:	01f42023          	sw	t6,0(s0)
   14f4a:	00542223          	sw	t0,4(s0)
   14f4e:	d4be                	sw	a5,104(sp)
   14f50:	d2fa                	sw	t5,100(sp)
   14f52:	471d                	li	a4,7
   14f54:	17e74163          	blt	a4,t5,150b6 <_vfiprintf_r+0xb04>
   14f58:	0421                	add	s0,s0,8
   14f5a:	0f05                	add	t5,t5,1
   14f5c:	b899                	j	147b2 <_vfiprintf_r+0x200>
   14f5e:	4f05                	li	t5,1
   14f60:	4601                	li	a2,0
   14f62:	85d6                	mv	a1,s5
   14f64:	bf51                	j	14ef8 <_vfiprintf_r+0x946>
   14f66:	4505                	li	a0,1
   14f68:	4601                	li	a2,0
   14f6a:	85d6                	mv	a1,s5
   14f6c:	b5e9                	j	14e36 <_vfiprintf_r+0x884>
   14f6e:	cb9d                	beqz	a5,14fa4 <_vfiprintf_r+0x9f2>
   14f70:	1090                	add	a2,sp,96
   14f72:	85d2                	mv	a1,s4
   14f74:	8526                	mv	a0,s1
   14f76:	dc76                	sw	t4,56(sp)
   14f78:	d446                	sw	a7,40(sp)
   14f7a:	d242                	sw	a6,36(sp)
   14f7c:	d016                	sw	t0,32(sp)
   14f7e:	ce7e                	sw	t6,28(sp)
   14f80:	cc72                	sw	t3,24(sp)
   14f82:	d6aff0ef          	jal	144ec <__sprint_r.part.0>
   14f86:	9c0516e3          	bnez	a0,14952 <_vfiprintf_r+0x3a0>
   14f8a:	5616                	lw	a2,100(sp)
   14f8c:	57a6                	lw	a5,104(sp)
   14f8e:	5ee2                	lw	t4,56(sp)
   14f90:	58a2                	lw	a7,40(sp)
   14f92:	5812                	lw	a6,36(sp)
   14f94:	5282                	lw	t0,32(sp)
   14f96:	4ff2                	lw	t6,28(sp)
   14f98:	4e62                	lw	t3,24(sp)
   14f9a:	8456                	mv	s0,s5
   14f9c:	00160f13          	add	t5,a2,1
   14fa0:	fbcff06f          	j	1475c <_vfiprintf_r+0x1aa>
   14fa4:	200f8b63          	beqz	t6,151ba <_vfiprintf_r+0xc08>
   14fa8:	00dc                	add	a5,sp,68
   14faa:	d6be                	sw	a5,108(sp)
   14fac:	4789                	li	a5,2
   14fae:	d8be                	sw	a5,112(sp)
   14fb0:	4f05                	li	t5,1
   14fb2:	8456                	mv	s0,s5
   14fb4:	867a                	mv	a2,t5
   14fb6:	0421                	add	s0,s0,8
   14fb8:	0f05                	add	t5,t5,1
   14fba:	fe8ff06f          	j	147a2 <_vfiprintf_r+0x1f0>
   14fbe:	4709                	li	a4,2
   14fc0:	8e2e                	mv	t3,a1
   14fc2:	d60709e3          	beqz	a4,14d34 <_vfiprintf_r+0x782>
   14fc6:	45d2                	lw	a1,20(sp)
   14fc8:	11010813          	add	a6,sp,272
   14fcc:	00f7f713          	and	a4,a5,15
   14fd0:	972e                	add	a4,a4,a1
   14fd2:	00074683          	lbu	a3,0(a4)
   14fd6:	8391                	srl	a5,a5,0x4
   14fd8:	01c61713          	sll	a4,a2,0x1c
   14fdc:	8fd9                	or	a5,a5,a4
   14fde:	8211                	srl	a2,a2,0x4
   14fe0:	fed80fa3          	sb	a3,-1(a6)
   14fe4:	00c7e733          	or	a4,a5,a2
   14fe8:	187d                	add	a6,a6,-1
   14fea:	f36d                	bnez	a4,14fcc <_vfiprintf_r+0xa1a>
   14fec:	0a1c                	add	a5,sp,272
   14fee:	41078db3          	sub	s11,a5,a6
   14ff2:	8ee6                	mv	t4,s9
   14ff4:	afbcdae3          	bge	s9,s11,14ae8 <_vfiprintf_r+0x536>
   14ff8:	8eee                	mv	t4,s11
   14ffa:	b4fd                	j	14ae8 <_vfiprintf_r+0x536>
   14ffc:	4541                	li	a0,16
   14ffe:	5ce55163          	bge	a0,a4,155c0 <_vfiprintf_r+0x100e>
   15002:	00008317          	auipc	t1,0x8
   15006:	25e30313          	add	t1,t1,606 # 1d260 <blanks.1>
   1500a:	86a2                	mv	a3,s0
   1500c:	de5a                	sw	s6,60(sp)
   1500e:	4f41                	li	t5,16
   15010:	439d                	li	t2,7
   15012:	cc72                	sw	t3,24(sp)
   15014:	ce7e                	sw	t6,28(sp)
   15016:	d016                	sw	t0,32(sp)
   15018:	d242                	sw	a6,36(sp)
   1501a:	d446                	sw	a7,40(sp)
   1501c:	dc76                	sw	t4,56(sp)
   1501e:	843a                	mv	s0,a4
   15020:	8b1a                	mv	s6,t1
   15022:	a811                	j	15036 <_vfiprintf_r+0xa84>
   15024:	00260513          	add	a0,a2,2
   15028:	06a1                	add	a3,a3,8
   1502a:	862e                	mv	a2,a1
   1502c:	1441                	add	s0,s0,-16
   1502e:	028f5f63          	bge	t5,s0,1506c <_vfiprintf_r+0xaba>
   15032:	00160593          	add	a1,a2,1
   15036:	07c1                	add	a5,a5,16
   15038:	0166a023          	sw	s6,0(a3)
   1503c:	01e6a223          	sw	t5,4(a3)
   15040:	d4be                	sw	a5,104(sp)
   15042:	d2ae                	sw	a1,100(sp)
   15044:	feb3d0e3          	bge	t2,a1,15024 <_vfiprintf_r+0xa72>
   15048:	cbb9                	beqz	a5,1509e <_vfiprintf_r+0xaec>
   1504a:	1090                	add	a2,sp,96
   1504c:	85d2                	mv	a1,s4
   1504e:	8526                	mv	a0,s1
   15050:	c9cff0ef          	jal	144ec <__sprint_r.part.0>
   15054:	8e051fe3          	bnez	a0,14952 <_vfiprintf_r+0x3a0>
   15058:	5616                	lw	a2,100(sp)
   1505a:	4f41                	li	t5,16
   1505c:	1441                	add	s0,s0,-16
   1505e:	57a6                	lw	a5,104(sp)
   15060:	86d6                	mv	a3,s5
   15062:	00160513          	add	a0,a2,1
   15066:	439d                	li	t2,7
   15068:	fc8f45e3          	blt	t5,s0,15032 <_vfiprintf_r+0xa80>
   1506c:	835a                	mv	t1,s6
   1506e:	4e62                	lw	t3,24(sp)
   15070:	4ff2                	lw	t6,28(sp)
   15072:	5282                	lw	t0,32(sp)
   15074:	5812                	lw	a6,36(sp)
   15076:	58a2                	lw	a7,40(sp)
   15078:	5ee2                	lw	t4,56(sp)
   1507a:	5b72                	lw	s6,60(sp)
   1507c:	8722                	mv	a4,s0
   1507e:	8436                	mv	s0,a3
   15080:	97ba                	add	a5,a5,a4
   15082:	c058                	sw	a4,4(s0)
   15084:	00642023          	sw	t1,0(s0)
   15088:	d4be                	sw	a5,104(sp)
   1508a:	d2aa                	sw	a0,100(sp)
   1508c:	471d                	li	a4,7
   1508e:	08a74f63          	blt	a4,a0,1512c <_vfiprintf_r+0xb7a>
   15092:	0421                	add	s0,s0,8
   15094:	00150f13          	add	t5,a0,1
   15098:	862a                	mv	a2,a0
   1509a:	ea0ff06f          	j	1473a <_vfiprintf_r+0x188>
   1509e:	4601                	li	a2,0
   150a0:	4505                	li	a0,1
   150a2:	86d6                	mv	a3,s5
   150a4:	b761                	j	1502c <_vfiprintf_r+0xa7a>
   150a6:	01d8d363          	bge	a7,t4,150ac <_vfiprintf_r+0xafa>
   150aa:	88f6                	mv	a7,t4
   150ac:	47b2                	lw	a5,12(sp)
   150ae:	97c6                	add	a5,a5,a7
   150b0:	c63e                	sw	a5,12(sp)
   150b2:	f54ff06f          	j	14806 <_vfiprintf_r+0x254>
   150b6:	d20789e3          	beqz	a5,14de8 <_vfiprintf_r+0x836>
   150ba:	1090                	add	a2,sp,96
   150bc:	85d2                	mv	a1,s4
   150be:	8526                	mv	a0,s1
   150c0:	d276                	sw	t4,36(sp)
   150c2:	d046                	sw	a7,32(sp)
   150c4:	ce42                	sw	a6,28(sp)
   150c6:	cc72                	sw	t3,24(sp)
   150c8:	c24ff0ef          	jal	144ec <__sprint_r.part.0>
   150cc:	880513e3          	bnez	a0,14952 <_vfiprintf_r+0x3a0>
   150d0:	5f16                	lw	t5,100(sp)
   150d2:	57a6                	lw	a5,104(sp)
   150d4:	5e92                	lw	t4,36(sp)
   150d6:	5882                	lw	a7,32(sp)
   150d8:	4872                	lw	a6,28(sp)
   150da:	4e62                	lw	t3,24(sp)
   150dc:	8456                	mv	s0,s5
   150de:	0f05                	add	t5,t5,1
   150e0:	ed2ff06f          	j	147b2 <_vfiprintf_r+0x200>
   150e4:	d282                	sw	zero,100(sp)
   150e6:	8456                	mv	s0,s5
   150e8:	b091                	j	1492c <_vfiprintf_r+0x37a>
   150ea:	0106f793          	and	a5,a3,16
   150ee:	000b2d83          	lw	s11,0(s6)
   150f2:	0b11                	add	s6,s6,4
   150f4:	eb81                	bnez	a5,15104 <_vfiprintf_r+0xb52>
   150f6:	0406f793          	and	a5,a3,64
   150fa:	3e078e63          	beqz	a5,154f6 <_vfiprintf_r+0xf44>
   150fe:	0dc2                	sll	s11,s11,0x10
   15100:	010ddd93          	srl	s11,s11,0x10
   15104:	4e81                	li	t4,0
   15106:	b109                	j	14d08 <_vfiprintf_r+0x756>
   15108:	01077693          	and	a3,a4,16
   1510c:	000b2783          	lw	a5,0(s6)
   15110:	0b11                	add	s6,s6,4
   15112:	eac1                	bnez	a3,151a2 <_vfiprintf_r+0xbf0>
   15114:	04077693          	and	a3,a4,64
   15118:	c2c9                	beqz	a3,1519a <_vfiprintf_r+0xbe8>
   1511a:	07c2                	sll	a5,a5,0x10
   1511c:	83c1                	srl	a5,a5,0x10
   1511e:	4601                	li	a2,0
   15120:	b6ad                	j	14c8a <_vfiprintf_r+0x6d8>
   15122:	4f05                	li	t5,1
   15124:	4601                	li	a2,0
   15126:	8456                	mv	s0,s5
   15128:	e7aff06f          	j	147a2 <_vfiprintf_r+0x1f0>
   1512c:	10078863          	beqz	a5,1523c <_vfiprintf_r+0xc8a>
   15130:	1090                	add	a2,sp,96
   15132:	85d2                	mv	a1,s4
   15134:	8526                	mv	a0,s1
   15136:	dc76                	sw	t4,56(sp)
   15138:	d446                	sw	a7,40(sp)
   1513a:	d242                	sw	a6,36(sp)
   1513c:	d016                	sw	t0,32(sp)
   1513e:	ce7e                	sw	t6,28(sp)
   15140:	cc72                	sw	t3,24(sp)
   15142:	baaff0ef          	jal	144ec <__sprint_r.part.0>
   15146:	800516e3          	bnez	a0,14952 <_vfiprintf_r+0x3a0>
   1514a:	5616                	lw	a2,100(sp)
   1514c:	57a6                	lw	a5,104(sp)
   1514e:	5ee2                	lw	t4,56(sp)
   15150:	58a2                	lw	a7,40(sp)
   15152:	5812                	lw	a6,36(sp)
   15154:	5282                	lw	t0,32(sp)
   15156:	4ff2                	lw	t6,28(sp)
   15158:	4e62                	lw	t3,24(sp)
   1515a:	8456                	mv	s0,s5
   1515c:	00160f13          	add	t5,a2,1
   15160:	ddaff06f          	j	1473a <_vfiprintf_r+0x188>
   15164:	4e81                	li	t4,0
   15166:	11010813          	add	a6,sp,272
   1516a:	babd                	j	14ae8 <_vfiprintf_r+0x536>
   1516c:	058a2503          	lw	a0,88(s4)
   15170:	fe4fc0ef          	jal	11954 <__retarget_lock_acquire_recursive>
   15174:	00ca1783          	lh	a5,12(s4)
   15178:	c7eff06f          	j	145f6 <_vfiprintf_r+0x44>
   1517c:	0421                	add	s0,s0,8
   1517e:	00150f13          	add	t5,a0,1
   15182:	862a                	mv	a2,a0
   15184:	e26ff06f          	j	147aa <_vfiprintf_r+0x1f8>
   15188:	200e7793          	and	a5,t3,512
   1518c:	3e079863          	bnez	a5,1557c <_vfiprintf_r+0xfca>
   15190:	41fdde93          	sra	t4,s11,0x1f
   15194:	87f6                	mv	a5,t4
   15196:	f14ff06f          	j	148aa <_vfiprintf_r+0x2f8>
   1519a:	20077693          	and	a3,a4,512
   1519e:	3c069a63          	bnez	a3,15572 <_vfiprintf_r+0xfc0>
   151a2:	4601                	li	a2,0
   151a4:	b4dd                	j	14c8a <_vfiprintf_r+0x6d8>
   151a6:	46b2                	lw	a3,12(sp)
   151a8:	000b2783          	lw	a5,0(s6)
   151ac:	0b11                	add	s6,s6,4
   151ae:	41f6d713          	sra	a4,a3,0x1f
   151b2:	c394                	sw	a3,0(a5)
   151b4:	c3d8                	sw	a4,4(a5)
   151b6:	cccff06f          	j	14682 <_vfiprintf_r+0xd0>
   151ba:	4601                	li	a2,0
   151bc:	4f05                	li	t5,1
   151be:	8456                	mv	s0,s5
   151c0:	de2ff06f          	j	147a2 <_vfiprintf_r+0x1f0>
   151c4:	000b2783          	lw	a5,0(s6)
   151c8:	4e85                	li	t4,1
   151ca:	4d85                	li	s11,1
   151cc:	0af10623          	sb	a5,172(sp)
   151d0:	0ac10c93          	add	s9,sp,172
   151d4:	b2e1                	j	14b9c <_vfiprintf_r+0x5ea>
   151d6:	8eee                	mv	t4,s11
   151d8:	882e                	mv	a6,a1
   151da:	b239                	j	14ae8 <_vfiprintf_r+0x536>
   151dc:	5cfd                	li	s9,-1
   151de:	8d32                	mv	s10,a2
   151e0:	cecff06f          	j	146cc <_vfiprintf_r+0x11a>
   151e4:	86f2                	mv	a3,t3
   151e6:	b629                	j	14cf0 <_vfiprintf_r+0x73e>
   151e8:	00008797          	auipc	a5,0x8
   151ec:	90878793          	add	a5,a5,-1784 # 1caf0 <__trunctfdf2+0x2f2>
   151f0:	ca3e                	sw	a5,20(sp)
   151f2:	020e7793          	and	a5,t3,32
   151f6:	12078663          	beqz	a5,15322 <_vfiprintf_r+0xd70>
   151fa:	0b1d                	add	s6,s6,7
   151fc:	ff8b7b13          	and	s6,s6,-8
   15200:	000b2783          	lw	a5,0(s6)
   15204:	004b2603          	lw	a2,4(s6)
   15208:	0b21                	add	s6,s6,8
   1520a:	001e7693          	and	a3,t3,1
   1520e:	ce81                	beqz	a3,15226 <_vfiprintf_r+0xc74>
   15210:	00c7e6b3          	or	a3,a5,a2
   15214:	ca89                	beqz	a3,15226 <_vfiprintf_r+0xc74>
   15216:	03000693          	li	a3,48
   1521a:	04d10223          	sb	a3,68(sp)
   1521e:	04e102a3          	sb	a4,69(sp)
   15222:	002e6e13          	or	t3,t3,2
   15226:	bffe7e13          	and	t3,t3,-1025
   1522a:	be95                	j	14d9e <_vfiprintf_r+0x7ec>
   1522c:	8772                	mv	a4,t3
   1522e:	b491                	j	14c72 <_vfiprintf_r+0x6c0>
   15230:	00008797          	auipc	a5,0x8
   15234:	8ac78793          	add	a5,a5,-1876 # 1cadc <__trunctfdf2+0x2de>
   15238:	ca3e                	sw	a5,20(sp)
   1523a:	bf65                	j	151f2 <_vfiprintf_r+0xc40>
   1523c:	04314703          	lbu	a4,67(sp)
   15240:	30070c63          	beqz	a4,15558 <_vfiprintf_r+0xfa6>
   15244:	04310793          	add	a5,sp,67
   15248:	d6be                	sw	a5,108(sp)
   1524a:	4785                	li	a5,1
   1524c:	d8be                	sw	a5,112(sp)
   1524e:	4f05                	li	t5,1
   15250:	8456                	mv	s0,s5
   15252:	d04ff06f          	j	14756 <_vfiprintf_r+0x1a4>
   15256:	4621                	li	a2,8
   15258:	4581                	li	a1,0
   1525a:	08a8                	add	a0,sp,88
   1525c:	d046                	sw	a7,32(sp)
   1525e:	ce72                	sw	t3,28(sp)
   15260:	c6c2                	sw	a6,76(sp)
   15262:	c842                	sw	a6,16(sp)
   15264:	efefc0ef          	jal	11962 <memset>
   15268:	4842                	lw	a6,16(sp)
   1526a:	4e72                	lw	t3,28(sp)
   1526c:	5882                	lw	a7,32(sp)
   1526e:	2a0cc063          	bltz	s9,1550e <_vfiprintf_r+0xf5c>
   15272:	87ea                	mv	a5,s10
   15274:	4b01                	li	s6,0
   15276:	c822                	sw	s0,16(sp)
   15278:	8d52                	mv	s10,s4
   1527a:	8466                	mv	s0,s9
   1527c:	d042                	sw	a6,32(sp)
   1527e:	8cc6                	mv	s9,a7
   15280:	8a5a                	mv	s4,s6
   15282:	8dbe                	mv	s11,a5
   15284:	a00d                	j	152a6 <_vfiprintf_r+0xcf4>
   15286:	08b4                	add	a3,sp,88
   15288:	116c                	add	a1,sp,172
   1528a:	8526                	mv	a0,s1
   1528c:	1fd040ef          	jal	19c88 <_wcrtomb_r>
   15290:	57fd                	li	a5,-1
   15292:	3af50e63          	beq	a0,a5,1564e <_vfiprintf_r+0x109c>
   15296:	00ab07b3          	add	a5,s6,a0
   1529a:	00f44a63          	blt	s0,a5,152ae <_vfiprintf_r+0xcfc>
   1529e:	0a11                	add	s4,s4,4
   152a0:	38878e63          	beq	a5,s0,1563c <_vfiprintf_r+0x108a>
   152a4:	8b3e                	mv	s6,a5
   152a6:	47b6                	lw	a5,76(sp)
   152a8:	97d2                	add	a5,a5,s4
   152aa:	4390                	lw	a2,0(a5)
   152ac:	fe69                	bnez	a2,15286 <_vfiprintf_r+0xcd4>
   152ae:	4442                	lw	s0,16(sp)
   152b0:	4e72                	lw	t3,28(sp)
   152b2:	5802                	lw	a6,32(sp)
   152b4:	8a6a                	mv	s4,s10
   152b6:	88e6                	mv	a7,s9
   152b8:	8d6e                	mv	s10,s11
   152ba:	8dda                	mv	s11,s6
   152bc:	260d8c63          	beqz	s11,15534 <_vfiprintf_r+0xf82>
   152c0:	06300793          	li	a5,99
   152c4:	2db7dc63          	bge	a5,s11,1559c <_vfiprintf_r+0xfea>
   152c8:	001d8593          	add	a1,s11,1
   152cc:	8526                	mv	a0,s1
   152ce:	ce46                	sw	a7,28(sp)
   152d0:	c872                	sw	t3,16(sp)
   152d2:	ba5fc0ef          	jal	11e76 <_malloc_r>
   152d6:	4e42                	lw	t3,16(sp)
   152d8:	48f2                	lw	a7,28(sp)
   152da:	882a                	mv	a6,a0
   152dc:	38050263          	beqz	a0,15660 <_vfiprintf_r+0x10ae>
   152e0:	c82a                	sw	a0,16(sp)
   152e2:	4621                	li	a2,8
   152e4:	4581                	li	a1,0
   152e6:	08a8                	add	a0,sp,88
   152e8:	d246                	sw	a7,36(sp)
   152ea:	d072                	sw	t3,32(sp)
   152ec:	ce42                	sw	a6,28(sp)
   152ee:	e74fc0ef          	jal	11962 <memset>
   152f2:	4872                	lw	a6,28(sp)
   152f4:	08b8                	add	a4,sp,88
   152f6:	86ee                	mv	a3,s11
   152f8:	85c2                	mv	a1,a6
   152fa:	00f0                	add	a2,sp,76
   152fc:	8526                	mv	a0,s1
   152fe:	239040ef          	jal	19d36 <_wcsrtombs_r>
   15302:	4872                	lw	a6,28(sp)
   15304:	5e02                	lw	t3,32(sp)
   15306:	5892                	lw	a7,36(sp)
   15308:	36ad9f63          	bne	s11,a0,15686 <_vfiprintf_r+0x10d4>
   1530c:	fffdce93          	not	t4,s11
   15310:	01b807b3          	add	a5,a6,s11
   15314:	41fede93          	sra	t4,t4,0x1f
   15318:	00078023          	sb	zero,0(a5)
   1531c:	01ddfeb3          	and	t4,s11,t4
   15320:	ac21                	j	15538 <_vfiprintf_r+0xf86>
   15322:	010e7693          	and	a3,t3,16
   15326:	000b2783          	lw	a5,0(s6)
   1532a:	0b11                	add	s6,s6,4
   1532c:	ee81                	bnez	a3,15344 <_vfiprintf_r+0xd92>
   1532e:	040e7693          	and	a3,t3,64
   15332:	c689                	beqz	a3,1533c <_vfiprintf_r+0xd8a>
   15334:	07c2                	sll	a5,a5,0x10
   15336:	83c1                	srl	a5,a5,0x10
   15338:	4601                	li	a2,0
   1533a:	bdc1                	j	1520a <_vfiprintf_r+0xc58>
   1533c:	200e7693          	and	a3,t3,512
   15340:	24069663          	bnez	a3,1558c <_vfiprintf_r+0xfda>
   15344:	4601                	li	a2,0
   15346:	b5d1                	j	1520a <_vfiprintf_r+0xc58>
   15348:	ccccdf37          	lui	t5,0xccccd
   1534c:	ccccd3b7          	lui	t2,0xccccd
   15350:	5732                	lw	a4,44(sp)
   15352:	400e7293          	and	t0,t3,1024
   15356:	4581                	li	a1,0
   15358:	0a10                	add	a2,sp,272
   1535a:	4f95                	li	t6,5
   1535c:	ccdf0f13          	add	t5,t5,-819 # cccccccd <__BSS_END__+0xcccadf49>
   15360:	ccc38393          	add	t2,t2,-820 # cccccccc <__BSS_END__+0xcccadf48>
   15364:	0ff00313          	li	t1,255
   15368:	a081                	j	153a8 <_vfiprintf_r+0xdf6>
   1536a:	01b7b6b3          	sltu	a3,a5,s11
   1536e:	97b6                	add	a5,a5,a3
   15370:	03f7f7b3          	remu	a5,a5,t6
   15374:	40fd87b3          	sub	a5,s11,a5
   15378:	00fdb6b3          	sltu	a3,s11,a5
   1537c:	40de86b3          	sub	a3,t4,a3
   15380:	02778533          	mul	a0,a5,t2
   15384:	03e686b3          	mul	a3,a3,t5
   15388:	03e7b633          	mulhu	a2,a5,t5
   1538c:	96aa                	add	a3,a3,a0
   1538e:	03e787b3          	mul	a5,a5,t5
   15392:	96b2                	add	a3,a3,a2
   15394:	01f69613          	sll	a2,a3,0x1f
   15398:	8285                	srl	a3,a3,0x1
   1539a:	8385                	srl	a5,a5,0x1
   1539c:	8fd1                	or	a5,a5,a2
   1539e:	200e8c63          	beqz	t4,155b6 <_vfiprintf_r+0x1004>
   153a2:	8dbe                	mv	s11,a5
   153a4:	8eb6                	mv	t4,a3
   153a6:	8642                	mv	a2,a6
   153a8:	01dd87b3          	add	a5,s11,t4
   153ac:	01b7b6b3          	sltu	a3,a5,s11
   153b0:	96be                	add	a3,a3,a5
   153b2:	03f6f6b3          	remu	a3,a3,t6
   153b6:	fff60813          	add	a6,a2,-1
   153ba:	0585                	add	a1,a1,1
   153bc:	40dd86b3          	sub	a3,s11,a3
   153c0:	00ddb0b3          	sltu	ra,s11,a3
   153c4:	401e80b3          	sub	ra,t4,ra
   153c8:	03e6b533          	mulhu	a0,a3,t5
   153cc:	03e080b3          	mul	ra,ra,t5
   153d0:	03e686b3          	mul	a3,a3,t5
   153d4:	90aa                	add	ra,ra,a0
   153d6:	00fe                	sll	ra,ra,0x1f
   153d8:	0016d513          	srl	a0,a3,0x1
   153dc:	00a0e533          	or	a0,ra,a0
   153e0:	00251693          	sll	a3,a0,0x2
   153e4:	96aa                	add	a3,a3,a0
   153e6:	0686                	sll	a3,a3,0x1
   153e8:	40dd86b3          	sub	a3,s11,a3
   153ec:	03068693          	add	a3,a3,48
   153f0:	fed60fa3          	sb	a3,-1(a2)
   153f4:	f6028be3          	beqz	t0,1536a <_vfiprintf_r+0xdb8>
   153f8:	00074683          	lbu	a3,0(a4)
   153fc:	f6b697e3          	bne	a3,a1,1536a <_vfiprintf_r+0xdb8>
   15400:	f66585e3          	beq	a1,t1,1536a <_vfiprintf_r+0xdb8>
   15404:	000e9763          	bnez	t4,15412 <_vfiprintf_r+0xe60>
   15408:	46a5                	li	a3,9
   1540a:	01b6e463          	bltu	a3,s11,15412 <_vfiprintf_r+0xe60>
   1540e:	d63a                	sw	a4,44(sp)
   15410:	bef1                	j	14fec <_vfiprintf_r+0xa3a>
   15412:	cc3e                	sw	a5,24(sp)
   15414:	57c2                	lw	a5,48(sp)
   15416:	55d2                	lw	a1,52(sp)
   15418:	de76                	sw	t4,60(sp)
   1541a:	40f80833          	sub	a6,a6,a5
   1541e:	863e                	mv	a2,a5
   15420:	8542                	mv	a0,a6
   15422:	dc1e                	sw	t2,56(sp)
   15424:	d67a                	sw	t5,44(sp)
   15426:	d416                	sw	t0,40(sp)
   15428:	d23a                	sw	a4,36(sp)
   1542a:	d046                	sw	a7,32(sp)
   1542c:	ce72                	sw	t3,28(sp)
   1542e:	c842                	sw	a6,16(sp)
   15430:	555000ef          	jal	16184 <strncpy>
   15434:	47e2                	lw	a5,24(sp)
   15436:	5712                	lw	a4,36(sp)
   15438:	5ef2                	lw	t4,60(sp)
   1543a:	01b7b6b3          	sltu	a3,a5,s11
   1543e:	97b6                	add	a5,a5,a3
   15440:	4695                	li	a3,5
   15442:	02d7f7b3          	remu	a5,a5,a3
   15446:	00174683          	lbu	a3,1(a4)
   1544a:	ccccd637          	lui	a2,0xccccd
   1544e:	ccccd537          	lui	a0,0xccccd
   15452:	00d036b3          	snez	a3,a3
   15456:	9736                	add	a4,a4,a3
   15458:	ccd60613          	add	a2,a2,-819 # cccccccd <__BSS_END__+0xcccadf49>
   1545c:	ccc50513          	add	a0,a0,-820 # cccccccc <__BSS_END__+0xcccadf48>
   15460:	4842                	lw	a6,16(sp)
   15462:	4e72                	lw	t3,28(sp)
   15464:	5882                	lw	a7,32(sp)
   15466:	52a2                	lw	t0,40(sp)
   15468:	5f32                	lw	t5,44(sp)
   1546a:	53e2                	lw	t2,56(sp)
   1546c:	4581                	li	a1,0
   1546e:	4f95                	li	t6,5
   15470:	0ff00313          	li	t1,255
   15474:	40fd87b3          	sub	a5,s11,a5
   15478:	00fdb6b3          	sltu	a3,s11,a5
   1547c:	40de86b3          	sub	a3,t4,a3
   15480:	02c686b3          	mul	a3,a3,a2
   15484:	02a78533          	mul	a0,a5,a0
   15488:	02c7beb3          	mulhu	t4,a5,a2
   1548c:	96aa                	add	a3,a3,a0
   1548e:	02c78633          	mul	a2,a5,a2
   15492:	96f6                	add	a3,a3,t4
   15494:	01f69793          	sll	a5,a3,0x1f
   15498:	8285                	srl	a3,a3,0x1
   1549a:	8205                	srl	a2,a2,0x1
   1549c:	8fd1                	or	a5,a5,a2
   1549e:	b711                	j	153a2 <_vfiprintf_r+0xdf0>
   154a0:	8e3a                	mv	t3,a4
   154a2:	4701                	li	a4,0
   154a4:	880708e3          	beqz	a4,14d34 <_vfiprintf_r+0x782>
   154a8:	be39                	j	14fc6 <_vfiprintf_r+0xa14>
   154aa:	8526                	mv	a0,s1
   154ac:	8a2fc0ef          	jal	1154e <__sinit>
   154b0:	932ff06f          	j	145e2 <_vfiprintf_r+0x30>
   154b4:	001d4703          	lbu	a4,1(s10)
   154b8:	200e6e13          	or	t3,t3,512
   154bc:	0d05                	add	s10,s10,1
   154be:	a0cff06f          	j	146ca <_vfiprintf_r+0x118>
   154c2:	001d4703          	lbu	a4,1(s10)
   154c6:	020e6e13          	or	t3,t3,32
   154ca:	0d05                	add	s10,s10,1
   154cc:	9feff06f          	j	146ca <_vfiprintf_r+0x118>
   154d0:	000b2783          	lw	a5,0(s6)
   154d4:	4732                	lw	a4,12(sp)
   154d6:	0b11                	add	s6,s6,4
   154d8:	c398                	sw	a4,0(a5)
   154da:	9a8ff06f          	j	14682 <_vfiprintf_r+0xd0>
   154de:	4799                	li	a5,6
   154e0:	8de6                	mv	s11,s9
   154e2:	0797e963          	bltu	a5,s9,15554 <_vfiprintf_r+0xfa2>
   154e6:	4b62                	lw	s6,24(sp)
   154e8:	8eee                	mv	t4,s11
   154ea:	00007817          	auipc	a6,0x7
   154ee:	61a80813          	add	a6,a6,1562 # 1cb04 <__trunctfdf2+0x306>
   154f2:	a28ff06f          	j	1471a <_vfiprintf_r+0x168>
   154f6:	2006f793          	and	a5,a3,512
   154fa:	c00785e3          	beqz	a5,15104 <_vfiprintf_r+0xb52>
   154fe:	0ffdfd93          	zext.b	s11,s11
   15502:	4e81                	li	t4,0
   15504:	805ff06f          	j	14d08 <_vfiprintf_r+0x756>
   15508:	4781                	li	a5,0
   1550a:	4601                	li	a2,0
   1550c:	bc6d                	j	14fc6 <_vfiprintf_r+0xa14>
   1550e:	08b8                	add	a4,sp,88
   15510:	4681                	li	a3,0
   15512:	00f0                	add	a2,sp,76
   15514:	4581                	li	a1,0
   15516:	8526                	mv	a0,s1
   15518:	d046                	sw	a7,32(sp)
   1551a:	ce42                	sw	a6,28(sp)
   1551c:	c872                	sw	t3,16(sp)
   1551e:	019040ef          	jal	19d36 <_wcsrtombs_r>
   15522:	57fd                	li	a5,-1
   15524:	4e42                	lw	t3,16(sp)
   15526:	4872                	lw	a6,28(sp)
   15528:	5882                	lw	a7,32(sp)
   1552a:	8daa                	mv	s11,a0
   1552c:	12f50a63          	beq	a0,a5,15660 <_vfiprintf_r+0x10ae>
   15530:	c6c2                	sw	a6,76(sp)
   15532:	b369                	j	152bc <_vfiprintf_r+0xd0a>
   15534:	4e81                	li	t4,0
   15536:	c802                	sw	zero,16(sp)
   15538:	04314783          	lbu	a5,67(sp)
   1553c:	4b62                	lw	s6,24(sp)
   1553e:	4c81                	li	s9,0
   15540:	4f81                	li	t6,0
   15542:	b8079863          	bnez	a5,148d2 <_vfiprintf_r+0x320>
   15546:	9daff06f          	j	14720 <_vfiprintf_r+0x16e>
   1554a:	4f05                	li	t5,1
   1554c:	4601                	li	a2,0
   1554e:	8456                	mv	s0,s5
   15550:	a5aff06f          	j	147aa <_vfiprintf_r+0x1f8>
   15554:	4d99                	li	s11,6
   15556:	bf41                	j	154e6 <_vfiprintf_r+0xf34>
   15558:	4601                	li	a2,0
   1555a:	4f05                	li	t5,1
   1555c:	8456                	mv	s0,s5
   1555e:	9feff06f          	j	1475c <_vfiprintf_r+0x1aa>
   15562:	000b2783          	lw	a5,0(s6)
   15566:	4732                	lw	a4,12(sp)
   15568:	0b11                	add	s6,s6,4
   1556a:	00e79023          	sh	a4,0(a5)
   1556e:	914ff06f          	j	14682 <_vfiprintf_r+0xd0>
   15572:	0ff7f793          	zext.b	a5,a5
   15576:	4601                	li	a2,0
   15578:	f12ff06f          	j	14c8a <_vfiprintf_r+0x6d8>
   1557c:	0de2                	sll	s11,s11,0x18
   1557e:	418ddd93          	sra	s11,s11,0x18
   15582:	41fdde93          	sra	t4,s11,0x1f
   15586:	87f6                	mv	a5,t4
   15588:	b22ff06f          	j	148aa <_vfiprintf_r+0x2f8>
   1558c:	0ff7f793          	zext.b	a5,a5
   15590:	4601                	li	a2,0
   15592:	b9a5                	j	1520a <_vfiprintf_r+0xc58>
   15594:	03000793          	li	a5,48
   15598:	d3eff06f          	j	14ad6 <_vfiprintf_r+0x524>
   1559c:	c802                	sw	zero,16(sp)
   1559e:	0ac10813          	add	a6,sp,172
   155a2:	b381                	j	152e2 <_vfiprintf_r+0xd30>
   155a4:	058a2503          	lw	a0,88(s4)
   155a8:	bb8fc0ef          	jal	11960 <__retarget_lock_release_recursive>
   155ac:	a9eff06f          	j	1484a <_vfiprintf_r+0x298>
   155b0:	8ee6                	mv	t4,s9
   155b2:	8de6                	mv	s11,s9
   155b4:	b751                	j	15538 <_vfiprintf_r+0xf86>
   155b6:	4625                	li	a2,9
   155b8:	dfb665e3          	bltu	a2,s11,153a2 <_vfiprintf_r+0xdf0>
   155bc:	d63a                	sw	a4,44(sp)
   155be:	b43d                	j	14fec <_vfiprintf_r+0xa3a>
   155c0:	852e                	mv	a0,a1
   155c2:	00008317          	auipc	t1,0x8
   155c6:	c9e30313          	add	t1,t1,-866 # 1d260 <blanks.1>
   155ca:	bc5d                	j	15080 <_vfiprintf_r+0xace>
   155cc:	8542                	mv	a0,a6
   155ce:	ce42                	sw	a6,28(sp)
   155d0:	04b010ef          	jal	16e1a <strlen>
   155d4:	fff54e93          	not	t4,a0
   155d8:	41fede93          	sra	t4,t4,0x1f
   155dc:	4872                	lw	a6,28(sp)
   155de:	5e02                	lw	t3,32(sp)
   155e0:	5892                	lw	a7,36(sp)
   155e2:	8daa                	mv	s11,a0
   155e4:	01d57eb3          	and	t4,a0,t4
   155e8:	c802                	sw	zero,16(sp)
   155ea:	b7b9                	j	15538 <_vfiprintf_r+0xf86>
   155ec:	1090                	add	a2,sp,96
   155ee:	85d2                	mv	a1,s4
   155f0:	8526                	mv	a0,s1
   155f2:	efbfe0ef          	jal	144ec <__sprint_r.part.0>
   155f6:	b4050363          	beqz	a0,1493c <_vfiprintf_r+0x38a>
   155fa:	b64ff06f          	j	1495e <_vfiprintf_r+0x3ac>
   155fe:	00168613          	add	a2,a3,1
   15602:	00008317          	auipc	t1,0x8
   15606:	c5e30313          	add	t1,t1,-930 # 1d260 <blanks.1>
   1560a:	c2cff06f          	j	14a36 <_vfiprintf_r+0x484>
   1560e:	857a                	mv	a0,t5
   15610:	00008f97          	auipc	t6,0x8
   15614:	c40f8f93          	add	t6,t6,-960 # 1d250 <zeroes.0>
   15618:	b885                	j	14e88 <_vfiprintf_r+0x8d6>
   1561a:	064a2783          	lw	a5,100(s4)
   1561e:	8b85                	and	a5,a5,1
   15620:	eb91                	bnez	a5,15634 <_vfiprintf_r+0x1082>
   15622:	00ca5783          	lhu	a5,12(s4)
   15626:	2007f793          	and	a5,a5,512
   1562a:	e789                	bnez	a5,15634 <_vfiprintf_r+0x1082>
   1562c:	058a2503          	lw	a0,88(s4)
   15630:	b30fc0ef          	jal	11960 <__retarget_lock_release_recursive>
   15634:	57fd                	li	a5,-1
   15636:	c63e                	sw	a5,12(sp)
   15638:	b5cff06f          	j	14994 <_vfiprintf_r+0x3e2>
   1563c:	88e6                	mv	a7,s9
   1563e:	8ca2                	mv	s9,s0
   15640:	8a6a                	mv	s4,s10
   15642:	4e72                	lw	t3,28(sp)
   15644:	8d6e                	mv	s10,s11
   15646:	5802                	lw	a6,32(sp)
   15648:	4442                	lw	s0,16(sp)
   1564a:	8de6                	mv	s11,s9
   1564c:	b985                	j	152bc <_vfiprintf_r+0xd0a>
   1564e:	00cd1783          	lh	a5,12(s10)
   15652:	8a6a                	mv	s4,s10
   15654:	0407e793          	or	a5,a5,64
   15658:	00fd1623          	sh	a5,12(s10)
   1565c:	b06ff06f          	j	14962 <_vfiprintf_r+0x3b0>
   15660:	00ca1783          	lh	a5,12(s4)
   15664:	0407e793          	or	a5,a5,64
   15668:	00fa1623          	sh	a5,12(s4)
   1566c:	af6ff06f          	j	14962 <_vfiprintf_r+0x3b0>
   15670:	000b2c83          	lw	s9,0(s6)
   15674:	0b11                	add	s6,s6,4
   15676:	000cd363          	bgez	s9,1567c <_vfiprintf_r+0x10ca>
   1567a:	5cfd                	li	s9,-1
   1567c:	001d4703          	lbu	a4,1(s10)
   15680:	8d32                	mv	s10,a2
   15682:	848ff06f          	j	146ca <_vfiprintf_r+0x118>
   15686:	00ca5783          	lhu	a5,12(s4)
   1568a:	0407e793          	or	a5,a5,64
   1568e:	00fa1623          	sh	a5,12(s4)
   15692:	ac0ff06f          	j	14952 <_vfiprintf_r+0x3a0>

00015696 <vfiprintf>:
   15696:	86b2                	mv	a3,a2
   15698:	862e                	mv	a2,a1
   1569a:	85aa                	mv	a1,a0
   1569c:	f681a503          	lw	a0,-152(gp) # 1e778 <_impure_ptr>
   156a0:	f13fe06f          	j	145b2 <_vfiprintf_r>

000156a4 <__sbprintf>:
   156a4:	b7010113          	add	sp,sp,-1168
   156a8:	00c59783          	lh	a5,12(a1)
   156ac:	00e5d703          	lhu	a4,14(a1)
   156b0:	48812423          	sw	s0,1160(sp)
   156b4:	842e                	mv	s0,a1
   156b6:	65c1                	lui	a1,0x10
   156b8:	15f5                	add	a1,a1,-3 # fffd <exit-0x97>
   156ba:	06442303          	lw	t1,100(s0)
   156be:	01c42883          	lw	a7,28(s0)
   156c2:	02442803          	lw	a6,36(s0)
   156c6:	0742                	sll	a4,a4,0x10
   156c8:	8fed                	and	a5,a5,a1
   156ca:	8fd9                	or	a5,a5,a4
   156cc:	40000593          	li	a1,1024
   156d0:	49212023          	sw	s2,1152(sp)
   156d4:	ca3e                	sw	a5,20(sp)
   156d6:	892a                	mv	s2,a0
   156d8:	189c                	add	a5,sp,112
   156da:	1088                	add	a0,sp,96
   156dc:	48112623          	sw	ra,1164(sp)
   156e0:	48912223          	sw	s1,1156(sp)
   156e4:	47312e23          	sw	s3,1148(sp)
   156e8:	84b2                	mv	s1,a2
   156ea:	89b6                	mv	s3,a3
   156ec:	d69a                	sw	t1,108(sp)
   156ee:	d246                	sw	a7,36(sp)
   156f0:	d642                	sw	a6,44(sp)
   156f2:	c43e                	sw	a5,8(sp)
   156f4:	cc3e                	sw	a5,24(sp)
   156f6:	c82e                	sw	a1,16(sp)
   156f8:	ce2e                	sw	a1,28(sp)
   156fa:	d002                	sw	zero,32(sp)
   156fc:	a50fc0ef          	jal	1194c <__retarget_lock_init_recursive>
   15700:	8626                	mv	a2,s1
   15702:	86ce                	mv	a3,s3
   15704:	002c                	add	a1,sp,8
   15706:	854a                	mv	a0,s2
   15708:	eabfe0ef          	jal	145b2 <_vfiprintf_r>
   1570c:	84aa                	mv	s1,a0
   1570e:	02055e63          	bgez	a0,1574a <__sbprintf+0xa6>
   15712:	01415783          	lhu	a5,20(sp)
   15716:	0407f793          	and	a5,a5,64
   1571a:	c799                	beqz	a5,15728 <__sbprintf+0x84>
   1571c:	00c45783          	lhu	a5,12(s0)
   15720:	0407e793          	or	a5,a5,64
   15724:	00f41623          	sh	a5,12(s0)
   15728:	5506                	lw	a0,96(sp)
   1572a:	a26fc0ef          	jal	11950 <__retarget_lock_close_recursive>
   1572e:	48c12083          	lw	ra,1164(sp)
   15732:	48812403          	lw	s0,1160(sp)
   15736:	48012903          	lw	s2,1152(sp)
   1573a:	47c12983          	lw	s3,1148(sp)
   1573e:	8526                	mv	a0,s1
   15740:	48412483          	lw	s1,1156(sp)
   15744:	49010113          	add	sp,sp,1168
   15748:	8082                	ret
   1574a:	002c                	add	a1,sp,8
   1574c:	854a                	mv	a0,s2
   1574e:	2469                	jal	159d8 <_fflush_r>
   15750:	d169                	beqz	a0,15712 <__sbprintf+0x6e>
   15752:	54fd                	li	s1,-1
   15754:	bf7d                	j	15712 <__sbprintf+0x6e>

00015756 <_fclose_r>:
   15756:	1141                	add	sp,sp,-16
   15758:	c606                	sw	ra,12(sp)
   1575a:	c04a                	sw	s2,0(sp)
   1575c:	c9c1                	beqz	a1,157ec <_fclose_r+0x96>
   1575e:	c422                	sw	s0,8(sp)
   15760:	c226                	sw	s1,4(sp)
   15762:	842e                	mv	s0,a1
   15764:	84aa                	mv	s1,a0
   15766:	c119                	beqz	a0,1576c <_fclose_r+0x16>
   15768:	595c                	lw	a5,52(a0)
   1576a:	c3d5                	beqz	a5,1580e <_fclose_r+0xb8>
   1576c:	507c                	lw	a5,100(s0)
   1576e:	00c41703          	lh	a4,12(s0)
   15772:	8b85                	and	a5,a5,1
   15774:	ebad                	bnez	a5,157e6 <_fclose_r+0x90>
   15776:	20077713          	and	a4,a4,512
   1577a:	cf49                	beqz	a4,15814 <_fclose_r+0xbe>
   1577c:	85a2                	mv	a1,s0
   1577e:	8526                	mv	a0,s1
   15780:	20d1                	jal	15844 <__sflush_r>
   15782:	545c                	lw	a5,44(s0)
   15784:	892a                	mv	s2,a0
   15786:	c791                	beqz	a5,15792 <_fclose_r+0x3c>
   15788:	4c4c                	lw	a1,28(s0)
   1578a:	8526                	mv	a0,s1
   1578c:	9782                	jalr	a5
   1578e:	06054563          	bltz	a0,157f8 <_fclose_r+0xa2>
   15792:	00c45783          	lhu	a5,12(s0)
   15796:	0807f793          	and	a5,a5,128
   1579a:	e7ad                	bnez	a5,15804 <_fclose_r+0xae>
   1579c:	580c                	lw	a1,48(s0)
   1579e:	c991                	beqz	a1,157b2 <_fclose_r+0x5c>
   157a0:	04040793          	add	a5,s0,64
   157a4:	00f58563          	beq	a1,a5,157ae <_fclose_r+0x58>
   157a8:	8526                	mv	a0,s1
   157aa:	ca4fc0ef          	jal	11c4e <_free_r>
   157ae:	02042823          	sw	zero,48(s0)
   157b2:	406c                	lw	a1,68(s0)
   157b4:	c591                	beqz	a1,157c0 <_fclose_r+0x6a>
   157b6:	8526                	mv	a0,s1
   157b8:	c96fc0ef          	jal	11c4e <_free_r>
   157bc:	04042223          	sw	zero,68(s0)
   157c0:	dcbfb0ef          	jal	1158a <__sfp_lock_acquire>
   157c4:	507c                	lw	a5,100(s0)
   157c6:	00041623          	sh	zero,12(s0)
   157ca:	8b85                	and	a5,a5,1
   157cc:	c7a5                	beqz	a5,15834 <_fclose_r+0xde>
   157ce:	4c28                	lw	a0,88(s0)
   157d0:	980fc0ef          	jal	11950 <__retarget_lock_close_recursive>
   157d4:	dbdfb0ef          	jal	11590 <__sfp_lock_release>
   157d8:	40b2                	lw	ra,12(sp)
   157da:	4422                	lw	s0,8(sp)
   157dc:	4492                	lw	s1,4(sp)
   157de:	854a                	mv	a0,s2
   157e0:	4902                	lw	s2,0(sp)
   157e2:	0141                	add	sp,sp,16
   157e4:	8082                	ret
   157e6:	fb59                	bnez	a4,1577c <_fclose_r+0x26>
   157e8:	4422                	lw	s0,8(sp)
   157ea:	4492                	lw	s1,4(sp)
   157ec:	4901                	li	s2,0
   157ee:	40b2                	lw	ra,12(sp)
   157f0:	854a                	mv	a0,s2
   157f2:	4902                	lw	s2,0(sp)
   157f4:	0141                	add	sp,sp,16
   157f6:	8082                	ret
   157f8:	00c45783          	lhu	a5,12(s0)
   157fc:	597d                	li	s2,-1
   157fe:	0807f793          	and	a5,a5,128
   15802:	dfc9                	beqz	a5,1579c <_fclose_r+0x46>
   15804:	480c                	lw	a1,16(s0)
   15806:	8526                	mv	a0,s1
   15808:	c46fc0ef          	jal	11c4e <_free_r>
   1580c:	bf41                	j	1579c <_fclose_r+0x46>
   1580e:	d41fb0ef          	jal	1154e <__sinit>
   15812:	bfa9                	j	1576c <_fclose_r+0x16>
   15814:	4c28                	lw	a0,88(s0)
   15816:	93efc0ef          	jal	11954 <__retarget_lock_acquire_recursive>
   1581a:	00c41783          	lh	a5,12(s0)
   1581e:	ffb9                	bnez	a5,1577c <_fclose_r+0x26>
   15820:	507c                	lw	a5,100(s0)
   15822:	8b85                	and	a5,a5,1
   15824:	f3f1                	bnez	a5,157e8 <_fclose_r+0x92>
   15826:	4c28                	lw	a0,88(s0)
   15828:	4901                	li	s2,0
   1582a:	936fc0ef          	jal	11960 <__retarget_lock_release_recursive>
   1582e:	4422                	lw	s0,8(sp)
   15830:	4492                	lw	s1,4(sp)
   15832:	bf75                	j	157ee <_fclose_r+0x98>
   15834:	4c28                	lw	a0,88(s0)
   15836:	92afc0ef          	jal	11960 <__retarget_lock_release_recursive>
   1583a:	bf51                	j	157ce <_fclose_r+0x78>

0001583c <fclose>:
   1583c:	85aa                	mv	a1,a0
   1583e:	f681a503          	lw	a0,-152(gp) # 1e778 <_impure_ptr>
   15842:	bf11                	j	15756 <_fclose_r>

00015844 <__sflush_r>:
   15844:	00c59703          	lh	a4,12(a1)
   15848:	1101                	add	sp,sp,-32
   1584a:	cc22                	sw	s0,24(sp)
   1584c:	c64e                	sw	s3,12(sp)
   1584e:	ce06                	sw	ra,28(sp)
   15850:	00877793          	and	a5,a4,8
   15854:	842e                	mv	s0,a1
   15856:	89aa                	mv	s3,a0
   15858:	e7e1                	bnez	a5,15920 <__sflush_r+0xdc>
   1585a:	6785                	lui	a5,0x1
   1585c:	80078793          	add	a5,a5,-2048 # 800 <exit-0xf894>
   15860:	41d4                	lw	a3,4(a1)
   15862:	8fd9                	or	a5,a5,a4
   15864:	00f59623          	sh	a5,12(a1)
   15868:	10d05563          	blez	a3,15972 <__sflush_r+0x12e>
   1586c:	02842803          	lw	a6,40(s0)
   15870:	0a080263          	beqz	a6,15914 <__sflush_r+0xd0>
   15874:	ca26                	sw	s1,20(sp)
   15876:	01371693          	sll	a3,a4,0x13
   1587a:	0009a483          	lw	s1,0(s3)
   1587e:	0009a023          	sw	zero,0(s3)
   15882:	4c4c                	lw	a1,28(s0)
   15884:	0e06ce63          	bltz	a3,15980 <__sflush_r+0x13c>
   15888:	4601                	li	a2,0
   1588a:	4685                	li	a3,1
   1588c:	854e                	mv	a0,s3
   1588e:	9802                	jalr	a6
   15890:	57fd                	li	a5,-1
   15892:	862a                	mv	a2,a0
   15894:	10f50f63          	beq	a0,a5,159b2 <__sflush_r+0x16e>
   15898:	00c41783          	lh	a5,12(s0)
   1589c:	02842803          	lw	a6,40(s0)
   158a0:	4c4c                	lw	a1,28(s0)
   158a2:	8b91                	and	a5,a5,4
   158a4:	c799                	beqz	a5,158b2 <__sflush_r+0x6e>
   158a6:	4058                	lw	a4,4(s0)
   158a8:	581c                	lw	a5,48(s0)
   158aa:	8e19                	sub	a2,a2,a4
   158ac:	c399                	beqz	a5,158b2 <__sflush_r+0x6e>
   158ae:	5c5c                	lw	a5,60(s0)
   158b0:	8e1d                	sub	a2,a2,a5
   158b2:	4681                	li	a3,0
   158b4:	854e                	mv	a0,s3
   158b6:	9802                	jalr	a6
   158b8:	57fd                	li	a5,-1
   158ba:	0cf51563          	bne	a0,a5,15984 <__sflush_r+0x140>
   158be:	0009a683          	lw	a3,0(s3)
   158c2:	47f5                	li	a5,29
   158c4:	00c41703          	lh	a4,12(s0)
   158c8:	10d7e163          	bltu	a5,a3,159ca <__sflush_r+0x186>
   158cc:	204007b7          	lui	a5,0x20400
   158d0:	0785                	add	a5,a5,1 # 20400001 <__BSS_END__+0x203e127d>
   158d2:	00d7d7b3          	srl	a5,a5,a3
   158d6:	8b85                	and	a5,a5,1
   158d8:	cbed                	beqz	a5,159ca <__sflush_r+0x186>
   158da:	4810                	lw	a2,16(s0)
   158dc:	77fd                	lui	a5,0xfffff
   158de:	7ff78793          	add	a5,a5,2047 # fffff7ff <__BSS_END__+0xfffe0a7b>
   158e2:	8ff9                	and	a5,a5,a4
   158e4:	00f41623          	sh	a5,12(s0)
   158e8:	00042223          	sw	zero,4(s0)
   158ec:	c010                	sw	a2,0(s0)
   158ee:	01371793          	sll	a5,a4,0x13
   158f2:	0007d363          	bgez	a5,158f8 <__sflush_r+0xb4>
   158f6:	c6dd                	beqz	a3,159a4 <__sflush_r+0x160>
   158f8:	580c                	lw	a1,48(s0)
   158fa:	0099a023          	sw	s1,0(s3)
   158fe:	c9c5                	beqz	a1,159ae <__sflush_r+0x16a>
   15900:	04040793          	add	a5,s0,64
   15904:	00f58563          	beq	a1,a5,1590e <__sflush_r+0xca>
   15908:	854e                	mv	a0,s3
   1590a:	b44fc0ef          	jal	11c4e <_free_r>
   1590e:	44d2                	lw	s1,20(sp)
   15910:	02042823          	sw	zero,48(s0)
   15914:	4501                	li	a0,0
   15916:	40f2                	lw	ra,28(sp)
   15918:	4462                	lw	s0,24(sp)
   1591a:	49b2                	lw	s3,12(sp)
   1591c:	6105                	add	sp,sp,32
   1591e:	8082                	ret
   15920:	c84a                	sw	s2,16(sp)
   15922:	0105a903          	lw	s2,16(a1)
   15926:	04090b63          	beqz	s2,1597c <__sflush_r+0x138>
   1592a:	ca26                	sw	s1,20(sp)
   1592c:	4184                	lw	s1,0(a1)
   1592e:	8b0d                	and	a4,a4,3
   15930:	0125a023          	sw	s2,0(a1)
   15934:	412484b3          	sub	s1,s1,s2
   15938:	4781                	li	a5,0
   1593a:	e311                	bnez	a4,1593e <__sflush_r+0xfa>
   1593c:	49dc                	lw	a5,20(a1)
   1593e:	c41c                	sw	a5,8(s0)
   15940:	00904663          	bgtz	s1,1594c <__sflush_r+0x108>
   15944:	a81d                	j	1597a <__sflush_r+0x136>
   15946:	992a                	add	s2,s2,a0
   15948:	02905963          	blez	s1,1597a <__sflush_r+0x136>
   1594c:	505c                	lw	a5,36(s0)
   1594e:	4c4c                	lw	a1,28(s0)
   15950:	86a6                	mv	a3,s1
   15952:	864a                	mv	a2,s2
   15954:	854e                	mv	a0,s3
   15956:	9782                	jalr	a5
   15958:	8c89                	sub	s1,s1,a0
   1595a:	fea046e3          	bgtz	a0,15946 <__sflush_r+0x102>
   1595e:	00c41703          	lh	a4,12(s0)
   15962:	4942                	lw	s2,16(sp)
   15964:	04076713          	or	a4,a4,64
   15968:	44d2                	lw	s1,20(sp)
   1596a:	00e41623          	sh	a4,12(s0)
   1596e:	557d                	li	a0,-1
   15970:	b75d                	j	15916 <__sflush_r+0xd2>
   15972:	5dd4                	lw	a3,60(a1)
   15974:	eed04ce3          	bgtz	a3,1586c <__sflush_r+0x28>
   15978:	bf71                	j	15914 <__sflush_r+0xd0>
   1597a:	44d2                	lw	s1,20(sp)
   1597c:	4942                	lw	s2,16(sp)
   1597e:	bf59                	j	15914 <__sflush_r+0xd0>
   15980:	4830                	lw	a2,80(s0)
   15982:	b705                	j	158a2 <__sflush_r+0x5e>
   15984:	00c41703          	lh	a4,12(s0)
   15988:	4814                	lw	a3,16(s0)
   1598a:	77fd                	lui	a5,0xfffff
   1598c:	7ff78793          	add	a5,a5,2047 # fffff7ff <__BSS_END__+0xfffe0a7b>
   15990:	8ff9                	and	a5,a5,a4
   15992:	00f41623          	sh	a5,12(s0)
   15996:	00042223          	sw	zero,4(s0)
   1599a:	c014                	sw	a3,0(s0)
   1599c:	01371793          	sll	a5,a4,0x13
   159a0:	f407dce3          	bgez	a5,158f8 <__sflush_r+0xb4>
   159a4:	580c                	lw	a1,48(s0)
   159a6:	c828                	sw	a0,80(s0)
   159a8:	0099a023          	sw	s1,0(s3)
   159ac:	f9b1                	bnez	a1,15900 <__sflush_r+0xbc>
   159ae:	44d2                	lw	s1,20(sp)
   159b0:	b795                	j	15914 <__sflush_r+0xd0>
   159b2:	0009a783          	lw	a5,0(s3)
   159b6:	ee0781e3          	beqz	a5,15898 <__sflush_r+0x54>
   159ba:	4775                	li	a4,29
   159bc:	00e78a63          	beq	a5,a4,159d0 <__sflush_r+0x18c>
   159c0:	4759                	li	a4,22
   159c2:	00e78763          	beq	a5,a4,159d0 <__sflush_r+0x18c>
   159c6:	00c41703          	lh	a4,12(s0)
   159ca:	04076713          	or	a4,a4,64
   159ce:	bf69                	j	15968 <__sflush_r+0x124>
   159d0:	0099a023          	sw	s1,0(s3)
   159d4:	44d2                	lw	s1,20(sp)
   159d6:	bf3d                	j	15914 <__sflush_r+0xd0>

000159d8 <_fflush_r>:
   159d8:	1141                	add	sp,sp,-16
   159da:	c422                	sw	s0,8(sp)
   159dc:	c226                	sw	s1,4(sp)
   159de:	c606                	sw	ra,12(sp)
   159e0:	c04a                	sw	s2,0(sp)
   159e2:	84aa                	mv	s1,a0
   159e4:	842e                	mv	s0,a1
   159e6:	c119                	beqz	a0,159ec <_fflush_r+0x14>
   159e8:	595c                	lw	a5,52(a0)
   159ea:	c3bd                	beqz	a5,15a50 <_fflush_r+0x78>
   159ec:	00c41783          	lh	a5,12(s0)
   159f0:	4901                	li	s2,0
   159f2:	c39d                	beqz	a5,15a18 <_fflush_r+0x40>
   159f4:	5078                	lw	a4,100(s0)
   159f6:	8b05                	and	a4,a4,1
   159f8:	e701                	bnez	a4,15a00 <_fflush_r+0x28>
   159fa:	2007f793          	and	a5,a5,512
   159fe:	c785                	beqz	a5,15a26 <_fflush_r+0x4e>
   15a00:	85a2                	mv	a1,s0
   15a02:	8526                	mv	a0,s1
   15a04:	3581                	jal	15844 <__sflush_r>
   15a06:	507c                	lw	a5,100(s0)
   15a08:	892a                	mv	s2,a0
   15a0a:	8b85                	and	a5,a5,1
   15a0c:	e791                	bnez	a5,15a18 <_fflush_r+0x40>
   15a0e:	00c45783          	lhu	a5,12(s0)
   15a12:	2007f793          	and	a5,a5,512
   15a16:	c39d                	beqz	a5,15a3c <_fflush_r+0x64>
   15a18:	40b2                	lw	ra,12(sp)
   15a1a:	4422                	lw	s0,8(sp)
   15a1c:	4492                	lw	s1,4(sp)
   15a1e:	854a                	mv	a0,s2
   15a20:	4902                	lw	s2,0(sp)
   15a22:	0141                	add	sp,sp,16
   15a24:	8082                	ret
   15a26:	4c28                	lw	a0,88(s0)
   15a28:	f2dfb0ef          	jal	11954 <__retarget_lock_acquire_recursive>
   15a2c:	85a2                	mv	a1,s0
   15a2e:	8526                	mv	a0,s1
   15a30:	3d11                	jal	15844 <__sflush_r>
   15a32:	507c                	lw	a5,100(s0)
   15a34:	892a                	mv	s2,a0
   15a36:	8b85                	and	a5,a5,1
   15a38:	f3e5                	bnez	a5,15a18 <_fflush_r+0x40>
   15a3a:	bfd1                	j	15a0e <_fflush_r+0x36>
   15a3c:	4c28                	lw	a0,88(s0)
   15a3e:	f23fb0ef          	jal	11960 <__retarget_lock_release_recursive>
   15a42:	40b2                	lw	ra,12(sp)
   15a44:	4422                	lw	s0,8(sp)
   15a46:	4492                	lw	s1,4(sp)
   15a48:	854a                	mv	a0,s2
   15a4a:	4902                	lw	s2,0(sp)
   15a4c:	0141                	add	sp,sp,16
   15a4e:	8082                	ret
   15a50:	afffb0ef          	jal	1154e <__sinit>
   15a54:	bf61                	j	159ec <_fflush_r+0x14>

00015a56 <fflush>:
   15a56:	c925                	beqz	a0,15ac6 <fflush+0x70>
   15a58:	1141                	add	sp,sp,-16
   15a5a:	c422                	sw	s0,8(sp)
   15a5c:	c04a                	sw	s2,0(sp)
   15a5e:	c606                	sw	ra,12(sp)
   15a60:	c226                	sw	s1,4(sp)
   15a62:	f681a903          	lw	s2,-152(gp) # 1e778 <_impure_ptr>
   15a66:	842a                	mv	s0,a0
   15a68:	00090563          	beqz	s2,15a72 <fflush+0x1c>
   15a6c:	03492783          	lw	a5,52(s2)
   15a70:	cf9d                	beqz	a5,15aae <fflush+0x58>
   15a72:	00c41783          	lh	a5,12(s0)
   15a76:	4481                	li	s1,0
   15a78:	c785                	beqz	a5,15aa0 <fflush+0x4a>
   15a7a:	5078                	lw	a4,100(s0)
   15a7c:	8b05                	and	a4,a4,1
   15a7e:	e701                	bnez	a4,15a86 <fflush+0x30>
   15a80:	2007f793          	and	a5,a5,512
   15a84:	cb8d                	beqz	a5,15ab6 <fflush+0x60>
   15a86:	85a2                	mv	a1,s0
   15a88:	854a                	mv	a0,s2
   15a8a:	dbbff0ef          	jal	15844 <__sflush_r>
   15a8e:	507c                	lw	a5,100(s0)
   15a90:	84aa                	mv	s1,a0
   15a92:	8b85                	and	a5,a5,1
   15a94:	e791                	bnez	a5,15aa0 <fflush+0x4a>
   15a96:	00c45783          	lhu	a5,12(s0)
   15a9a:	2007f793          	and	a5,a5,512
   15a9e:	c385                	beqz	a5,15abe <fflush+0x68>
   15aa0:	40b2                	lw	ra,12(sp)
   15aa2:	4422                	lw	s0,8(sp)
   15aa4:	4902                	lw	s2,0(sp)
   15aa6:	8526                	mv	a0,s1
   15aa8:	4492                	lw	s1,4(sp)
   15aaa:	0141                	add	sp,sp,16
   15aac:	8082                	ret
   15aae:	854a                	mv	a0,s2
   15ab0:	a9ffb0ef          	jal	1154e <__sinit>
   15ab4:	bf7d                	j	15a72 <fflush+0x1c>
   15ab6:	4c28                	lw	a0,88(s0)
   15ab8:	e9dfb0ef          	jal	11954 <__retarget_lock_acquire_recursive>
   15abc:	b7e9                	j	15a86 <fflush+0x30>
   15abe:	4c28                	lw	a0,88(s0)
   15ac0:	ea1fb0ef          	jal	11960 <__retarget_lock_release_recursive>
   15ac4:	bff1                	j	15aa0 <fflush+0x4a>
   15ac6:	83018613          	add	a2,gp,-2000 # 1e040 <__sglue>
   15aca:	00000597          	auipc	a1,0x0
   15ace:	f0e58593          	add	a1,a1,-242 # 159d8 <_fflush_r>
   15ad2:	00008517          	auipc	a0,0x8
   15ad6:	57e50513          	add	a0,a0,1406 # 1e050 <_impure_data>
   15ada:	af9fb06f          	j	115d2 <_fwalk_sglue>

00015ade <__sfvwrite_r>:
   15ade:	461c                	lw	a5,8(a2)
   15ae0:	1c078f63          	beqz	a5,15cbe <__sfvwrite_r+0x1e0>
   15ae4:	00c59683          	lh	a3,12(a1)
   15ae8:	7179                	add	sp,sp,-48
   15aea:	d422                	sw	s0,40(sp)
   15aec:	cc52                	sw	s4,24(sp)
   15aee:	c85a                	sw	s6,16(sp)
   15af0:	d606                	sw	ra,44(sp)
   15af2:	0086f793          	and	a5,a3,8
   15af6:	8b32                	mv	s6,a2
   15af8:	8a2a                	mv	s4,a0
   15afa:	842e                	mv	s0,a1
   15afc:	c7ad                	beqz	a5,15b66 <__sfvwrite_r+0x88>
   15afe:	499c                	lw	a5,16(a1)
   15b00:	c3bd                	beqz	a5,15b66 <__sfvwrite_r+0x88>
   15b02:	d226                	sw	s1,36(sp)
   15b04:	d04a                	sw	s2,32(sp)
   15b06:	ce4e                	sw	s3,28(sp)
   15b08:	ca56                	sw	s5,20(sp)
   15b0a:	0026f793          	and	a5,a3,2
   15b0e:	000b2483          	lw	s1,0(s6)
   15b12:	cbb5                	beqz	a5,15b86 <__sfvwrite_r+0xa8>
   15b14:	505c                	lw	a5,36(s0)
   15b16:	4c4c                	lw	a1,28(s0)
   15b18:	80000ab7          	lui	s5,0x80000
   15b1c:	4981                	li	s3,0
   15b1e:	4901                	li	s2,0
   15b20:	c00a8a93          	add	s5,s5,-1024 # 7ffffc00 <__BSS_END__+0x7ffe0e7c>
   15b24:	864e                	mv	a2,s3
   15b26:	8552                	mv	a0,s4
   15b28:	02090963          	beqz	s2,15b5a <__sfvwrite_r+0x7c>
   15b2c:	86ca                	mv	a3,s2
   15b2e:	012af363          	bgeu	s5,s2,15b34 <__sfvwrite_r+0x56>
   15b32:	86d6                	mv	a3,s5
   15b34:	9782                	jalr	a5
   15b36:	2ea05463          	blez	a0,15e1e <__sfvwrite_r+0x340>
   15b3a:	008b2783          	lw	a5,8(s6)
   15b3e:	99aa                	add	s3,s3,a0
   15b40:	40a90933          	sub	s2,s2,a0
   15b44:	8f89                	sub	a5,a5,a0
   15b46:	00fb2423          	sw	a5,8(s6)
   15b4a:	12078763          	beqz	a5,15c78 <__sfvwrite_r+0x19a>
   15b4e:	505c                	lw	a5,36(s0)
   15b50:	4c4c                	lw	a1,28(s0)
   15b52:	864e                	mv	a2,s3
   15b54:	8552                	mv	a0,s4
   15b56:	fc091be3          	bnez	s2,15b2c <__sfvwrite_r+0x4e>
   15b5a:	0004a983          	lw	s3,0(s1)
   15b5e:	0044a903          	lw	s2,4(s1)
   15b62:	04a1                	add	s1,s1,8
   15b64:	b7c1                	j	15b24 <__sfvwrite_r+0x46>
   15b66:	85a2                	mv	a1,s0
   15b68:	8552                	mv	a0,s4
   15b6a:	24f1                	jal	15e36 <__swsetup_r>
   15b6c:	14051263          	bnez	a0,15cb0 <__sfvwrite_r+0x1d2>
   15b70:	00c41683          	lh	a3,12(s0)
   15b74:	d226                	sw	s1,36(sp)
   15b76:	d04a                	sw	s2,32(sp)
   15b78:	ce4e                	sw	s3,28(sp)
   15b7a:	ca56                	sw	s5,20(sp)
   15b7c:	0026f793          	and	a5,a3,2
   15b80:	000b2483          	lw	s1,0(s6)
   15b84:	fbc1                	bnez	a5,15b14 <__sfvwrite_r+0x36>
   15b86:	c65e                	sw	s7,12(sp)
   15b88:	c462                	sw	s8,8(sp)
   15b8a:	0016f793          	and	a5,a3,1
   15b8e:	12079a63          	bnez	a5,15cc2 <__sfvwrite_r+0x1e4>
   15b92:	401c                	lw	a5,0(s0)
   15b94:	4418                	lw	a4,8(s0)
   15b96:	80000ab7          	lui	s5,0x80000
   15b9a:	c266                	sw	s9,4(sp)
   15b9c:	4b81                	li	s7,0
   15b9e:	4981                	li	s3,0
   15ba0:	1afd                	add	s5,s5,-1 # 7fffffff <__BSS_END__+0x7ffe127b>
   15ba2:	853e                	mv	a0,a5
   15ba4:	8c3a                	mv	s8,a4
   15ba6:	0c098063          	beqz	s3,15c66 <__sfvwrite_r+0x188>
   15baa:	2006f613          	and	a2,a3,512
   15bae:	1a060a63          	beqz	a2,15d62 <__sfvwrite_r+0x284>
   15bb2:	8cba                	mv	s9,a4
   15bb4:	20e9ec63          	bltu	s3,a4,15dcc <__sfvwrite_r+0x2ee>
   15bb8:	4806f713          	and	a4,a3,1152
   15bbc:	cb25                	beqz	a4,15c2c <__sfvwrite_r+0x14e>
   15bbe:	4850                	lw	a2,20(s0)
   15bc0:	480c                	lw	a1,16(s0)
   15bc2:	00161713          	sll	a4,a2,0x1
   15bc6:	9732                	add	a4,a4,a2
   15bc8:	40b78933          	sub	s2,a5,a1
   15bcc:	01f75c13          	srl	s8,a4,0x1f
   15bd0:	9c3a                	add	s8,s8,a4
   15bd2:	00190793          	add	a5,s2,1
   15bd6:	401c5c13          	sra	s8,s8,0x1
   15bda:	97ce                	add	a5,a5,s3
   15bdc:	8662                	mv	a2,s8
   15bde:	00fc7463          	bgeu	s8,a5,15be6 <__sfvwrite_r+0x108>
   15be2:	8c3e                	mv	s8,a5
   15be4:	863e                	mv	a2,a5
   15be6:	4006f693          	and	a3,a3,1024
   15bea:	20068163          	beqz	a3,15dec <__sfvwrite_r+0x30e>
   15bee:	85b2                	mv	a1,a2
   15bf0:	8552                	mv	a0,s4
   15bf2:	a84fc0ef          	jal	11e76 <_malloc_r>
   15bf6:	8caa                	mv	s9,a0
   15bf8:	22050663          	beqz	a0,15e24 <__sfvwrite_r+0x346>
   15bfc:	480c                	lw	a1,16(s0)
   15bfe:	864a                	mv	a2,s2
   15c00:	0d4010ef          	jal	16cd4 <memcpy>
   15c04:	00c45783          	lhu	a5,12(s0)
   15c08:	b7f7f793          	and	a5,a5,-1153
   15c0c:	0807e793          	or	a5,a5,128
   15c10:	00f41623          	sh	a5,12(s0)
   15c14:	012c8533          	add	a0,s9,s2
   15c18:	412c07b3          	sub	a5,s8,s2
   15c1c:	01942823          	sw	s9,16(s0)
   15c20:	01842a23          	sw	s8,20(s0)
   15c24:	c008                	sw	a0,0(s0)
   15c26:	8c4e                	mv	s8,s3
   15c28:	c41c                	sw	a5,8(s0)
   15c2a:	8cce                	mv	s9,s3
   15c2c:	8666                	mv	a2,s9
   15c2e:	85de                	mv	a1,s7
   15c30:	7d9000ef          	jal	16c08 <memmove>
   15c34:	4418                	lw	a4,8(s0)
   15c36:	401c                	lw	a5,0(s0)
   15c38:	894e                	mv	s2,s3
   15c3a:	41870733          	sub	a4,a4,s8
   15c3e:	97e6                	add	a5,a5,s9
   15c40:	c418                	sw	a4,8(s0)
   15c42:	c01c                	sw	a5,0(s0)
   15c44:	4981                	li	s3,0
   15c46:	008b2783          	lw	a5,8(s6)
   15c4a:	9bca                	add	s7,s7,s2
   15c4c:	412787b3          	sub	a5,a5,s2
   15c50:	00fb2423          	sw	a5,8(s6)
   15c54:	cf99                	beqz	a5,15c72 <__sfvwrite_r+0x194>
   15c56:	401c                	lw	a5,0(s0)
   15c58:	4418                	lw	a4,8(s0)
   15c5a:	00c41683          	lh	a3,12(s0)
   15c5e:	853e                	mv	a0,a5
   15c60:	8c3a                	mv	s8,a4
   15c62:	f40994e3          	bnez	s3,15baa <__sfvwrite_r+0xcc>
   15c66:	0004ab83          	lw	s7,0(s1)
   15c6a:	0044a983          	lw	s3,4(s1)
   15c6e:	04a1                	add	s1,s1,8
   15c70:	bf0d                	j	15ba2 <__sfvwrite_r+0xc4>
   15c72:	4bb2                	lw	s7,12(sp)
   15c74:	4c22                	lw	s8,8(sp)
   15c76:	4c92                	lw	s9,4(sp)
   15c78:	50b2                	lw	ra,44(sp)
   15c7a:	5422                	lw	s0,40(sp)
   15c7c:	5492                	lw	s1,36(sp)
   15c7e:	5902                	lw	s2,32(sp)
   15c80:	49f2                	lw	s3,28(sp)
   15c82:	4ad2                	lw	s5,20(sp)
   15c84:	4a62                	lw	s4,24(sp)
   15c86:	4b42                	lw	s6,16(sp)
   15c88:	4501                	li	a0,0
   15c8a:	6145                	add	sp,sp,48
   15c8c:	8082                	ret
   15c8e:	85a2                	mv	a1,s0
   15c90:	8552                	mv	a0,s4
   15c92:	d47ff0ef          	jal	159d8 <_fflush_r>
   15c96:	c93d                	beqz	a0,15d0c <__sfvwrite_r+0x22e>
   15c98:	00c41783          	lh	a5,12(s0)
   15c9c:	4bb2                	lw	s7,12(sp)
   15c9e:	4c22                	lw	s8,8(sp)
   15ca0:	5492                	lw	s1,36(sp)
   15ca2:	5902                	lw	s2,32(sp)
   15ca4:	49f2                	lw	s3,28(sp)
   15ca6:	4ad2                	lw	s5,20(sp)
   15ca8:	0407e793          	or	a5,a5,64
   15cac:	00f41623          	sh	a5,12(s0)
   15cb0:	50b2                	lw	ra,44(sp)
   15cb2:	5422                	lw	s0,40(sp)
   15cb4:	4a62                	lw	s4,24(sp)
   15cb6:	4b42                	lw	s6,16(sp)
   15cb8:	557d                	li	a0,-1
   15cba:	6145                	add	sp,sp,48
   15cbc:	8082                	ret
   15cbe:	4501                	li	a0,0
   15cc0:	8082                	ret
   15cc2:	4a81                	li	s5,0
   15cc4:	4501                	li	a0,0
   15cc6:	4c01                	li	s8,0
   15cc8:	4981                	li	s3,0
   15cca:	04098e63          	beqz	s3,15d26 <__sfvwrite_r+0x248>
   15cce:	c525                	beqz	a0,15d36 <__sfvwrite_r+0x258>
   15cd0:	87d6                	mv	a5,s5
   15cd2:	8bce                	mv	s7,s3
   15cd4:	0137f363          	bgeu	a5,s3,15cda <__sfvwrite_r+0x1fc>
   15cd8:	8bbe                	mv	s7,a5
   15cda:	4008                	lw	a0,0(s0)
   15cdc:	481c                	lw	a5,16(s0)
   15cde:	00842903          	lw	s2,8(s0)
   15ce2:	4854                	lw	a3,20(s0)
   15ce4:	00a7f563          	bgeu	a5,a0,15cee <__sfvwrite_r+0x210>
   15ce8:	9936                	add	s2,s2,a3
   15cea:	05794f63          	blt	s2,s7,15d48 <__sfvwrite_r+0x26a>
   15cee:	0edbc263          	blt	s7,a3,15dd2 <__sfvwrite_r+0x2f4>
   15cf2:	505c                	lw	a5,36(s0)
   15cf4:	4c4c                	lw	a1,28(s0)
   15cf6:	8662                	mv	a2,s8
   15cf8:	8552                	mv	a0,s4
   15cfa:	9782                	jalr	a5
   15cfc:	892a                	mv	s2,a0
   15cfe:	f8a05de3          	blez	a0,15c98 <__sfvwrite_r+0x1ba>
   15d02:	412a8ab3          	sub	s5,s5,s2
   15d06:	4505                	li	a0,1
   15d08:	f80a83e3          	beqz	s5,15c8e <__sfvwrite_r+0x1b0>
   15d0c:	008b2783          	lw	a5,8(s6)
   15d10:	9c4a                	add	s8,s8,s2
   15d12:	412989b3          	sub	s3,s3,s2
   15d16:	412787b3          	sub	a5,a5,s2
   15d1a:	00fb2423          	sw	a5,8(s6)
   15d1e:	f7d5                	bnez	a5,15cca <__sfvwrite_r+0x1ec>
   15d20:	4bb2                	lw	s7,12(sp)
   15d22:	4c22                	lw	s8,8(sp)
   15d24:	bf91                	j	15c78 <__sfvwrite_r+0x19a>
   15d26:	0044a983          	lw	s3,4(s1)
   15d2a:	87a6                	mv	a5,s1
   15d2c:	04a1                	add	s1,s1,8
   15d2e:	fe098ce3          	beqz	s3,15d26 <__sfvwrite_r+0x248>
   15d32:	0007ac03          	lw	s8,0(a5)
   15d36:	864e                	mv	a2,s3
   15d38:	45a9                	li	a1,10
   15d3a:	8562                	mv	a0,s8
   15d3c:	2e6d                	jal	160f6 <memchr>
   15d3e:	cd61                	beqz	a0,15e16 <__sfvwrite_r+0x338>
   15d40:	0505                	add	a0,a0,1
   15d42:	41850ab3          	sub	s5,a0,s8
   15d46:	b769                	j	15cd0 <__sfvwrite_r+0x1f2>
   15d48:	85e2                	mv	a1,s8
   15d4a:	864a                	mv	a2,s2
   15d4c:	6bd000ef          	jal	16c08 <memmove>
   15d50:	401c                	lw	a5,0(s0)
   15d52:	85a2                	mv	a1,s0
   15d54:	8552                	mv	a0,s4
   15d56:	97ca                	add	a5,a5,s2
   15d58:	c01c                	sw	a5,0(s0)
   15d5a:	c7fff0ef          	jal	159d8 <_fflush_r>
   15d5e:	d155                	beqz	a0,15d02 <__sfvwrite_r+0x224>
   15d60:	bf25                	j	15c98 <__sfvwrite_r+0x1ba>
   15d62:	4814                	lw	a3,16(s0)
   15d64:	02f6e863          	bltu	a3,a5,15d94 <__sfvwrite_r+0x2b6>
   15d68:	4850                	lw	a2,20(s0)
   15d6a:	02c9e563          	bltu	s3,a2,15d94 <__sfvwrite_r+0x2b6>
   15d6e:	87ce                	mv	a5,s3
   15d70:	013af363          	bgeu	s5,s3,15d76 <__sfvwrite_r+0x298>
   15d74:	87d6                	mv	a5,s5
   15d76:	02c7e6b3          	rem	a3,a5,a2
   15d7a:	5058                	lw	a4,36(s0)
   15d7c:	4c4c                	lw	a1,28(s0)
   15d7e:	865e                	mv	a2,s7
   15d80:	8552                	mv	a0,s4
   15d82:	40d786b3          	sub	a3,a5,a3
   15d86:	9702                	jalr	a4
   15d88:	892a                	mv	s2,a0
   15d8a:	02a05b63          	blez	a0,15dc0 <__sfvwrite_r+0x2e2>
   15d8e:	412989b3          	sub	s3,s3,s2
   15d92:	bd55                	j	15c46 <__sfvwrite_r+0x168>
   15d94:	893a                	mv	s2,a4
   15d96:	00e9f363          	bgeu	s3,a4,15d9c <__sfvwrite_r+0x2be>
   15d9a:	894e                	mv	s2,s3
   15d9c:	853e                	mv	a0,a5
   15d9e:	864a                	mv	a2,s2
   15da0:	85de                	mv	a1,s7
   15da2:	667000ef          	jal	16c08 <memmove>
   15da6:	4418                	lw	a4,8(s0)
   15da8:	401c                	lw	a5,0(s0)
   15daa:	41270733          	sub	a4,a4,s2
   15dae:	97ca                	add	a5,a5,s2
   15db0:	c418                	sw	a4,8(s0)
   15db2:	c01c                	sw	a5,0(s0)
   15db4:	ff69                	bnez	a4,15d8e <__sfvwrite_r+0x2b0>
   15db6:	85a2                	mv	a1,s0
   15db8:	8552                	mv	a0,s4
   15dba:	c1fff0ef          	jal	159d8 <_fflush_r>
   15dbe:	d961                	beqz	a0,15d8e <__sfvwrite_r+0x2b0>
   15dc0:	00c41783          	lh	a5,12(s0)
   15dc4:	4bb2                	lw	s7,12(sp)
   15dc6:	4c22                	lw	s8,8(sp)
   15dc8:	4c92                	lw	s9,4(sp)
   15dca:	bdd9                	j	15ca0 <__sfvwrite_r+0x1c2>
   15dcc:	8c4e                	mv	s8,s3
   15dce:	8cce                	mv	s9,s3
   15dd0:	bdb1                	j	15c2c <__sfvwrite_r+0x14e>
   15dd2:	865e                	mv	a2,s7
   15dd4:	85e2                	mv	a1,s8
   15dd6:	633000ef          	jal	16c08 <memmove>
   15dda:	4418                	lw	a4,8(s0)
   15ddc:	401c                	lw	a5,0(s0)
   15dde:	895e                	mv	s2,s7
   15de0:	41770733          	sub	a4,a4,s7
   15de4:	97de                	add	a5,a5,s7
   15de6:	c418                	sw	a4,8(s0)
   15de8:	c01c                	sw	a5,0(s0)
   15dea:	bf21                	j	15d02 <__sfvwrite_r+0x224>
   15dec:	8552                	mv	a0,s4
   15dee:	6be030ef          	jal	194ac <_realloc_r>
   15df2:	8caa                	mv	s9,a0
   15df4:	e20510e3          	bnez	a0,15c14 <__sfvwrite_r+0x136>
   15df8:	480c                	lw	a1,16(s0)
   15dfa:	8552                	mv	a0,s4
   15dfc:	e53fb0ef          	jal	11c4e <_free_r>
   15e00:	00c41783          	lh	a5,12(s0)
   15e04:	4731                	li	a4,12
   15e06:	4bb2                	lw	s7,12(sp)
   15e08:	4c22                	lw	s8,8(sp)
   15e0a:	4c92                	lw	s9,4(sp)
   15e0c:	00ea2023          	sw	a4,0(s4)
   15e10:	f7f7f793          	and	a5,a5,-129
   15e14:	b571                	j	15ca0 <__sfvwrite_r+0x1c2>
   15e16:	00198793          	add	a5,s3,1
   15e1a:	8abe                	mv	s5,a5
   15e1c:	bd5d                	j	15cd2 <__sfvwrite_r+0x1f4>
   15e1e:	00c41783          	lh	a5,12(s0)
   15e22:	bdbd                	j	15ca0 <__sfvwrite_r+0x1c2>
   15e24:	4731                	li	a4,12
   15e26:	00c41783          	lh	a5,12(s0)
   15e2a:	4bb2                	lw	s7,12(sp)
   15e2c:	4c22                	lw	s8,8(sp)
   15e2e:	4c92                	lw	s9,4(sp)
   15e30:	00ea2023          	sw	a4,0(s4)
   15e34:	b5b5                	j	15ca0 <__sfvwrite_r+0x1c2>

00015e36 <__swsetup_r>:
   15e36:	1141                	add	sp,sp,-16
   15e38:	c422                	sw	s0,8(sp)
   15e3a:	c226                	sw	s1,4(sp)
   15e3c:	c606                	sw	ra,12(sp)
   15e3e:	f681a783          	lw	a5,-152(gp) # 1e778 <_impure_ptr>
   15e42:	84aa                	mv	s1,a0
   15e44:	842e                	mv	s0,a1
   15e46:	c399                	beqz	a5,15e4c <__swsetup_r+0x16>
   15e48:	5bd8                	lw	a4,52(a5)
   15e4a:	c75d                	beqz	a4,15ef8 <__swsetup_r+0xc2>
   15e4c:	00c41783          	lh	a5,12(s0)
   15e50:	0087f713          	and	a4,a5,8
   15e54:	c721                	beqz	a4,15e9c <__swsetup_r+0x66>
   15e56:	4818                	lw	a4,16(s0)
   15e58:	cf31                	beqz	a4,15eb4 <__swsetup_r+0x7e>
   15e5a:	0017f693          	and	a3,a5,1
   15e5e:	ce91                	beqz	a3,15e7a <__swsetup_r+0x44>
   15e60:	4854                	lw	a3,20(s0)
   15e62:	00042423          	sw	zero,8(s0)
   15e66:	4501                	li	a0,0
   15e68:	40d006b3          	neg	a3,a3
   15e6c:	cc14                	sw	a3,24(s0)
   15e6e:	cf11                	beqz	a4,15e8a <__swsetup_r+0x54>
   15e70:	40b2                	lw	ra,12(sp)
   15e72:	4422                	lw	s0,8(sp)
   15e74:	4492                	lw	s1,4(sp)
   15e76:	0141                	add	sp,sp,16
   15e78:	8082                	ret
   15e7a:	0027f693          	and	a3,a5,2
   15e7e:	4601                	li	a2,0
   15e80:	e291                	bnez	a3,15e84 <__swsetup_r+0x4e>
   15e82:	4850                	lw	a2,20(s0)
   15e84:	c410                	sw	a2,8(s0)
   15e86:	4501                	li	a0,0
   15e88:	f765                	bnez	a4,15e70 <__swsetup_r+0x3a>
   15e8a:	0807f713          	and	a4,a5,128
   15e8e:	d36d                	beqz	a4,15e70 <__swsetup_r+0x3a>
   15e90:	0407e793          	or	a5,a5,64
   15e94:	00f41623          	sh	a5,12(s0)
   15e98:	557d                	li	a0,-1
   15e9a:	bfd9                	j	15e70 <__swsetup_r+0x3a>
   15e9c:	0107f713          	and	a4,a5,16
   15ea0:	c325                	beqz	a4,15f00 <__swsetup_r+0xca>
   15ea2:	0047f713          	and	a4,a5,4
   15ea6:	e70d                	bnez	a4,15ed0 <__swsetup_r+0x9a>
   15ea8:	4818                	lw	a4,16(s0)
   15eaa:	0087e793          	or	a5,a5,8
   15eae:	00f41623          	sh	a5,12(s0)
   15eb2:	f745                	bnez	a4,15e5a <__swsetup_r+0x24>
   15eb4:	2807f693          	and	a3,a5,640
   15eb8:	20000613          	li	a2,512
   15ebc:	f8c68fe3          	beq	a3,a2,15e5a <__swsetup_r+0x24>
   15ec0:	85a2                	mv	a1,s0
   15ec2:	8526                	mv	a0,s1
   15ec4:	69d030ef          	jal	19d60 <__smakebuf_r>
   15ec8:	00c41783          	lh	a5,12(s0)
   15ecc:	4818                	lw	a4,16(s0)
   15ece:	b771                	j	15e5a <__swsetup_r+0x24>
   15ed0:	580c                	lw	a1,48(s0)
   15ed2:	cd81                	beqz	a1,15eea <__swsetup_r+0xb4>
   15ed4:	04040713          	add	a4,s0,64
   15ed8:	00e58763          	beq	a1,a4,15ee6 <__swsetup_r+0xb0>
   15edc:	8526                	mv	a0,s1
   15ede:	d71fb0ef          	jal	11c4e <_free_r>
   15ee2:	00c41783          	lh	a5,12(s0)
   15ee6:	02042823          	sw	zero,48(s0)
   15eea:	4818                	lw	a4,16(s0)
   15eec:	fdb7f793          	and	a5,a5,-37
   15ef0:	00042223          	sw	zero,4(s0)
   15ef4:	c018                	sw	a4,0(s0)
   15ef6:	bf55                	j	15eaa <__swsetup_r+0x74>
   15ef8:	853e                	mv	a0,a5
   15efa:	e54fb0ef          	jal	1154e <__sinit>
   15efe:	b7b9                	j	15e4c <__swsetup_r+0x16>
   15f00:	4725                	li	a4,9
   15f02:	c098                	sw	a4,0(s1)
   15f04:	0407e793          	or	a5,a5,64
   15f08:	00f41623          	sh	a5,12(s0)
   15f0c:	557d                	li	a0,-1
   15f0e:	b78d                	j	15e70 <__swsetup_r+0x3a>

00015f10 <__fputwc>:
   15f10:	7139                	add	sp,sp,-64
   15f12:	dc22                	sw	s0,56(sp)
   15f14:	d452                	sw	s4,40(sp)
   15f16:	d256                	sw	s5,36(sp)
   15f18:	de06                	sw	ra,60(sp)
   15f1a:	da26                	sw	s1,52(sp)
   15f1c:	d64e                	sw	s3,44(sp)
   15f1e:	8a2a                	mv	s4,a0
   15f20:	8aae                	mv	s5,a1
   15f22:	8432                	mv	s0,a2
   15f24:	491000ef          	jal	16bb4 <__locale_mb_cur_max>
   15f28:	4785                	li	a5,1
   15f2a:	02f51063          	bne	a0,a5,15f4a <__fputwc+0x3a>
   15f2e:	fffa8793          	add	a5,s5,-1
   15f32:	0fe00713          	li	a4,254
   15f36:	00f76a63          	bltu	a4,a5,15f4a <__fputwc+0x3a>
   15f3a:	d84a                	sw	s2,48(sp)
   15f3c:	d05a                	sw	s6,32(sp)
   15f3e:	ce5e                	sw	s7,28(sp)
   15f40:	01510423          	sb	s5,8(sp)
   15f44:	4985                	li	s3,1
   15f46:	0024                	add	s1,sp,8
   15f48:	a00d                	j	15f6a <__fputwc+0x5a>
   15f4a:	0024                	add	s1,sp,8
   15f4c:	05c40693          	add	a3,s0,92
   15f50:	8656                	mv	a2,s5
   15f52:	85a6                	mv	a1,s1
   15f54:	8552                	mv	a0,s4
   15f56:	533030ef          	jal	19c88 <_wcrtomb_r>
   15f5a:	57fd                	li	a5,-1
   15f5c:	89aa                	mv	s3,a0
   15f5e:	06f50f63          	beq	a0,a5,15fdc <__fputwc+0xcc>
   15f62:	c525                	beqz	a0,15fca <__fputwc+0xba>
   15f64:	d84a                	sw	s2,48(sp)
   15f66:	d05a                	sw	s6,32(sp)
   15f68:	ce5e                	sw	s7,28(sp)
   15f6a:	4901                	li	s2,0
   15f6c:	5b7d                	li	s6,-1
   15f6e:	4ba9                	li	s7,10
   15f70:	a819                	j	15f86 <__fputwc+0x76>
   15f72:	401c                	lw	a5,0(s0)
   15f74:	00178693          	add	a3,a5,1
   15f78:	c014                	sw	a3,0(s0)
   15f7a:	00e78023          	sb	a4,0(a5)
   15f7e:	0905                	add	s2,s2,1
   15f80:	0485                	add	s1,s1,1
   15f82:	05397163          	bgeu	s2,s3,15fc4 <__fputwc+0xb4>
   15f86:	441c                	lw	a5,8(s0)
   15f88:	0004c703          	lbu	a4,0(s1)
   15f8c:	17fd                	add	a5,a5,-1
   15f8e:	c41c                	sw	a5,8(s0)
   15f90:	fe07d1e3          	bgez	a5,15f72 <__fputwc+0x62>
   15f94:	4c14                	lw	a3,24(s0)
   15f96:	8622                	mv	a2,s0
   15f98:	85ba                	mv	a1,a4
   15f9a:	8552                	mv	a0,s4
   15f9c:	00d7c463          	blt	a5,a3,15fa4 <__fputwc+0x94>
   15fa0:	fd7719e3          	bne	a4,s7,15f72 <__fputwc+0x62>
   15fa4:	74f030ef          	jal	19ef2 <__swbuf_r>
   15fa8:	fd651be3          	bne	a0,s6,15f7e <__fputwc+0x6e>
   15fac:	5942                	lw	s2,48(sp)
   15fae:	5b02                	lw	s6,32(sp)
   15fb0:	4bf2                	lw	s7,28(sp)
   15fb2:	50f2                	lw	ra,60(sp)
   15fb4:	5462                	lw	s0,56(sp)
   15fb6:	54d2                	lw	s1,52(sp)
   15fb8:	59b2                	lw	s3,44(sp)
   15fba:	5a22                	lw	s4,40(sp)
   15fbc:	5a92                	lw	s5,36(sp)
   15fbe:	557d                	li	a0,-1
   15fc0:	6121                	add	sp,sp,64
   15fc2:	8082                	ret
   15fc4:	5942                	lw	s2,48(sp)
   15fc6:	5b02                	lw	s6,32(sp)
   15fc8:	4bf2                	lw	s7,28(sp)
   15fca:	50f2                	lw	ra,60(sp)
   15fcc:	5462                	lw	s0,56(sp)
   15fce:	54d2                	lw	s1,52(sp)
   15fd0:	59b2                	lw	s3,44(sp)
   15fd2:	5a22                	lw	s4,40(sp)
   15fd4:	8556                	mv	a0,s5
   15fd6:	5a92                	lw	s5,36(sp)
   15fd8:	6121                	add	sp,sp,64
   15fda:	8082                	ret
   15fdc:	00c45783          	lhu	a5,12(s0)
   15fe0:	0407e793          	or	a5,a5,64
   15fe4:	00f41623          	sh	a5,12(s0)
   15fe8:	b7e9                	j	15fb2 <__fputwc+0xa2>

00015fea <_fputwc_r>:
   15fea:	527c                	lw	a5,100(a2)
   15fec:	1101                	add	sp,sp,-32
   15fee:	cc22                	sw	s0,24(sp)
   15ff0:	ca26                	sw	s1,20(sp)
   15ff2:	0017f713          	and	a4,a5,1
   15ff6:	ce06                	sw	ra,28(sp)
   15ff8:	00c61783          	lh	a5,12(a2)
   15ffc:	8432                	mv	s0,a2
   15ffe:	84aa                	mv	s1,a0
   16000:	e701                	bnez	a4,16008 <_fputwc_r+0x1e>
   16002:	2007f713          	and	a4,a5,512
   16006:	cb21                	beqz	a4,16056 <_fputwc_r+0x6c>
   16008:	01279713          	sll	a4,a5,0x12
   1600c:	00074a63          	bltz	a4,16020 <_fputwc_r+0x36>
   16010:	5078                	lw	a4,100(s0)
   16012:	6689                	lui	a3,0x2
   16014:	8fd5                	or	a5,a5,a3
   16016:	6689                	lui	a3,0x2
   16018:	8f55                	or	a4,a4,a3
   1601a:	00f41623          	sh	a5,12(s0)
   1601e:	d078                	sw	a4,100(s0)
   16020:	8526                	mv	a0,s1
   16022:	8622                	mv	a2,s0
   16024:	35f5                	jal	15f10 <__fputwc>
   16026:	507c                	lw	a5,100(s0)
   16028:	84aa                	mv	s1,a0
   1602a:	8b85                	and	a5,a5,1
   1602c:	e791                	bnez	a5,16038 <_fputwc_r+0x4e>
   1602e:	00c45783          	lhu	a5,12(s0)
   16032:	2007f793          	and	a5,a5,512
   16036:	c799                	beqz	a5,16044 <_fputwc_r+0x5a>
   16038:	40f2                	lw	ra,28(sp)
   1603a:	4462                	lw	s0,24(sp)
   1603c:	8526                	mv	a0,s1
   1603e:	44d2                	lw	s1,20(sp)
   16040:	6105                	add	sp,sp,32
   16042:	8082                	ret
   16044:	4c28                	lw	a0,88(s0)
   16046:	91bfb0ef          	jal	11960 <__retarget_lock_release_recursive>
   1604a:	40f2                	lw	ra,28(sp)
   1604c:	4462                	lw	s0,24(sp)
   1604e:	8526                	mv	a0,s1
   16050:	44d2                	lw	s1,20(sp)
   16052:	6105                	add	sp,sp,32
   16054:	8082                	ret
   16056:	4e28                	lw	a0,88(a2)
   16058:	c62e                	sw	a1,12(sp)
   1605a:	8fbfb0ef          	jal	11954 <__retarget_lock_acquire_recursive>
   1605e:	00c41783          	lh	a5,12(s0)
   16062:	45b2                	lw	a1,12(sp)
   16064:	b755                	j	16008 <_fputwc_r+0x1e>

00016066 <fputwc>:
   16066:	1101                	add	sp,sp,-32
   16068:	cc22                	sw	s0,24(sp)
   1606a:	ca26                	sw	s1,20(sp)
   1606c:	ce06                	sw	ra,28(sp)
   1606e:	f681a483          	lw	s1,-152(gp) # 1e778 <_impure_ptr>
   16072:	842e                	mv	s0,a1
   16074:	85aa                	mv	a1,a0
   16076:	c099                	beqz	s1,1607c <fputwc+0x16>
   16078:	58dc                	lw	a5,52(s1)
   1607a:	cba5                	beqz	a5,160ea <fputwc+0x84>
   1607c:	5078                	lw	a4,100(s0)
   1607e:	00c41783          	lh	a5,12(s0)
   16082:	8b05                	and	a4,a4,1
   16084:	e701                	bnez	a4,1608c <fputwc+0x26>
   16086:	2007f713          	and	a4,a5,512
   1608a:	cb21                	beqz	a4,160da <fputwc+0x74>
   1608c:	01279713          	sll	a4,a5,0x12
   16090:	00074a63          	bltz	a4,160a4 <fputwc+0x3e>
   16094:	5078                	lw	a4,100(s0)
   16096:	6689                	lui	a3,0x2
   16098:	8fd5                	or	a5,a5,a3
   1609a:	6689                	lui	a3,0x2
   1609c:	8f55                	or	a4,a4,a3
   1609e:	00f41623          	sh	a5,12(s0)
   160a2:	d078                	sw	a4,100(s0)
   160a4:	8526                	mv	a0,s1
   160a6:	8622                	mv	a2,s0
   160a8:	35a5                	jal	15f10 <__fputwc>
   160aa:	507c                	lw	a5,100(s0)
   160ac:	84aa                	mv	s1,a0
   160ae:	8b85                	and	a5,a5,1
   160b0:	e791                	bnez	a5,160bc <fputwc+0x56>
   160b2:	00c45783          	lhu	a5,12(s0)
   160b6:	2007f793          	and	a5,a5,512
   160ba:	c799                	beqz	a5,160c8 <fputwc+0x62>
   160bc:	40f2                	lw	ra,28(sp)
   160be:	4462                	lw	s0,24(sp)
   160c0:	8526                	mv	a0,s1
   160c2:	44d2                	lw	s1,20(sp)
   160c4:	6105                	add	sp,sp,32
   160c6:	8082                	ret
   160c8:	4c28                	lw	a0,88(s0)
   160ca:	897fb0ef          	jal	11960 <__retarget_lock_release_recursive>
   160ce:	40f2                	lw	ra,28(sp)
   160d0:	4462                	lw	s0,24(sp)
   160d2:	8526                	mv	a0,s1
   160d4:	44d2                	lw	s1,20(sp)
   160d6:	6105                	add	sp,sp,32
   160d8:	8082                	ret
   160da:	4c28                	lw	a0,88(s0)
   160dc:	c62e                	sw	a1,12(sp)
   160de:	877fb0ef          	jal	11954 <__retarget_lock_acquire_recursive>
   160e2:	00c41783          	lh	a5,12(s0)
   160e6:	45b2                	lw	a1,12(sp)
   160e8:	b755                	j	1608c <fputwc+0x26>
   160ea:	c62a                	sw	a0,12(sp)
   160ec:	8526                	mv	a0,s1
   160ee:	c60fb0ef          	jal	1154e <__sinit>
   160f2:	45b2                	lw	a1,12(sp)
   160f4:	b761                	j	1607c <fputwc+0x16>

000160f6 <memchr>:
   160f6:	00357793          	and	a5,a0,3
   160fa:	0ff5f693          	zext.b	a3,a1
   160fe:	c395                	beqz	a5,16122 <memchr+0x2c>
   16100:	fff60793          	add	a5,a2,-1
   16104:	c605                	beqz	a2,1612c <memchr+0x36>
   16106:	567d                	li	a2,-1
   16108:	a801                	j	16118 <memchr+0x22>
   1610a:	0505                	add	a0,a0,1
   1610c:	00357713          	and	a4,a0,3
   16110:	cb11                	beqz	a4,16124 <memchr+0x2e>
   16112:	17fd                	add	a5,a5,-1
   16114:	00c78c63          	beq	a5,a2,1612c <memchr+0x36>
   16118:	00054703          	lbu	a4,0(a0)
   1611c:	fed717e3          	bne	a4,a3,1610a <memchr+0x14>
   16120:	8082                	ret
   16122:	87b2                	mv	a5,a2
   16124:	470d                	li	a4,3
   16126:	00f76563          	bltu	a4,a5,16130 <memchr+0x3a>
   1612a:	e3b9                	bnez	a5,16170 <memchr+0x7a>
   1612c:	4501                	li	a0,0
   1612e:	8082                	ret
   16130:	0ff5f593          	zext.b	a1,a1
   16134:	00859713          	sll	a4,a1,0x8
   16138:	95ba                	add	a1,a1,a4
   1613a:	01059713          	sll	a4,a1,0x10
   1613e:	feff08b7          	lui	a7,0xfeff0
   16142:	80808837          	lui	a6,0x80808
   16146:	95ba                	add	a1,a1,a4
   16148:	eff88893          	add	a7,a7,-257 # fefefeff <__BSS_END__+0xfefd117b>
   1614c:	08080813          	add	a6,a6,128 # 80808080 <__BSS_END__+0x807e92fc>
   16150:	430d                	li	t1,3
   16152:	a029                	j	1615c <memchr+0x66>
   16154:	17f1                	add	a5,a5,-4
   16156:	0511                	add	a0,a0,4
   16158:	fcf379e3          	bgeu	t1,a5,1612a <memchr+0x34>
   1615c:	4118                	lw	a4,0(a0)
   1615e:	8f2d                	xor	a4,a4,a1
   16160:	01170633          	add	a2,a4,a7
   16164:	fff74713          	not	a4,a4
   16168:	8f71                	and	a4,a4,a2
   1616a:	01077733          	and	a4,a4,a6
   1616e:	d37d                	beqz	a4,16154 <memchr+0x5e>
   16170:	97aa                	add	a5,a5,a0
   16172:	a021                	j	1617a <memchr+0x84>
   16174:	0505                	add	a0,a0,1
   16176:	faa78be3          	beq	a5,a0,1612c <memchr+0x36>
   1617a:	00054703          	lbu	a4,0(a0)
   1617e:	fed71be3          	bne	a4,a3,16174 <memchr+0x7e>
   16182:	8082                	ret

00016184 <strncpy>:
   16184:	00a5e7b3          	or	a5,a1,a0
   16188:	8b8d                	and	a5,a5,3
   1618a:	e781                	bnez	a5,16192 <strncpy+0xe>
   1618c:	478d                	li	a5,3
   1618e:	02c7eb63          	bltu	a5,a2,161c4 <strncpy+0x40>
   16192:	872a                	mv	a4,a0
   16194:	a811                	j	161a8 <strncpy+0x24>
   16196:	fff5c683          	lbu	a3,-1(a1)
   1619a:	fff60813          	add	a6,a2,-1
   1619e:	fed78fa3          	sb	a3,-1(a5)
   161a2:	ca81                	beqz	a3,161b2 <strncpy+0x2e>
   161a4:	873e                	mv	a4,a5
   161a6:	8642                	mv	a2,a6
   161a8:	0585                	add	a1,a1,1
   161aa:	00170793          	add	a5,a4,1
   161ae:	f665                	bnez	a2,16196 <strncpy+0x12>
   161b0:	8082                	ret
   161b2:	9732                	add	a4,a4,a2
   161b4:	04080463          	beqz	a6,161fc <strncpy+0x78>
   161b8:	0785                	add	a5,a5,1
   161ba:	fe078fa3          	sb	zero,-1(a5)
   161be:	fee79de3          	bne	a5,a4,161b8 <strncpy+0x34>
   161c2:	8082                	ret
   161c4:	feff0337          	lui	t1,0xfeff0
   161c8:	808088b7          	lui	a7,0x80808
   161cc:	872a                	mv	a4,a0
   161ce:	eff30313          	add	t1,t1,-257 # fefefeff <__BSS_END__+0xfefd117b>
   161d2:	08088893          	add	a7,a7,128 # 80808080 <__BSS_END__+0x807e92fc>
   161d6:	4e0d                	li	t3,3
   161d8:	a039                	j	161e6 <strncpy+0x62>
   161da:	c314                	sw	a3,0(a4)
   161dc:	1671                	add	a2,a2,-4
   161de:	0711                	add	a4,a4,4
   161e0:	0591                	add	a1,a1,4
   161e2:	fcce73e3          	bgeu	t3,a2,161a8 <strncpy+0x24>
   161e6:	4194                	lw	a3,0(a1)
   161e8:	006687b3          	add	a5,a3,t1
   161ec:	fff6c813          	not	a6,a3
   161f0:	0107f7b3          	and	a5,a5,a6
   161f4:	0117f7b3          	and	a5,a5,a7
   161f8:	d3ed                	beqz	a5,161da <strncpy+0x56>
   161fa:	b77d                	j	161a8 <strncpy+0x24>
   161fc:	8082                	ret

000161fe <currentlocale>:
   161fe:	1101                	add	sp,sp,-32
   16200:	ca26                	sw	s1,20(sp)
   16202:	d8818593          	add	a1,gp,-632 # 1e598 <__global_locale+0x20>
   16206:	48c18513          	add	a0,gp,1164 # 1ec9c <global_locale_string>
   1620a:	da818493          	add	s1,gp,-600 # 1e5b8 <__global_locale+0x40>
   1620e:	cc22                	sw	s0,24(sp)
   16210:	c84a                	sw	s2,16(sp)
   16212:	c64e                	sw	s3,12(sp)
   16214:	ce06                	sw	ra,28(sp)
   16216:	e4818913          	add	s2,gp,-440 # 1e658 <__global_locale+0xe0>
   1621a:	465000ef          	jal	16e7e <strcpy>
   1621e:	8426                	mv	s0,s1
   16220:	d8818993          	add	s3,gp,-632 # 1e598 <__global_locale+0x20>
   16224:	85a2                	mv	a1,s0
   16226:	854e                	mv	a0,s3
   16228:	4cf000ef          	jal	16ef6 <strcmp>
   1622c:	02040413          	add	s0,s0,32
   16230:	ed01                	bnez	a0,16248 <currentlocale+0x4a>
   16232:	ff2419e3          	bne	s0,s2,16224 <currentlocale+0x26>
   16236:	40f2                	lw	ra,28(sp)
   16238:	4462                	lw	s0,24(sp)
   1623a:	44d2                	lw	s1,20(sp)
   1623c:	4942                	lw	s2,16(sp)
   1623e:	49b2                	lw	s3,12(sp)
   16240:	48c18513          	add	a0,gp,1164 # 1ec9c <global_locale_string>
   16244:	6105                	add	sp,sp,32
   16246:	8082                	ret
   16248:	00007997          	auipc	s3,0x7
   1624c:	8c898993          	add	s3,s3,-1848 # 1cb10 <__trunctfdf2+0x312>
   16250:	48c18413          	add	s0,gp,1164 # 1ec9c <global_locale_string>
   16254:	85ce                	mv	a1,s3
   16256:	8522                	mv	a0,s0
   16258:	5ff030ef          	jal	1a056 <strcat>
   1625c:	85a6                	mv	a1,s1
   1625e:	8522                	mv	a0,s0
   16260:	02048493          	add	s1,s1,32
   16264:	5f3030ef          	jal	1a056 <strcat>
   16268:	ff2496e3          	bne	s1,s2,16254 <currentlocale+0x56>
   1626c:	40f2                	lw	ra,28(sp)
   1626e:	4462                	lw	s0,24(sp)
   16270:	44d2                	lw	s1,20(sp)
   16272:	4942                	lw	s2,16(sp)
   16274:	49b2                	lw	s3,12(sp)
   16276:	48c18513          	add	a0,gp,1164 # 1ec9c <global_locale_string>
   1627a:	6105                	add	sp,sp,32
   1627c:	8082                	ret

0001627e <__loadlocale>:
   1627e:	711d                	add	sp,sp,-96
   16280:	caa6                	sw	s1,84(sp)
   16282:	00559493          	sll	s1,a1,0x5
   16286:	94aa                	add	s1,s1,a0
   16288:	c8ca                	sw	s2,80(sp)
   1628a:	c6ce                	sw	s3,76(sp)
   1628c:	892a                	mv	s2,a0
   1628e:	89ae                	mv	s3,a1
   16290:	8532                	mv	a0,a2
   16292:	85a6                	mv	a1,s1
   16294:	cca2                	sw	s0,88(sp)
   16296:	ce86                	sw	ra,92(sp)
   16298:	8432                	mv	s0,a2
   1629a:	45d000ef          	jal	16ef6 <strcmp>
   1629e:	e909                	bnez	a0,162b0 <__loadlocale+0x32>
   162a0:	40f6                	lw	ra,92(sp)
   162a2:	4466                	lw	s0,88(sp)
   162a4:	4946                	lw	s2,80(sp)
   162a6:	49b6                	lw	s3,76(sp)
   162a8:	8526                	mv	a0,s1
   162aa:	44d6                	lw	s1,84(sp)
   162ac:	6125                	add	sp,sp,96
   162ae:	8082                	ret
   162b0:	00007597          	auipc	a1,0x7
   162b4:	86458593          	add	a1,a1,-1948 # 1cb14 <__trunctfdf2+0x316>
   162b8:	8522                	mv	a0,s0
   162ba:	c4d2                	sw	s4,72(sp)
   162bc:	c2d6                	sw	s5,68(sp)
   162be:	439000ef          	jal	16ef6 <strcmp>
   162c2:	cd2d                	beqz	a0,1633c <__loadlocale+0xbe>
   162c4:	00007597          	auipc	a1,0x7
   162c8:	85858593          	add	a1,a1,-1960 # 1cb1c <__trunctfdf2+0x31e>
   162cc:	8522                	mv	a0,s0
   162ce:	429000ef          	jal	16ef6 <strcmp>
   162d2:	c541                	beqz	a0,1635a <__loadlocale+0xdc>
   162d4:	00044783          	lbu	a5,0(s0)
   162d8:	04300713          	li	a4,67
   162dc:	12e78c63          	beq	a5,a4,16414 <__loadlocale+0x196>
   162e0:	f9f78793          	add	a5,a5,-97
   162e4:	0ff7f793          	zext.b	a5,a5
   162e8:	4765                	li	a4,25
   162ea:	04f76063          	bltu	a4,a5,1632a <__loadlocale+0xac>
   162ee:	00144783          	lbu	a5,1(s0)
   162f2:	f9f78793          	add	a5,a5,-97
   162f6:	0ff7f793          	zext.b	a5,a5
   162fa:	02f76863          	bltu	a4,a5,1632a <__loadlocale+0xac>
   162fe:	00244783          	lbu	a5,2(s0)
   16302:	00240a93          	add	s5,s0,2
   16306:	f9f78693          	add	a3,a5,-97
   1630a:	0ff6f693          	zext.b	a3,a3
   1630e:	02d77263          	bgeu	a4,a3,16332 <__loadlocale+0xb4>
   16312:	05f00713          	li	a4,95
   16316:	18e78463          	beq	a5,a4,1649e <__loadlocale+0x220>
   1631a:	02e00713          	li	a4,46
   1631e:	52e78d63          	beq	a5,a4,16858 <__loadlocale+0x5da>
   16322:	0bf7f793          	and	a5,a5,191
   16326:	12078763          	beqz	a5,16454 <__loadlocale+0x1d6>
   1632a:	4a26                	lw	s4,72(sp)
   1632c:	4a96                	lw	s5,68(sp)
   1632e:	4481                	li	s1,0
   16330:	bf85                	j	162a0 <__loadlocale+0x22>
   16332:	00344783          	lbu	a5,3(s0)
   16336:	00340a93          	add	s5,s0,3
   1633a:	bfe1                	j	16312 <__loadlocale+0x94>
   1633c:	00006597          	auipc	a1,0x6
   16340:	7e058593          	add	a1,a1,2016 # 1cb1c <__trunctfdf2+0x31e>
   16344:	8522                	mv	a0,s0
   16346:	339000ef          	jal	16e7e <strcpy>
   1634a:	00006597          	auipc	a1,0x6
   1634e:	7d258593          	add	a1,a1,2002 # 1cb1c <__trunctfdf2+0x31e>
   16352:	8522                	mv	a0,s0
   16354:	3a3000ef          	jal	16ef6 <strcmp>
   16358:	fd35                	bnez	a0,162d4 <__loadlocale+0x56>
   1635a:	01010a13          	add	s4,sp,16
   1635e:	00006597          	auipc	a1,0x6
   16362:	7c258593          	add	a1,a1,1986 # 1cb20 <__trunctfdf2+0x322>
   16366:	8552                	mv	a0,s4
   16368:	c0da                	sw	s6,64(sp)
   1636a:	de5e                	sw	s7,60(sp)
   1636c:	313000ef          	jal	16e7e <strcpy>
   16370:	4a81                	li	s5,0
   16372:	4b01                	li	s6,0
   16374:	4b81                	li	s7,0
   16376:	01014783          	lbu	a5,16(sp)
   1637a:	03400713          	li	a4,52
   1637e:	fbf78793          	add	a5,a5,-65
   16382:	0ff7f793          	zext.b	a5,a5
   16386:	10f76963          	bltu	a4,a5,16498 <__loadlocale+0x21a>
   1638a:	00007717          	auipc	a4,0x7
   1638e:	ee670713          	add	a4,a4,-282 # 1d270 <blanks.1+0x10>
   16392:	078a                	sll	a5,a5,0x2
   16394:	97ba                	add	a5,a5,a4
   16396:	439c                	lw	a5,0(a5)
   16398:	dc62                	sw	s8,56(sp)
   1639a:	da66                	sw	s9,52(sp)
   1639c:	97ba                	add	a5,a5,a4
   1639e:	d86a                	sw	s10,48(sp)
   163a0:	8782                	jr	a5
   163a2:	01114783          	lbu	a5,17(sp)
   163a6:	05000713          	li	a4,80
   163aa:	0df7f793          	and	a5,a5,223
   163ae:	04e79d63          	bne	a5,a4,16408 <__loadlocale+0x18a>
   163b2:	4609                	li	a2,2
   163b4:	00006597          	auipc	a1,0x6
   163b8:	7e458593          	add	a1,a1,2020 # 1cb98 <__trunctfdf2+0x39a>
   163bc:	8552                	mv	a0,s4
   163be:	dc7ff0ef          	jal	16184 <strncpy>
   163c2:	4629                	li	a2,10
   163c4:	006c                	add	a1,sp,12
   163c6:	01210513          	add	a0,sp,18
   163ca:	634030ef          	jal	199fe <strtol>
   163ce:	47b2                	lw	a5,12(sp)
   163d0:	0007c783          	lbu	a5,0(a5)
   163d4:	eb95                	bnez	a5,16408 <__loadlocale+0x18a>
   163d6:	3a400793          	li	a5,932
   163da:	1ef50463          	beq	a0,a5,165c2 <__loadlocale+0x344>
   163de:	48a7c863          	blt	a5,a0,1686e <__loadlocale+0x5f0>
   163e2:	36a00793          	li	a5,874
   163e6:	02a7c163          	blt	a5,a0,16408 <__loadlocale+0x18a>
   163ea:	35100793          	li	a5,849
   163ee:	48a7da63          	bge	a5,a0,16882 <__loadlocale+0x604>
   163f2:	010117b7          	lui	a5,0x1011
   163f6:	cae50513          	add	a0,a0,-850
   163fa:	1a578793          	add	a5,a5,421 # 10111a5 <__BSS_END__+0xff2421>
   163fe:	00a7d7b3          	srl	a5,a5,a0
   16402:	8b85                	and	a5,a5,1
   16404:	18079563          	bnez	a5,1658e <__loadlocale+0x310>
   16408:	4b06                	lw	s6,64(sp)
   1640a:	5bf2                	lw	s7,60(sp)
   1640c:	5c62                	lw	s8,56(sp)
   1640e:	5cd2                	lw	s9,52(sp)
   16410:	5d42                	lw	s10,48(sp)
   16412:	bf21                	j	1632a <__loadlocale+0xac>
   16414:	00144783          	lbu	a5,1(s0)
   16418:	4705                	li	a4,1
   1641a:	fd378793          	add	a5,a5,-45
   1641e:	0ff7f793          	zext.b	a5,a5
   16422:	f0f764e3          	bltu	a4,a5,1632a <__loadlocale+0xac>
   16426:	c0da                	sw	s6,64(sp)
   16428:	de5e                	sw	s7,60(sp)
   1642a:	00240a93          	add	s5,s0,2
   1642e:	01010a13          	add	s4,sp,16
   16432:	85d6                	mv	a1,s5
   16434:	8552                	mv	a0,s4
   16436:	249000ef          	jal	16e7e <strcpy>
   1643a:	04000593          	li	a1,64
   1643e:	8552                	mv	a0,s4
   16440:	473030ef          	jal	1a0b2 <strchr>
   16444:	c119                	beqz	a0,1644a <__loadlocale+0x1cc>
   16446:	00050023          	sb	zero,0(a0)
   1644a:	8552                	mv	a0,s4
   1644c:	1cf000ef          	jal	16e1a <strlen>
   16450:	9aaa                	add	s5,s5,a0
   16452:	a821                	j	1646a <__loadlocale+0x1ec>
   16454:	01010a13          	add	s4,sp,16
   16458:	00006597          	auipc	a1,0x6
   1645c:	6d058593          	add	a1,a1,1744 # 1cb28 <__trunctfdf2+0x32a>
   16460:	8552                	mv	a0,s4
   16462:	c0da                	sw	s6,64(sp)
   16464:	de5e                	sw	s7,60(sp)
   16466:	219000ef          	jal	16e7e <strcpy>
   1646a:	000ac703          	lbu	a4,0(s5)
   1646e:	04000793          	li	a5,64
   16472:	eef71fe3          	bne	a4,a5,16370 <__loadlocale+0xf2>
   16476:	dc62                	sw	s8,56(sp)
   16478:	001a8c13          	add	s8,s5,1
   1647c:	00006597          	auipc	a1,0x6
   16480:	6b858593          	add	a1,a1,1720 # 1cb34 <__trunctfdf2+0x336>
   16484:	8562                	mv	a0,s8
   16486:	271000ef          	jal	16ef6 <strcmp>
   1648a:	8b2a                	mv	s6,a0
   1648c:	4a81                	li	s5,0
   1648e:	4b85                	li	s7,1
   16490:	34051963          	bnez	a0,167e2 <__loadlocale+0x564>
   16494:	5c62                	lw	s8,56(sp)
   16496:	b5c5                	j	16376 <__loadlocale+0xf8>
   16498:	4b06                	lw	s6,64(sp)
   1649a:	5bf2                	lw	s7,60(sp)
   1649c:	b579                	j	1632a <__loadlocale+0xac>
   1649e:	001ac783          	lbu	a5,1(s5)
   164a2:	4765                	li	a4,25
   164a4:	fbf78793          	add	a5,a5,-65
   164a8:	0ff7f793          	zext.b	a5,a5
   164ac:	e6f76fe3          	bltu	a4,a5,1632a <__loadlocale+0xac>
   164b0:	002ac783          	lbu	a5,2(s5)
   164b4:	fbf78793          	add	a5,a5,-65
   164b8:	0ff7f793          	zext.b	a5,a5
   164bc:	e6f767e3          	bltu	a4,a5,1632a <__loadlocale+0xac>
   164c0:	003ac783          	lbu	a5,3(s5)
   164c4:	0a8d                	add	s5,s5,3
   164c6:	bd91                	j	1631a <__loadlocale+0x9c>
   164c8:	00006597          	auipc	a1,0x6
   164cc:	68c58593          	add	a1,a1,1676 # 1cb54 <__trunctfdf2+0x356>
   164d0:	8552                	mv	a0,s4
   164d2:	32f030ef          	jal	1a000 <strcasecmp>
   164d6:	c909                	beqz	a0,164e8 <__loadlocale+0x26a>
   164d8:	00006597          	auipc	a1,0x6
   164dc:	68458593          	add	a1,a1,1668 # 1cb5c <__trunctfdf2+0x35e>
   164e0:	8552                	mv	a0,s4
   164e2:	31f030ef          	jal	1a000 <strcasecmp>
   164e6:	f10d                	bnez	a0,16408 <__loadlocale+0x18a>
   164e8:	00006597          	auipc	a1,0x6
   164ec:	66c58593          	add	a1,a1,1644 # 1cb54 <__trunctfdf2+0x356>
   164f0:	8552                	mv	a0,s4
   164f2:	18d000ef          	jal	16e7e <strcpy>
   164f6:	00002c97          	auipc	s9,0x2
   164fa:	d26c8c93          	add	s9,s9,-730 # 1821c <__utf8_mbtowc>
   164fe:	00003d17          	auipc	s10,0x3
   16502:	534d0d13          	add	s10,s10,1332 # 19a32 <__utf8_wctomb>
   16506:	4c19                	li	s8,6
   16508:	4789                	li	a5,2
   1650a:	30f98363          	beq	s3,a5,16810 <__loadlocale+0x592>
   1650e:	4799                	li	a5,6
   16510:	00f99763          	bne	s3,a5,1651e <__loadlocale+0x2a0>
   16514:	85d2                	mv	a1,s4
   16516:	14a90513          	add	a0,s2,330
   1651a:	165000ef          	jal	16e7e <strcpy>
   1651e:	85a2                	mv	a1,s0
   16520:	8526                	mv	a0,s1
   16522:	15d000ef          	jal	16e7e <strcpy>
   16526:	40f6                	lw	ra,92(sp)
   16528:	4466                	lw	s0,88(sp)
   1652a:	84aa                	mv	s1,a0
   1652c:	4a26                	lw	s4,72(sp)
   1652e:	4a96                	lw	s5,68(sp)
   16530:	4b06                	lw	s6,64(sp)
   16532:	5bf2                	lw	s7,60(sp)
   16534:	5c62                	lw	s8,56(sp)
   16536:	5cd2                	lw	s9,52(sp)
   16538:	5d42                	lw	s10,48(sp)
   1653a:	4946                	lw	s2,80(sp)
   1653c:	49b6                	lw	s3,76(sp)
   1653e:	8526                	mv	a0,s1
   16540:	44d6                	lw	s1,84(sp)
   16542:	6125                	add	sp,sp,96
   16544:	8082                	ret
   16546:	460d                	li	a2,3
   16548:	00006597          	auipc	a1,0x6
   1654c:	69458593          	add	a1,a1,1684 # 1cbdc <__trunctfdf2+0x3de>
   16550:	8552                	mv	a0,s4
   16552:	47f030ef          	jal	1a1d0 <strncasecmp>
   16556:	ea0519e3          	bnez	a0,16408 <__loadlocale+0x18a>
   1655a:	01314503          	lbu	a0,19(sp)
   1655e:	00006597          	auipc	a1,0x6
   16562:	68258593          	add	a1,a1,1666 # 1cbe0 <__trunctfdf2+0x3e2>
   16566:	fd350513          	add	a0,a0,-45
   1656a:	00153513          	seqz	a0,a0
   1656e:	03050793          	add	a5,a0,48
   16572:	00278533          	add	a0,a5,sp
   16576:	150d                	add	a0,a0,-29
   16578:	17f000ef          	jal	16ef6 <strcmp>
   1657c:	e80516e3          	bnez	a0,16408 <__loadlocale+0x18a>
   16580:	00006597          	auipc	a1,0x6
   16584:	66458593          	add	a1,a1,1636 # 1cbe4 <__trunctfdf2+0x3e6>
   16588:	8552                	mv	a0,s4
   1658a:	0f5000ef          	jal	16e7e <strcpy>
   1658e:	00002c97          	auipc	s9,0x2
   16592:	c4ec8c93          	add	s9,s9,-946 # 181dc <__ascii_mbtowc>
   16596:	00003d17          	auipc	s10,0x3
   1659a:	47cd0d13          	add	s10,s10,1148 # 19a12 <__ascii_wctomb>
   1659e:	4c05                	li	s8,1
   165a0:	b7a5                	j	16508 <__loadlocale+0x28a>
   165a2:	00006597          	auipc	a1,0x6
   165a6:	5d658593          	add	a1,a1,1494 # 1cb78 <__trunctfdf2+0x37a>
   165aa:	8552                	mv	a0,s4
   165ac:	255030ef          	jal	1a000 <strcasecmp>
   165b0:	e4051ce3          	bnez	a0,16408 <__loadlocale+0x18a>
   165b4:	00006597          	auipc	a1,0x6
   165b8:	5c458593          	add	a1,a1,1476 # 1cb78 <__trunctfdf2+0x37a>
   165bc:	8552                	mv	a0,s4
   165be:	0c1000ef          	jal	16e7e <strcpy>
   165c2:	00002c97          	auipc	s9,0x2
   165c6:	ebec8c93          	add	s9,s9,-322 # 18480 <__sjis_mbtowc>
   165ca:	00003d17          	auipc	s10,0x3
   165ce:	532d0d13          	add	s10,s10,1330 # 19afc <__sjis_wctomb>
   165d2:	4c09                	li	s8,2
   165d4:	bf15                	j	16508 <__loadlocale+0x28a>
   165d6:	00006597          	auipc	a1,0x6
   165da:	5f658593          	add	a1,a1,1526 # 1cbcc <__trunctfdf2+0x3ce>
   165de:	8552                	mv	a0,s4
   165e0:	221030ef          	jal	1a000 <strcasecmp>
   165e4:	e20512e3          	bnez	a0,16408 <__loadlocale+0x18a>
   165e8:	00006597          	auipc	a1,0x6
   165ec:	5ec58593          	add	a1,a1,1516 # 1cbd4 <__trunctfdf2+0x3d6>
   165f0:	8552                	mv	a0,s4
   165f2:	08d000ef          	jal	16e7e <strcpy>
   165f6:	bf61                	j	1658e <__loadlocale+0x310>
   165f8:	4611                	li	a2,4
   165fa:	00006597          	auipc	a1,0x6
   165fe:	5a258593          	add	a1,a1,1442 # 1cb9c <__trunctfdf2+0x39e>
   16602:	8552                	mv	a0,s4
   16604:	3cd030ef          	jal	1a1d0 <strncasecmp>
   16608:	e00510e3          	bnez	a0,16408 <__loadlocale+0x18a>
   1660c:	01414783          	lbu	a5,20(sp)
   16610:	02d00713          	li	a4,45
   16614:	00e79463          	bne	a5,a4,1661c <__loadlocale+0x39e>
   16618:	01514783          	lbu	a5,21(sp)
   1661c:	0df7f793          	and	a5,a5,223
   16620:	05200713          	li	a4,82
   16624:	22e78e63          	beq	a5,a4,16860 <__loadlocale+0x5e2>
   16628:	05500713          	li	a4,85
   1662c:	dce79ee3          	bne	a5,a4,16408 <__loadlocale+0x18a>
   16630:	00006597          	auipc	a1,0x6
   16634:	57c58593          	add	a1,a1,1404 # 1cbac <__trunctfdf2+0x3ae>
   16638:	8552                	mv	a0,s4
   1663a:	045000ef          	jal	16e7e <strcpy>
   1663e:	bf81                	j	1658e <__loadlocale+0x310>
   16640:	00006597          	auipc	a1,0x6
   16644:	52458593          	add	a1,a1,1316 # 1cb64 <__trunctfdf2+0x366>
   16648:	8552                	mv	a0,s4
   1664a:	1b7030ef          	jal	1a000 <strcasecmp>
   1664e:	da051de3          	bnez	a0,16408 <__loadlocale+0x18a>
   16652:	00006597          	auipc	a1,0x6
   16656:	51258593          	add	a1,a1,1298 # 1cb64 <__trunctfdf2+0x366>
   1665a:	8552                	mv	a0,s4
   1665c:	023000ef          	jal	16e7e <strcpy>
   16660:	00002c97          	auipc	s9,0x2
   16664:	0b6c8c93          	add	s9,s9,182 # 18716 <__jis_mbtowc>
   16668:	00003d17          	auipc	s10,0x3
   1666c:	58ed0d13          	add	s10,s10,1422 # 19bf6 <__jis_wctomb>
   16670:	4c21                	li	s8,8
   16672:	bd59                	j	16508 <__loadlocale+0x28a>
   16674:	460d                	li	a2,3
   16676:	00006597          	auipc	a1,0x6
   1667a:	50a58593          	add	a1,a1,1290 # 1cb80 <__trunctfdf2+0x382>
   1667e:	8552                	mv	a0,s4
   16680:	351030ef          	jal	1a1d0 <strncasecmp>
   16684:	d80512e3          	bnez	a0,16408 <__loadlocale+0x18a>
   16688:	01314783          	lbu	a5,19(sp)
   1668c:	4611                	li	a2,4
   1668e:	00006597          	auipc	a1,0x6
   16692:	4f658593          	add	a1,a1,1270 # 1cb84 <__trunctfdf2+0x386>
   16696:	fd378793          	add	a5,a5,-45
   1669a:	0017b793          	seqz	a5,a5
   1669e:	03078793          	add	a5,a5,48
   166a2:	978a                	add	a5,a5,sp
   166a4:	fe378c13          	add	s8,a5,-29
   166a8:	8562                	mv	a0,s8
   166aa:	327030ef          	jal	1a1d0 <strncasecmp>
   166ae:	d4051de3          	bnez	a0,16408 <__loadlocale+0x18a>
   166b2:	004c4503          	lbu	a0,4(s8)
   166b6:	4629                	li	a2,10
   166b8:	006c                	add	a1,sp,12
   166ba:	fd350513          	add	a0,a0,-45
   166be:	00153513          	seqz	a0,a0
   166c2:	9562                	add	a0,a0,s8
   166c4:	0511                	add	a0,a0,4
   166c6:	338030ef          	jal	199fe <strtol>
   166ca:	fff50713          	add	a4,a0,-1
   166ce:	47bd                	li	a5,15
   166d0:	8c2a                	mv	s8,a0
   166d2:	d2e7ebe3          	bltu	a5,a4,16408 <__loadlocale+0x18a>
   166d6:	47b1                	li	a5,12
   166d8:	d2f508e3          	beq	a0,a5,16408 <__loadlocale+0x18a>
   166dc:	47b2                	lw	a5,12(sp)
   166de:	0007c783          	lbu	a5,0(a5)
   166e2:	d20793e3          	bnez	a5,16408 <__loadlocale+0x18a>
   166e6:	00006597          	auipc	a1,0x6
   166ea:	4a658593          	add	a1,a1,1190 # 1cb8c <__trunctfdf2+0x38e>
   166ee:	8552                	mv	a0,s4
   166f0:	78e000ef          	jal	16e7e <strcpy>
   166f4:	47a9                	li	a5,10
   166f6:	01910713          	add	a4,sp,25
   166fa:	0187d863          	bge	a5,s8,1670a <__loadlocale+0x48c>
   166fe:	03100793          	li	a5,49
   16702:	00f10ca3          	sb	a5,25(sp)
   16706:	01a10713          	add	a4,sp,26
   1670a:	47a9                	li	a5,10
   1670c:	02fc67b3          	rem	a5,s8,a5
   16710:	000700a3          	sb	zero,1(a4)
   16714:	03078793          	add	a5,a5,48
   16718:	00f70023          	sb	a5,0(a4)
   1671c:	bd8d                	j	1658e <__loadlocale+0x310>
   1671e:	4621                	li	a2,8
   16720:	00006597          	auipc	a1,0x6
   16724:	49458593          	add	a1,a1,1172 # 1cbb4 <__trunctfdf2+0x3b6>
   16728:	8552                	mv	a0,s4
   1672a:	2a7030ef          	jal	1a1d0 <strncasecmp>
   1672e:	cc051de3          	bnez	a0,16408 <__loadlocale+0x18a>
   16732:	01814503          	lbu	a0,24(sp)
   16736:	00006597          	auipc	a1,0x6
   1673a:	48a58593          	add	a1,a1,1162 # 1cbc0 <__trunctfdf2+0x3c2>
   1673e:	fd350513          	add	a0,a0,-45
   16742:	00153513          	seqz	a0,a0
   16746:	03050793          	add	a5,a0,48
   1674a:	00278533          	add	a0,a5,sp
   1674e:	1521                	add	a0,a0,-24
   16750:	0b1030ef          	jal	1a000 <strcasecmp>
   16754:	ca051ae3          	bnez	a0,16408 <__loadlocale+0x18a>
   16758:	00006597          	auipc	a1,0x6
   1675c:	46c58593          	add	a1,a1,1132 # 1cbc4 <__trunctfdf2+0x3c6>
   16760:	8552                	mv	a0,s4
   16762:	71c000ef          	jal	16e7e <strcpy>
   16766:	b525                	j	1658e <__loadlocale+0x310>
   16768:	460d                	li	a2,3
   1676a:	00006597          	auipc	a1,0x6
   1676e:	3fe58593          	add	a1,a1,1022 # 1cb68 <__trunctfdf2+0x36a>
   16772:	8552                	mv	a0,s4
   16774:	25d030ef          	jal	1a1d0 <strncasecmp>
   16778:	c80518e3          	bnez	a0,16408 <__loadlocale+0x18a>
   1677c:	01314503          	lbu	a0,19(sp)
   16780:	00006597          	auipc	a1,0x6
   16784:	3ec58593          	add	a1,a1,1004 # 1cb6c <__trunctfdf2+0x36e>
   16788:	fd350513          	add	a0,a0,-45
   1678c:	00153513          	seqz	a0,a0
   16790:	03050793          	add	a5,a0,48
   16794:	00278533          	add	a0,a5,sp
   16798:	150d                	add	a0,a0,-29
   1679a:	067030ef          	jal	1a000 <strcasecmp>
   1679e:	c60515e3          	bnez	a0,16408 <__loadlocale+0x18a>
   167a2:	00006597          	auipc	a1,0x6
   167a6:	3ce58593          	add	a1,a1,974 # 1cb70 <__trunctfdf2+0x372>
   167aa:	8552                	mv	a0,s4
   167ac:	2dc9                	jal	16e7e <strcpy>
   167ae:	00002c97          	auipc	s9,0x2
   167b2:	ddec8c93          	add	s9,s9,-546 # 1858c <__eucjp_mbtowc>
   167b6:	00003d17          	auipc	s10,0x3
   167ba:	3b0d0d13          	add	s10,s10,944 # 19b66 <__eucjp_wctomb>
   167be:	4c0d                	li	s8,3
   167c0:	b3a1                	j	16508 <__loadlocale+0x28a>
   167c2:	00006597          	auipc	a1,0x6
   167c6:	35e58593          	add	a1,a1,862 # 1cb20 <__trunctfdf2+0x322>
   167ca:	8552                	mv	a0,s4
   167cc:	035030ef          	jal	1a000 <strcasecmp>
   167d0:	c2051ce3          	bnez	a0,16408 <__loadlocale+0x18a>
   167d4:	00006597          	auipc	a1,0x6
   167d8:	34c58593          	add	a1,a1,844 # 1cb20 <__trunctfdf2+0x322>
   167dc:	8552                	mv	a0,s4
   167de:	2545                	jal	16e7e <strcpy>
   167e0:	b37d                	j	1658e <__loadlocale+0x310>
   167e2:	00006597          	auipc	a1,0x6
   167e6:	35e58593          	add	a1,a1,862 # 1cb40 <__trunctfdf2+0x342>
   167ea:	8562                	mv	a0,s8
   167ec:	70a000ef          	jal	16ef6 <strcmp>
   167f0:	8aaa                	mv	s5,a0
   167f2:	4b81                	li	s7,0
   167f4:	4b05                	li	s6,1
   167f6:	c8050fe3          	beqz	a0,16494 <__loadlocale+0x216>
   167fa:	8562                	mv	a0,s8
   167fc:	00006597          	auipc	a1,0x6
   16800:	35058593          	add	a1,a1,848 # 1cb4c <__trunctfdf2+0x34e>
   16804:	2dcd                	jal	16ef6 <strcmp>
   16806:	00153a93          	seqz	s5,a0
   1680a:	5c62                	lw	s8,56(sp)
   1680c:	4b01                	li	s6,0
   1680e:	b6a5                	j	16376 <__loadlocale+0xf8>
   16810:	85d2                	mv	a1,s4
   16812:	12a90513          	add	a0,s2,298
   16816:	25a5                	jal	16e7e <strcpy>
   16818:	85d2                	mv	a1,s4
   1681a:	13890423          	sb	s8,296(s2)
   1681e:	0fa92023          	sw	s10,224(s2)
   16822:	0f992223          	sw	s9,228(s2)
   16826:	854a                	mv	a0,s2
   16828:	52a030ef          	jal	19d52 <__set_ctype>
   1682c:	000a9d63          	bnez	s5,16846 <__loadlocale+0x5c8>
   16830:	000b1b63          	bnez	s6,16846 <__loadlocale+0x5c8>
   16834:	4785                	li	a5,1
   16836:	00fc0863          	beq	s8,a5,16846 <__loadlocale+0x5c8>
   1683a:	01014a83          	lbu	s5,16(sp)
   1683e:	faba8a93          	add	s5,s5,-85
   16842:	01503ab3          	snez	s5,s5
   16846:	000b9563          	bnez	s7,16850 <__loadlocale+0x5d2>
   1684a:	0f592423          	sw	s5,232(s2)
   1684e:	b9c1                	j	1651e <__loadlocale+0x2a0>
   16850:	57fd                	li	a5,-1
   16852:	0ef92423          	sw	a5,232(s2)
   16856:	b1e1                	j	1651e <__loadlocale+0x2a0>
   16858:	c0da                	sw	s6,64(sp)
   1685a:	de5e                	sw	s7,60(sp)
   1685c:	0a85                	add	s5,s5,1
   1685e:	bec1                	j	1642e <__loadlocale+0x1b0>
   16860:	00006597          	auipc	a1,0x6
   16864:	34458593          	add	a1,a1,836 # 1cba4 <__trunctfdf2+0x3a6>
   16868:	8552                	mv	a0,s4
   1686a:	2d11                	jal	16e7e <strcpy>
   1686c:	b30d                	j	1658e <__loadlocale+0x310>
   1686e:	46500793          	li	a5,1125
   16872:	d0f50ee3          	beq	a0,a5,1658e <__loadlocale+0x310>
   16876:	b1e50513          	add	a0,a0,-1250
   1687a:	47a1                	li	a5,8
   1687c:	d0a7f9e3          	bgeu	a5,a0,1658e <__loadlocale+0x310>
   16880:	b661                	j	16408 <__loadlocale+0x18a>
   16882:	2e100793          	li	a5,737
   16886:	d0f504e3          	beq	a0,a5,1658e <__loadlocale+0x310>
   1688a:	00a7cb63          	blt	a5,a0,168a0 <__loadlocale+0x622>
   1688e:	1b500793          	li	a5,437
   16892:	cef50ee3          	beq	a0,a5,1658e <__loadlocale+0x310>
   16896:	2d000793          	li	a5,720
   1689a:	b6f517e3          	bne	a0,a5,16408 <__loadlocale+0x18a>
   1689e:	b9c5                	j	1658e <__loadlocale+0x310>
   168a0:	30700793          	li	a5,775
   168a4:	b6f512e3          	bne	a0,a5,16408 <__loadlocale+0x18a>
   168a8:	b1dd                	j	1658e <__loadlocale+0x310>

000168aa <__get_locale_env>:
   168aa:	1141                	add	sp,sp,-16
   168ac:	c422                	sw	s0,8(sp)
   168ae:	842e                	mv	s0,a1
   168b0:	00006597          	auipc	a1,0x6
   168b4:	33c58593          	add	a1,a1,828 # 1cbec <__trunctfdf2+0x3ee>
   168b8:	c226                	sw	s1,4(sp)
   168ba:	c606                	sw	ra,12(sp)
   168bc:	84aa                	mv	s1,a0
   168be:	109010ef          	jal	181c6 <_getenv_r>
   168c2:	c501                	beqz	a0,168ca <__get_locale_env+0x20>
   168c4:	00054783          	lbu	a5,0(a0)
   168c8:	ef8d                	bnez	a5,16902 <__get_locale_env+0x58>
   168ca:	00241793          	sll	a5,s0,0x2
   168ce:	00007717          	auipc	a4,0x7
   168d2:	be270713          	add	a4,a4,-1054 # 1d4b0 <categories>
   168d6:	97ba                	add	a5,a5,a4
   168d8:	438c                	lw	a1,0(a5)
   168da:	8526                	mv	a0,s1
   168dc:	0eb010ef          	jal	181c6 <_getenv_r>
   168e0:	c501                	beqz	a0,168e8 <__get_locale_env+0x3e>
   168e2:	00054783          	lbu	a5,0(a0)
   168e6:	ef91                	bnez	a5,16902 <__get_locale_env+0x58>
   168e8:	00006597          	auipc	a1,0x6
   168ec:	30c58593          	add	a1,a1,780 # 1cbf4 <__trunctfdf2+0x3f6>
   168f0:	8526                	mv	a0,s1
   168f2:	0d5010ef          	jal	181c6 <_getenv_r>
   168f6:	c501                	beqz	a0,168fe <__get_locale_env+0x54>
   168f8:	00054783          	lbu	a5,0(a0)
   168fc:	e399                	bnez	a5,16902 <__get_locale_env+0x58>
   168fe:	ed418513          	add	a0,gp,-300 # 1e6e4 <__default_locale>
   16902:	40b2                	lw	ra,12(sp)
   16904:	4422                	lw	s0,8(sp)
   16906:	4492                	lw	s1,4(sp)
   16908:	0141                	add	sp,sp,16
   1690a:	8082                	ret

0001690c <_setlocale_r>:
   1690c:	7179                	add	sp,sp,-48
   1690e:	ce4e                	sw	s3,28(sp)
   16910:	d606                	sw	ra,44(sp)
   16912:	ca56                	sw	s5,20(sp)
   16914:	4799                	li	a5,6
   16916:	89aa                	mv	s3,a0
   16918:	10b7e763          	bltu	a5,a1,16a26 <_setlocale_r+0x11a>
   1691c:	c85a                	sw	s6,16(sp)
   1691e:	c65e                	sw	s7,12(sp)
   16920:	8b32                	mv	s6,a2
   16922:	8bae                	mv	s7,a1
   16924:	1a060f63          	beqz	a2,16ae2 <_setlocale_r+0x1d6>
   16928:	d04a                	sw	s2,32(sp)
   1692a:	cc52                	sw	s4,24(sp)
   1692c:	d8818913          	add	s2,gp,-632 # 1e598 <__global_locale+0x20>
   16930:	3cc18a13          	add	s4,gp,972 # 1ebdc <new_categories.1+0x20>
   16934:	d422                	sw	s0,40(sp)
   16936:	d226                	sw	s1,36(sp)
   16938:	48c18a93          	add	s5,gp,1164 # 1ec9c <global_locale_string>
   1693c:	84ca                	mv	s1,s2
   1693e:	8452                	mv	s0,s4
   16940:	85a6                	mv	a1,s1
   16942:	8522                	mv	a0,s0
   16944:	02040413          	add	s0,s0,32
   16948:	2b1d                	jal	16e7e <strcpy>
   1694a:	02048493          	add	s1,s1,32
   1694e:	ff5419e3          	bne	s0,s5,16940 <_setlocale_r+0x34>
   16952:	000b4783          	lbu	a5,0(s6)
   16956:	e3d9                	bnez	a5,169dc <_setlocale_r+0xd0>
   16958:	1a0b9263          	bnez	s7,16afc <_setlocale_r+0x1f0>
   1695c:	3cc18a93          	add	s5,gp,972 # 1ebdc <new_categories.1+0x20>
   16960:	4405                	li	s0,1
   16962:	4b7d                	li	s6,31
   16964:	4b9d                	li	s7,7
   16966:	85a2                	mv	a1,s0
   16968:	854e                	mv	a0,s3
   1696a:	f41ff0ef          	jal	168aa <__get_locale_env>
   1696e:	84aa                	mv	s1,a0
   16970:	216d                	jal	16e1a <strlen>
   16972:	87aa                	mv	a5,a0
   16974:	85a6                	mv	a1,s1
   16976:	8556                	mv	a0,s5
   16978:	0afb6163          	bltu	s6,a5,16a1a <_setlocale_r+0x10e>
   1697c:	0405                	add	s0,s0,1
   1697e:	2301                	jal	16e7e <strcpy>
   16980:	020a8a93          	add	s5,s5,32
   16984:	ff7411e3          	bne	s0,s7,16966 <_setlocale_r+0x5a>
   16988:	c462                	sw	s8,8(sp)
   1698a:	2ec18c13          	add	s8,gp,748 # 1eafc <saved_categories.0+0x20>
   1698e:	3cc18a93          	add	s5,gp,972 # 1ebdc <new_categories.1+0x20>
   16992:	84e2                	mv	s1,s8
   16994:	4405                	li	s0,1
   16996:	d6818b93          	add	s7,gp,-664 # 1e578 <__global_locale>
   1699a:	4b1d                	li	s6,7
   1699c:	85ca                	mv	a1,s2
   1699e:	8526                	mv	a0,s1
   169a0:	29f9                	jal	16e7e <strcpy>
   169a2:	8656                	mv	a2,s5
   169a4:	85a2                	mv	a1,s0
   169a6:	855e                	mv	a0,s7
   169a8:	8d7ff0ef          	jal	1627e <__loadlocale>
   169ac:	16050a63          	beqz	a0,16b20 <_setlocale_r+0x214>
   169b0:	0405                	add	s0,s0,1
   169b2:	02048493          	add	s1,s1,32
   169b6:	02090913          	add	s2,s2,32
   169ba:	020a8a93          	add	s5,s5,32
   169be:	fd641fe3          	bne	s0,s6,1699c <_setlocale_r+0x90>
   169c2:	5422                	lw	s0,40(sp)
   169c4:	5492                	lw	s1,36(sp)
   169c6:	5902                	lw	s2,32(sp)
   169c8:	4a62                	lw	s4,24(sp)
   169ca:	4b42                	lw	s6,16(sp)
   169cc:	4bb2                	lw	s7,12(sp)
   169ce:	4c22                	lw	s8,8(sp)
   169d0:	50b2                	lw	ra,44(sp)
   169d2:	49f2                	lw	s3,28(sp)
   169d4:	4ad2                	lw	s5,20(sp)
   169d6:	6145                	add	sp,sp,48
   169d8:	827ff06f          	j	161fe <currentlocale>
   169dc:	040b8e63          	beqz	s7,16a38 <_setlocale_r+0x12c>
   169e0:	855a                	mv	a0,s6
   169e2:	2925                	jal	16e1a <strlen>
   169e4:	47fd                	li	a5,31
   169e6:	02a7ea63          	bltu	a5,a0,16a1a <_setlocale_r+0x10e>
   169ea:	005b9413          	sll	s0,s7,0x5
   169ee:	3ac18793          	add	a5,gp,940 # 1ebbc <new_categories.1>
   169f2:	943e                	add	s0,s0,a5
   169f4:	85da                	mv	a1,s6
   169f6:	8522                	mv	a0,s0
   169f8:	2159                	jal	16e7e <strcpy>
   169fa:	8622                	mv	a2,s0
   169fc:	5422                	lw	s0,40(sp)
   169fe:	5492                	lw	s1,36(sp)
   16a00:	5902                	lw	s2,32(sp)
   16a02:	4a62                	lw	s4,24(sp)
   16a04:	4b42                	lw	s6,16(sp)
   16a06:	50b2                	lw	ra,44(sp)
   16a08:	49f2                	lw	s3,28(sp)
   16a0a:	4ad2                	lw	s5,20(sp)
   16a0c:	85de                	mv	a1,s7
   16a0e:	4bb2                	lw	s7,12(sp)
   16a10:	d6818513          	add	a0,gp,-664 # 1e578 <__global_locale>
   16a14:	6145                	add	sp,sp,48
   16a16:	869ff06f          	j	1627e <__loadlocale>
   16a1a:	5422                	lw	s0,40(sp)
   16a1c:	5492                	lw	s1,36(sp)
   16a1e:	5902                	lw	s2,32(sp)
   16a20:	4a62                	lw	s4,24(sp)
   16a22:	4b42                	lw	s6,16(sp)
   16a24:	4bb2                	lw	s7,12(sp)
   16a26:	4ad9                	li	s5,22
   16a28:	50b2                	lw	ra,44(sp)
   16a2a:	0159a023          	sw	s5,0(s3)
   16a2e:	4501                	li	a0,0
   16a30:	49f2                	lw	s3,28(sp)
   16a32:	4ad2                	lw	s5,20(sp)
   16a34:	6145                	add	sp,sp,48
   16a36:	8082                	ret
   16a38:	02f00593          	li	a1,47
   16a3c:	855a                	mv	a0,s6
   16a3e:	674030ef          	jal	1a0b2 <strchr>
   16a42:	842a                	mv	s0,a0
   16a44:	12050e63          	beqz	a0,16b80 <_setlocale_r+0x274>
   16a48:	00154783          	lbu	a5,1(a0)
   16a4c:	02f00693          	li	a3,47
   16a50:	02f00713          	li	a4,47
   16a54:	00d79763          	bne	a5,a3,16a62 <_setlocale_r+0x156>
   16a58:	00244783          	lbu	a5,2(s0)
   16a5c:	0405                	add	s0,s0,1
   16a5e:	fee78de3          	beq	a5,a4,16a58 <_setlocale_r+0x14c>
   16a62:	dfc5                	beqz	a5,16a1a <_setlocale_r+0x10e>
   16a64:	c462                	sw	s8,8(sp)
   16a66:	c266                	sw	s9,4(sp)
   16a68:	c06a                	sw	s10,0(sp)
   16a6a:	4c85                	li	s9,1
   16a6c:	3cc18d13          	add	s10,gp,972 # 1ebdc <new_categories.1+0x20>
   16a70:	4bfd                	li	s7,31
   16a72:	02f00493          	li	s1,47
   16a76:	4c1d                	li	s8,7
   16a78:	41640633          	sub	a2,s0,s6
   16a7c:	12cbc263          	blt	s7,a2,16ba0 <_setlocale_r+0x294>
   16a80:	0605                	add	a2,a2,1
   16a82:	85da                	mv	a1,s6
   16a84:	856a                	mv	a0,s10
   16a86:	71e030ef          	jal	1a1a4 <strlcpy>
   16a8a:	00044783          	lbu	a5,0(s0)
   16a8e:	0c85                	add	s9,s9,1
   16a90:	00979763          	bne	a5,s1,16a9e <_setlocale_r+0x192>
   16a94:	00144783          	lbu	a5,1(s0)
   16a98:	0405                	add	s0,s0,1
   16a9a:	fe978de3          	beq	a5,s1,16a94 <_setlocale_r+0x188>
   16a9e:	cf99                	beqz	a5,16abc <_setlocale_r+0x1b0>
   16aa0:	87a2                	mv	a5,s0
   16aa2:	0017c703          	lbu	a4,1(a5)
   16aa6:	0785                	add	a5,a5,1
   16aa8:	c319                	beqz	a4,16aae <_setlocale_r+0x1a2>
   16aaa:	fe971ce3          	bne	a4,s1,16aa2 <_setlocale_r+0x196>
   16aae:	020d0d13          	add	s10,s10,32
   16ab2:	038c8563          	beq	s9,s8,16adc <_setlocale_r+0x1d0>
   16ab6:	8b22                	mv	s6,s0
   16ab8:	843e                	mv	s0,a5
   16aba:	bf7d                	j	16a78 <_setlocale_r+0x16c>
   16abc:	479d                	li	a5,7
   16abe:	00fc8f63          	beq	s9,a5,16adc <_setlocale_r+0x1d0>
   16ac2:	005c9413          	sll	s0,s9,0x5
   16ac6:	3ac18793          	add	a5,gp,940 # 1ebbc <new_categories.1>
   16aca:	943e                	add	s0,s0,a5
   16acc:	fe040593          	add	a1,s0,-32
   16ad0:	8522                	mv	a0,s0
   16ad2:	02040413          	add	s0,s0,32
   16ad6:	2665                	jal	16e7e <strcpy>
   16ad8:	ff541ae3          	bne	s0,s5,16acc <_setlocale_r+0x1c0>
   16adc:	4c92                	lw	s9,4(sp)
   16ade:	4d02                	lw	s10,0(sp)
   16ae0:	b56d                	j	1698a <_setlocale_r+0x7e>
   16ae2:	cdc1                	beqz	a1,16b7a <_setlocale_r+0x26e>
   16ae4:	50b2                	lw	ra,44(sp)
   16ae6:	00559513          	sll	a0,a1,0x5
   16aea:	d6818793          	add	a5,gp,-664 # 1e578 <__global_locale>
   16aee:	4b42                	lw	s6,16(sp)
   16af0:	4bb2                	lw	s7,12(sp)
   16af2:	49f2                	lw	s3,28(sp)
   16af4:	4ad2                	lw	s5,20(sp)
   16af6:	953e                	add	a0,a0,a5
   16af8:	6145                	add	sp,sp,48
   16afa:	8082                	ret
   16afc:	85de                	mv	a1,s7
   16afe:	854e                	mv	a0,s3
   16b00:	dabff0ef          	jal	168aa <__get_locale_env>
   16b04:	84aa                	mv	s1,a0
   16b06:	2e11                	jal	16e1a <strlen>
   16b08:	47fd                	li	a5,31
   16b0a:	f0a7e8e3          	bltu	a5,a0,16a1a <_setlocale_r+0x10e>
   16b0e:	005b9413          	sll	s0,s7,0x5
   16b12:	3ac18793          	add	a5,gp,940 # 1ebbc <new_categories.1>
   16b16:	943e                	add	s0,s0,a5
   16b18:	85a6                	mv	a1,s1
   16b1a:	8522                	mv	a0,s0
   16b1c:	268d                	jal	16e7e <strcpy>
   16b1e:	bdf1                	j	169fa <_setlocale_r+0xee>
   16b20:	4485                	li	s1,1
   16b22:	0009aa83          	lw	s5,0(s3)
   16b26:	d6818913          	add	s2,gp,-664 # 1e578 <__global_locale>
   16b2a:	00006b17          	auipc	s6,0x6
   16b2e:	ff2b0b13          	add	s6,s6,-14 # 1cb1c <__trunctfdf2+0x31e>
   16b32:	00941a63          	bne	s0,s1,16b46 <_setlocale_r+0x23a>
   16b36:	a815                	j	16b6a <_setlocale_r+0x25e>
   16b38:	0485                	add	s1,s1,1
   16b3a:	020a0a13          	add	s4,s4,32
   16b3e:	020c0c13          	add	s8,s8,32
   16b42:	02848463          	beq	s1,s0,16b6a <_setlocale_r+0x25e>
   16b46:	85e2                	mv	a1,s8
   16b48:	8552                	mv	a0,s4
   16b4a:	2e15                	jal	16e7e <strcpy>
   16b4c:	8652                	mv	a2,s4
   16b4e:	85a6                	mv	a1,s1
   16b50:	854a                	mv	a0,s2
   16b52:	f2cff0ef          	jal	1627e <__loadlocale>
   16b56:	f16d                	bnez	a0,16b38 <_setlocale_r+0x22c>
   16b58:	85da                	mv	a1,s6
   16b5a:	8552                	mv	a0,s4
   16b5c:	260d                	jal	16e7e <strcpy>
   16b5e:	8652                	mv	a2,s4
   16b60:	85a6                	mv	a1,s1
   16b62:	854a                	mv	a0,s2
   16b64:	f1aff0ef          	jal	1627e <__loadlocale>
   16b68:	bfc1                	j	16b38 <_setlocale_r+0x22c>
   16b6a:	5422                	lw	s0,40(sp)
   16b6c:	5492                	lw	s1,36(sp)
   16b6e:	5902                	lw	s2,32(sp)
   16b70:	4a62                	lw	s4,24(sp)
   16b72:	4b42                	lw	s6,16(sp)
   16b74:	4bb2                	lw	s7,12(sp)
   16b76:	4c22                	lw	s8,8(sp)
   16b78:	bd45                	j	16a28 <_setlocale_r+0x11c>
   16b7a:	4b42                	lw	s6,16(sp)
   16b7c:	4bb2                	lw	s7,12(sp)
   16b7e:	bd89                	j	169d0 <_setlocale_r+0xc4>
   16b80:	855a                	mv	a0,s6
   16b82:	2c61                	jal	16e1a <strlen>
   16b84:	47fd                	li	a5,31
   16b86:	e8a7eae3          	bltu	a5,a0,16a1a <_setlocale_r+0x10e>
   16b8a:	c462                	sw	s8,8(sp)
   16b8c:	3cc18413          	add	s0,gp,972 # 1ebdc <new_categories.1+0x20>
   16b90:	8522                	mv	a0,s0
   16b92:	85da                	mv	a1,s6
   16b94:	02040413          	add	s0,s0,32
   16b98:	24dd                	jal	16e7e <strcpy>
   16b9a:	ff541be3          	bne	s0,s5,16b90 <_setlocale_r+0x284>
   16b9e:	b3f5                	j	1698a <_setlocale_r+0x7e>
   16ba0:	5422                	lw	s0,40(sp)
   16ba2:	5492                	lw	s1,36(sp)
   16ba4:	5902                	lw	s2,32(sp)
   16ba6:	4a62                	lw	s4,24(sp)
   16ba8:	4b42                	lw	s6,16(sp)
   16baa:	4bb2                	lw	s7,12(sp)
   16bac:	4c22                	lw	s8,8(sp)
   16bae:	4c92                	lw	s9,4(sp)
   16bb0:	4d02                	lw	s10,0(sp)
   16bb2:	bd95                	j	16a26 <_setlocale_r+0x11a>

00016bb4 <__locale_mb_cur_max>:
   16bb4:	e901c503          	lbu	a0,-368(gp) # 1e6a0 <__global_locale+0x128>
   16bb8:	8082                	ret

00016bba <setlocale>:
   16bba:	862e                	mv	a2,a1
   16bbc:	85aa                	mv	a1,a0
   16bbe:	f681a503          	lw	a0,-152(gp) # 1e778 <_impure_ptr>
   16bc2:	d4bff06f          	j	1690c <_setlocale_r>

00016bc6 <__localeconv_l>:
   16bc6:	0f050513          	add	a0,a0,240
   16bca:	8082                	ret

00016bcc <_localeconv_r>:
   16bcc:	e5818513          	add	a0,gp,-424 # 1e668 <__global_locale+0xf0>
   16bd0:	8082                	ret

00016bd2 <localeconv>:
   16bd2:	e5818513          	add	a0,gp,-424 # 1e668 <__global_locale+0xf0>
   16bd6:	8082                	ret

00016bd8 <_sbrk_r>:
   16bd8:	1141                	add	sp,sp,-16
   16bda:	c422                	sw	s0,8(sp)
   16bdc:	842a                	mv	s0,a0
   16bde:	852e                	mv	a0,a1
   16be0:	f801a223          	sw	zero,-124(gp) # 1e794 <errno>
   16be4:	c606                	sw	ra,12(sp)
   16be6:	665030ef          	jal	1aa4a <_sbrk>
   16bea:	57fd                	li	a5,-1
   16bec:	00f50663          	beq	a0,a5,16bf8 <_sbrk_r+0x20>
   16bf0:	40b2                	lw	ra,12(sp)
   16bf2:	4422                	lw	s0,8(sp)
   16bf4:	0141                	add	sp,sp,16
   16bf6:	8082                	ret
   16bf8:	f841a783          	lw	a5,-124(gp) # 1e794 <errno>
   16bfc:	dbf5                	beqz	a5,16bf0 <_sbrk_r+0x18>
   16bfe:	40b2                	lw	ra,12(sp)
   16c00:	c01c                	sw	a5,0(s0)
   16c02:	4422                	lw	s0,8(sp)
   16c04:	0141                	add	sp,sp,16
   16c06:	8082                	ret

00016c08 <memmove>:
   16c08:	02a5f263          	bgeu	a1,a0,16c2c <memmove+0x24>
   16c0c:	00c58733          	add	a4,a1,a2
   16c10:	00e57e63          	bgeu	a0,a4,16c2c <memmove+0x24>
   16c14:	00c507b3          	add	a5,a0,a2
   16c18:	ca1d                	beqz	a2,16c4e <memmove+0x46>
   16c1a:	fff74683          	lbu	a3,-1(a4)
   16c1e:	17fd                	add	a5,a5,-1
   16c20:	177d                	add	a4,a4,-1
   16c22:	00d78023          	sb	a3,0(a5)
   16c26:	fef51ae3          	bne	a0,a5,16c1a <memmove+0x12>
   16c2a:	8082                	ret
   16c2c:	47bd                	li	a5,15
   16c2e:	02c7e163          	bltu	a5,a2,16c50 <memmove+0x48>
   16c32:	87aa                	mv	a5,a0
   16c34:	fff60693          	add	a3,a2,-1
   16c38:	ca59                	beqz	a2,16cce <memmove+0xc6>
   16c3a:	0685                	add	a3,a3,1 # 2001 <exit-0xe093>
   16c3c:	96be                	add	a3,a3,a5
   16c3e:	0005c703          	lbu	a4,0(a1)
   16c42:	0785                	add	a5,a5,1
   16c44:	0585                	add	a1,a1,1
   16c46:	fee78fa3          	sb	a4,-1(a5)
   16c4a:	fed79ae3          	bne	a5,a3,16c3e <memmove+0x36>
   16c4e:	8082                	ret
   16c50:	00b567b3          	or	a5,a0,a1
   16c54:	8b8d                	and	a5,a5,3
   16c56:	eba5                	bnez	a5,16cc6 <memmove+0xbe>
   16c58:	ff060893          	add	a7,a2,-16
   16c5c:	ff08f893          	and	a7,a7,-16
   16c60:	08c1                	add	a7,a7,16
   16c62:	011506b3          	add	a3,a0,a7
   16c66:	872e                	mv	a4,a1
   16c68:	87aa                	mv	a5,a0
   16c6a:	00072803          	lw	a6,0(a4)
   16c6e:	0741                	add	a4,a4,16
   16c70:	07c1                	add	a5,a5,16
   16c72:	ff07a823          	sw	a6,-16(a5)
   16c76:	ff472803          	lw	a6,-12(a4)
   16c7a:	ff07aa23          	sw	a6,-12(a5)
   16c7e:	ff872803          	lw	a6,-8(a4)
   16c82:	ff07ac23          	sw	a6,-8(a5)
   16c86:	ffc72803          	lw	a6,-4(a4)
   16c8a:	ff07ae23          	sw	a6,-4(a5)
   16c8e:	fcd79ee3          	bne	a5,a3,16c6a <memmove+0x62>
   16c92:	00c67813          	and	a6,a2,12
   16c96:	95c6                	add	a1,a1,a7
   16c98:	00f67713          	and	a4,a2,15
   16c9c:	02080a63          	beqz	a6,16cd0 <memmove+0xc8>
   16ca0:	ffc70813          	add	a6,a4,-4
   16ca4:	ffc87813          	and	a6,a6,-4
   16ca8:	0811                	add	a6,a6,4
   16caa:	010687b3          	add	a5,a3,a6
   16cae:	872e                	mv	a4,a1
   16cb0:	00072883          	lw	a7,0(a4)
   16cb4:	0691                	add	a3,a3,4
   16cb6:	0711                	add	a4,a4,4
   16cb8:	ff16ae23          	sw	a7,-4(a3)
   16cbc:	fef69ae3          	bne	a3,a5,16cb0 <memmove+0xa8>
   16cc0:	8a0d                	and	a2,a2,3
   16cc2:	95c2                	add	a1,a1,a6
   16cc4:	bf85                	j	16c34 <memmove+0x2c>
   16cc6:	fff60693          	add	a3,a2,-1
   16cca:	87aa                	mv	a5,a0
   16ccc:	b7bd                	j	16c3a <memmove+0x32>
   16cce:	8082                	ret
   16cd0:	863a                	mv	a2,a4
   16cd2:	b78d                	j	16c34 <memmove+0x2c>

00016cd4 <memcpy>:
   16cd4:	00a5c7b3          	xor	a5,a1,a0
   16cd8:	8b8d                	and	a5,a5,3
   16cda:	00c508b3          	add	a7,a0,a2
   16cde:	e7b1                	bnez	a5,16d2a <memcpy+0x56>
   16ce0:	478d                	li	a5,3
   16ce2:	04c7f463          	bgeu	a5,a2,16d2a <memcpy+0x56>
   16ce6:	00357793          	and	a5,a0,3
   16cea:	872a                	mv	a4,a0
   16cec:	ebb9                	bnez	a5,16d42 <memcpy+0x6e>
   16cee:	ffc8f613          	and	a2,a7,-4
   16cf2:	40e606b3          	sub	a3,a2,a4
   16cf6:	02000793          	li	a5,32
   16cfa:	06d7c863          	blt	a5,a3,16d6a <memcpy+0x96>
   16cfe:	86ae                	mv	a3,a1
   16d00:	87ba                	mv	a5,a4
   16d02:	02c77163          	bgeu	a4,a2,16d24 <memcpy+0x50>
   16d06:	0006a803          	lw	a6,0(a3)
   16d0a:	0791                	add	a5,a5,4
   16d0c:	0691                	add	a3,a3,4
   16d0e:	ff07ae23          	sw	a6,-4(a5)
   16d12:	fec7eae3          	bltu	a5,a2,16d06 <memcpy+0x32>
   16d16:	fff60793          	add	a5,a2,-1
   16d1a:	8f99                	sub	a5,a5,a4
   16d1c:	9bf1                	and	a5,a5,-4
   16d1e:	0791                	add	a5,a5,4
   16d20:	973e                	add	a4,a4,a5
   16d22:	95be                	add	a1,a1,a5
   16d24:	01176663          	bltu	a4,a7,16d30 <memcpy+0x5c>
   16d28:	8082                	ret
   16d2a:	872a                	mv	a4,a0
   16d2c:	03157e63          	bgeu	a0,a7,16d68 <memcpy+0x94>
   16d30:	0005c783          	lbu	a5,0(a1)
   16d34:	0705                	add	a4,a4,1
   16d36:	0585                	add	a1,a1,1
   16d38:	fef70fa3          	sb	a5,-1(a4)
   16d3c:	fee89ae3          	bne	a7,a4,16d30 <memcpy+0x5c>
   16d40:	8082                	ret
   16d42:	0005c683          	lbu	a3,0(a1)
   16d46:	0705                	add	a4,a4,1
   16d48:	00377793          	and	a5,a4,3
   16d4c:	fed70fa3          	sb	a3,-1(a4)
   16d50:	0585                	add	a1,a1,1
   16d52:	dfd1                	beqz	a5,16cee <memcpy+0x1a>
   16d54:	0005c683          	lbu	a3,0(a1)
   16d58:	0705                	add	a4,a4,1
   16d5a:	00377793          	and	a5,a4,3
   16d5e:	fed70fa3          	sb	a3,-1(a4)
   16d62:	0585                	add	a1,a1,1
   16d64:	fff9                	bnez	a5,16d42 <memcpy+0x6e>
   16d66:	b761                	j	16cee <memcpy+0x1a>
   16d68:	8082                	ret
   16d6a:	1141                	add	sp,sp,-16
   16d6c:	c622                	sw	s0,12(sp)
   16d6e:	02000413          	li	s0,32
   16d72:	0005a383          	lw	t2,0(a1)
   16d76:	0045a283          	lw	t0,4(a1)
   16d7a:	0085af83          	lw	t6,8(a1)
   16d7e:	00c5af03          	lw	t5,12(a1)
   16d82:	0105ae83          	lw	t4,16(a1)
   16d86:	0145ae03          	lw	t3,20(a1)
   16d8a:	0185a303          	lw	t1,24(a1)
   16d8e:	01c5a803          	lw	a6,28(a1)
   16d92:	5194                	lw	a3,32(a1)
   16d94:	02470713          	add	a4,a4,36
   16d98:	40e607b3          	sub	a5,a2,a4
   16d9c:	fc772e23          	sw	t2,-36(a4)
   16da0:	fe572023          	sw	t0,-32(a4)
   16da4:	fff72223          	sw	t6,-28(a4)
   16da8:	ffe72423          	sw	t5,-24(a4)
   16dac:	ffd72623          	sw	t4,-20(a4)
   16db0:	ffc72823          	sw	t3,-16(a4)
   16db4:	fe672a23          	sw	t1,-12(a4)
   16db8:	ff072c23          	sw	a6,-8(a4)
   16dbc:	fed72e23          	sw	a3,-4(a4)
   16dc0:	02458593          	add	a1,a1,36
   16dc4:	faf447e3          	blt	s0,a5,16d72 <memcpy+0x9e>
   16dc8:	86ae                	mv	a3,a1
   16dca:	87ba                	mv	a5,a4
   16dcc:	02c77163          	bgeu	a4,a2,16dee <memcpy+0x11a>
   16dd0:	0006a803          	lw	a6,0(a3)
   16dd4:	0791                	add	a5,a5,4
   16dd6:	0691                	add	a3,a3,4
   16dd8:	ff07ae23          	sw	a6,-4(a5)
   16ddc:	fec7eae3          	bltu	a5,a2,16dd0 <memcpy+0xfc>
   16de0:	fff60793          	add	a5,a2,-1
   16de4:	8f99                	sub	a5,a5,a4
   16de6:	9bf1                	and	a5,a5,-4
   16de8:	0791                	add	a5,a5,4
   16dea:	973e                	add	a4,a4,a5
   16dec:	95be                	add	a1,a1,a5
   16dee:	01176563          	bltu	a4,a7,16df8 <memcpy+0x124>
   16df2:	4432                	lw	s0,12(sp)
   16df4:	0141                	add	sp,sp,16
   16df6:	8082                	ret
   16df8:	0005c783          	lbu	a5,0(a1)
   16dfc:	0705                	add	a4,a4,1
   16dfe:	0585                	add	a1,a1,1
   16e00:	fef70fa3          	sb	a5,-1(a4)
   16e04:	fee887e3          	beq	a7,a4,16df2 <memcpy+0x11e>
   16e08:	0005c783          	lbu	a5,0(a1)
   16e0c:	0705                	add	a4,a4,1
   16e0e:	0585                	add	a1,a1,1
   16e10:	fef70fa3          	sb	a5,-1(a4)
   16e14:	fee892e3          	bne	a7,a4,16df8 <memcpy+0x124>
   16e18:	bfe9                	j	16df2 <memcpy+0x11e>

00016e1a <strlen>:
   16e1a:	00357793          	and	a5,a0,3
   16e1e:	872a                	mv	a4,a0
   16e20:	ef9d                	bnez	a5,16e5e <strlen+0x44>
   16e22:	7f7f86b7          	lui	a3,0x7f7f8
   16e26:	f7f68693          	add	a3,a3,-129 # 7f7f7f7f <__BSS_END__+0x7f7d91fb>
   16e2a:	55fd                	li	a1,-1
   16e2c:	4310                	lw	a2,0(a4)
   16e2e:	0711                	add	a4,a4,4
   16e30:	00d677b3          	and	a5,a2,a3
   16e34:	97b6                	add	a5,a5,a3
   16e36:	8fd1                	or	a5,a5,a2
   16e38:	8fd5                	or	a5,a5,a3
   16e3a:	feb789e3          	beq	a5,a1,16e2c <strlen+0x12>
   16e3e:	ffc74683          	lbu	a3,-4(a4)
   16e42:	40a707b3          	sub	a5,a4,a0
   16e46:	ca8d                	beqz	a3,16e78 <strlen+0x5e>
   16e48:	ffd74683          	lbu	a3,-3(a4)
   16e4c:	c29d                	beqz	a3,16e72 <strlen+0x58>
   16e4e:	ffe74503          	lbu	a0,-2(a4)
   16e52:	00a03533          	snez	a0,a0
   16e56:	953e                	add	a0,a0,a5
   16e58:	1579                	add	a0,a0,-2
   16e5a:	8082                	ret
   16e5c:	d2f9                	beqz	a3,16e22 <strlen+0x8>
   16e5e:	00074783          	lbu	a5,0(a4)
   16e62:	0705                	add	a4,a4,1
   16e64:	00377693          	and	a3,a4,3
   16e68:	fbf5                	bnez	a5,16e5c <strlen+0x42>
   16e6a:	8f09                	sub	a4,a4,a0
   16e6c:	fff70513          	add	a0,a4,-1
   16e70:	8082                	ret
   16e72:	ffd78513          	add	a0,a5,-3
   16e76:	8082                	ret
   16e78:	ffc78513          	add	a0,a5,-4
   16e7c:	8082                	ret

00016e7e <strcpy>:
   16e7e:	00b567b3          	or	a5,a0,a1
   16e82:	8b8d                	and	a5,a5,3
   16e84:	efb1                	bnez	a5,16ee0 <strcpy+0x62>
   16e86:	4198                	lw	a4,0(a1)
   16e88:	7f7f86b7          	lui	a3,0x7f7f8
   16e8c:	f7f68693          	add	a3,a3,-129 # 7f7f7f7f <__BSS_END__+0x7f7d91fb>
   16e90:	00d777b3          	and	a5,a4,a3
   16e94:	97b6                	add	a5,a5,a3
   16e96:	8fd9                	or	a5,a5,a4
   16e98:	8fd5                	or	a5,a5,a3
   16e9a:	567d                	li	a2,-1
   16e9c:	04c79b63          	bne	a5,a2,16ef2 <strcpy+0x74>
   16ea0:	862a                	mv	a2,a0
   16ea2:	587d                	li	a6,-1
   16ea4:	c218                	sw	a4,0(a2)
   16ea6:	41d8                	lw	a4,4(a1)
   16ea8:	0591                	add	a1,a1,4
   16eaa:	0611                	add	a2,a2,4
   16eac:	00d777b3          	and	a5,a4,a3
   16eb0:	97b6                	add	a5,a5,a3
   16eb2:	8fd9                	or	a5,a5,a4
   16eb4:	8fd5                	or	a5,a5,a3
   16eb6:	ff0787e3          	beq	a5,a6,16ea4 <strcpy+0x26>
   16eba:	0005c783          	lbu	a5,0(a1)
   16ebe:	0015c703          	lbu	a4,1(a1)
   16ec2:	0025c683          	lbu	a3,2(a1)
   16ec6:	00f60023          	sb	a5,0(a2)
   16eca:	c799                	beqz	a5,16ed8 <strcpy+0x5a>
   16ecc:	00e600a3          	sb	a4,1(a2)
   16ed0:	c701                	beqz	a4,16ed8 <strcpy+0x5a>
   16ed2:	00d60123          	sb	a3,2(a2)
   16ed6:	e291                	bnez	a3,16eda <strcpy+0x5c>
   16ed8:	8082                	ret
   16eda:	000601a3          	sb	zero,3(a2)
   16ede:	8082                	ret
   16ee0:	87aa                	mv	a5,a0
   16ee2:	0005c703          	lbu	a4,0(a1)
   16ee6:	0785                	add	a5,a5,1
   16ee8:	0585                	add	a1,a1,1
   16eea:	fee78fa3          	sb	a4,-1(a5)
   16eee:	fb75                	bnez	a4,16ee2 <strcpy+0x64>
   16ef0:	8082                	ret
   16ef2:	862a                	mv	a2,a0
   16ef4:	b7d9                	j	16eba <strcpy+0x3c>

00016ef6 <strcmp>:
   16ef6:	00b56733          	or	a4,a0,a1
   16efa:	53fd                	li	t2,-1
   16efc:	8b0d                	and	a4,a4,3
   16efe:	e779                	bnez	a4,16fcc <strcmp+0xd6>
   16f00:	7f7f87b7          	lui	a5,0x7f7f8
   16f04:	f7f78793          	add	a5,a5,-129 # 7f7f7f7f <__BSS_END__+0x7f7d91fb>
   16f08:	4110                	lw	a2,0(a0)
   16f0a:	4194                	lw	a3,0(a1)
   16f0c:	00f672b3          	and	t0,a2,a5
   16f10:	00f66333          	or	t1,a2,a5
   16f14:	92be                	add	t0,t0,a5
   16f16:	0062e2b3          	or	t0,t0,t1
   16f1a:	0c729763          	bne	t0,t2,16fe8 <strcmp+0xf2>
   16f1e:	06d61863          	bne	a2,a3,16f8e <strcmp+0x98>
   16f22:	4150                	lw	a2,4(a0)
   16f24:	41d4                	lw	a3,4(a1)
   16f26:	00f672b3          	and	t0,a2,a5
   16f2a:	00f66333          	or	t1,a2,a5
   16f2e:	92be                	add	t0,t0,a5
   16f30:	0062e2b3          	or	t0,t0,t1
   16f34:	0a729863          	bne	t0,t2,16fe4 <strcmp+0xee>
   16f38:	04d61b63          	bne	a2,a3,16f8e <strcmp+0x98>
   16f3c:	4510                	lw	a2,8(a0)
   16f3e:	4594                	lw	a3,8(a1)
   16f40:	00f672b3          	and	t0,a2,a5
   16f44:	00f66333          	or	t1,a2,a5
   16f48:	92be                	add	t0,t0,a5
   16f4a:	0062e2b3          	or	t0,t0,t1
   16f4e:	0a729163          	bne	t0,t2,16ff0 <strcmp+0xfa>
   16f52:	02d61e63          	bne	a2,a3,16f8e <strcmp+0x98>
   16f56:	4550                	lw	a2,12(a0)
   16f58:	45d4                	lw	a3,12(a1)
   16f5a:	00f672b3          	and	t0,a2,a5
   16f5e:	00f66333          	or	t1,a2,a5
   16f62:	92be                	add	t0,t0,a5
   16f64:	0062e2b3          	or	t0,t0,t1
   16f68:	08729a63          	bne	t0,t2,16ffc <strcmp+0x106>
   16f6c:	02d61163          	bne	a2,a3,16f8e <strcmp+0x98>
   16f70:	4910                	lw	a2,16(a0)
   16f72:	4994                	lw	a3,16(a1)
   16f74:	00f672b3          	and	t0,a2,a5
   16f78:	00f66333          	or	t1,a2,a5
   16f7c:	92be                	add	t0,t0,a5
   16f7e:	0062e2b3          	or	t0,t0,t1
   16f82:	08729363          	bne	t0,t2,17008 <strcmp+0x112>
   16f86:	0551                	add	a0,a0,20
   16f88:	05d1                	add	a1,a1,20
   16f8a:	f6d60fe3          	beq	a2,a3,16f08 <strcmp+0x12>
   16f8e:	01061713          	sll	a4,a2,0x10
   16f92:	01069793          	sll	a5,a3,0x10
   16f96:	00f71c63          	bne	a4,a5,16fae <strcmp+0xb8>
   16f9a:	01065713          	srl	a4,a2,0x10
   16f9e:	0106d793          	srl	a5,a3,0x10
   16fa2:	40f70533          	sub	a0,a4,a5
   16fa6:	0ff57593          	zext.b	a1,a0
   16faa:	e991                	bnez	a1,16fbe <strcmp+0xc8>
   16fac:	8082                	ret
   16fae:	8341                	srl	a4,a4,0x10
   16fb0:	83c1                	srl	a5,a5,0x10
   16fb2:	40f70533          	sub	a0,a4,a5
   16fb6:	0ff57593          	zext.b	a1,a0
   16fba:	e191                	bnez	a1,16fbe <strcmp+0xc8>
   16fbc:	8082                	ret
   16fbe:	0ff77713          	zext.b	a4,a4
   16fc2:	0ff7f793          	zext.b	a5,a5
   16fc6:	40f70533          	sub	a0,a4,a5
   16fca:	8082                	ret
   16fcc:	00054603          	lbu	a2,0(a0)
   16fd0:	0005c683          	lbu	a3,0(a1)
   16fd4:	0505                	add	a0,a0,1
   16fd6:	0585                	add	a1,a1,1
   16fd8:	00d61363          	bne	a2,a3,16fde <strcmp+0xe8>
   16fdc:	fa65                	bnez	a2,16fcc <strcmp+0xd6>
   16fde:	40d60533          	sub	a0,a2,a3
   16fe2:	8082                	ret
   16fe4:	0511                	add	a0,a0,4
   16fe6:	0591                	add	a1,a1,4
   16fe8:	fed612e3          	bne	a2,a3,16fcc <strcmp+0xd6>
   16fec:	4501                	li	a0,0
   16fee:	8082                	ret
   16ff0:	0521                	add	a0,a0,8
   16ff2:	05a1                	add	a1,a1,8
   16ff4:	fcd61ce3          	bne	a2,a3,16fcc <strcmp+0xd6>
   16ff8:	4501                	li	a0,0
   16ffa:	8082                	ret
   16ffc:	0531                	add	a0,a0,12
   16ffe:	05b1                	add	a1,a1,12
   17000:	fcd616e3          	bne	a2,a3,16fcc <strcmp+0xd6>
   17004:	4501                	li	a0,0
   17006:	8082                	ret
   17008:	0541                	add	a0,a0,16
   1700a:	05c1                	add	a1,a1,16
   1700c:	fcd610e3          	bne	a2,a3,16fcc <strcmp+0xd6>
   17010:	4501                	li	a0,0
   17012:	8082                	ret

00017014 <frexp>:
   17014:	1141                	add	sp,sp,-16
   17016:	c226                	sw	s1,4(sp)
   17018:	800004b7          	lui	s1,0x80000
   1701c:	c422                	sw	s0,8(sp)
   1701e:	c606                	sw	ra,12(sp)
   17020:	14fd                	add	s1,s1,-1 # 7fffffff <__BSS_END__+0x7ffe127b>
   17022:	8432                	mv	s0,a2
   17024:	00062023          	sw	zero,0(a2)
   17028:	00b4f6b3          	and	a3,s1,a1
   1702c:	7ff00637          	lui	a2,0x7ff00
   17030:	87ae                	mv	a5,a1
   17032:	872a                	mv	a4,a0
   17034:	02c6f763          	bgeu	a3,a2,17062 <frexp+0x4e>
   17038:	00a6e633          	or	a2,a3,a0
   1703c:	c21d                	beqz	a2,17062 <frexp+0x4e>
   1703e:	0145d613          	srl	a2,a1,0x14
   17042:	7ff67613          	and	a2,a2,2047
   17046:	c60d                	beqz	a2,17070 <frexp+0x5c>
   17048:	4581                	li	a1,0
   1704a:	80100637          	lui	a2,0x80100
   1704e:	86d1                	sra	a3,a3,0x14
   17050:	167d                	add	a2,a2,-1 # 800fffff <__BSS_END__+0x800e127b>
   17052:	c0268693          	add	a3,a3,-1022
   17056:	8ff1                	and	a5,a5,a2
   17058:	96ae                	add	a3,a3,a1
   1705a:	3fe00637          	lui	a2,0x3fe00
   1705e:	8fd1                	or	a5,a5,a2
   17060:	c014                	sw	a3,0(s0)
   17062:	40b2                	lw	ra,12(sp)
   17064:	4422                	lw	s0,8(sp)
   17066:	4492                	lw	s1,4(sp)
   17068:	853a                	mv	a0,a4
   1706a:	85be                	mv	a1,a5
   1706c:	0141                	add	sp,sp,16
   1706e:	8082                	ret
   17070:	00007797          	auipc	a5,0x7
   17074:	6b878793          	add	a5,a5,1720 # 1e728 <__SDATA_BEGIN__+0x20>
   17078:	43d4                	lw	a3,4(a5)
   1707a:	4390                	lw	a2,0(a5)
   1707c:	195040ef          	jal	1ba10 <__muldf3>
   17080:	87ae                	mv	a5,a1
   17082:	00b4f6b3          	and	a3,s1,a1
   17086:	872a                	mv	a4,a0
   17088:	fca00593          	li	a1,-54
   1708c:	bf7d                	j	1704a <frexp+0x36>

0001708e <quorem>:
   1708e:	1101                	add	sp,sp,-32
   17090:	ca26                	sw	s1,20(sp)
   17092:	491c                	lw	a5,16(a0)
   17094:	4984                	lw	s1,16(a1)
   17096:	ce06                	sw	ra,28(sp)
   17098:	1297ca63          	blt	a5,s1,171cc <quorem+0x13e>
   1709c:	14fd                	add	s1,s1,-1
   1709e:	00249313          	sll	t1,s1,0x2
   170a2:	cc22                	sw	s0,24(sp)
   170a4:	01458413          	add	s0,a1,20
   170a8:	c64e                	sw	s3,12(sp)
   170aa:	c452                	sw	s4,8(sp)
   170ac:	006409b3          	add	s3,s0,t1
   170b0:	01450a13          	add	s4,a0,20
   170b4:	0009a783          	lw	a5,0(s3)
   170b8:	9352                	add	t1,t1,s4
   170ba:	00032703          	lw	a4,0(t1)
   170be:	c84a                	sw	s2,16(sp)
   170c0:	c256                	sw	s5,4(sp)
   170c2:	0785                	add	a5,a5,1
   170c4:	02f75933          	divu	s2,a4,a5
   170c8:	8aaa                	mv	s5,a0
   170ca:	08f76263          	bltu	a4,a5,1714e <quorem+0xc0>
   170ce:	6541                	lui	a0,0x10
   170d0:	88a2                	mv	a7,s0
   170d2:	8852                	mv	a6,s4
   170d4:	4e81                	li	t4,0
   170d6:	4681                	li	a3,0
   170d8:	157d                	add	a0,a0,-1 # ffff <exit-0x95>
   170da:	0008a703          	lw	a4,0(a7)
   170de:	00082e03          	lw	t3,0(a6)
   170e2:	0811                	add	a6,a6,4
   170e4:	00a77633          	and	a2,a4,a0
   170e8:	8341                	srl	a4,a4,0x10
   170ea:	00ae77b3          	and	a5,t3,a0
   170ee:	010e5e13          	srl	t3,t3,0x10
   170f2:	0891                	add	a7,a7,4
   170f4:	03260633          	mul	a2,a2,s2
   170f8:	03270733          	mul	a4,a4,s2
   170fc:	9676                	add	a2,a2,t4
   170fe:	00a67eb3          	and	t4,a2,a0
   17102:	41d787b3          	sub	a5,a5,t4
   17106:	8241                	srl	a2,a2,0x10
   17108:	97b6                	add	a5,a5,a3
   1710a:	4107d693          	sra	a3,a5,0x10
   1710e:	8fe9                	and	a5,a5,a0
   17110:	9732                	add	a4,a4,a2
   17112:	00a77633          	and	a2,a4,a0
   17116:	8e91                	sub	a3,a3,a2
   17118:	96f2                	add	a3,a3,t3
   1711a:	01069613          	sll	a2,a3,0x10
   1711e:	8fd1                	or	a5,a5,a2
   17120:	fef82e23          	sw	a5,-4(a6)
   17124:	01075e93          	srl	t4,a4,0x10
   17128:	86c1                	sra	a3,a3,0x10
   1712a:	fb19f8e3          	bgeu	s3,a7,170da <quorem+0x4c>
   1712e:	00032783          	lw	a5,0(t1)
   17132:	ef91                	bnez	a5,1714e <quorem+0xc0>
   17134:	1371                	add	t1,t1,-4
   17136:	006a6663          	bltu	s4,t1,17142 <quorem+0xb4>
   1713a:	a801                	j	1714a <quorem+0xbc>
   1713c:	14fd                	add	s1,s1,-1
   1713e:	006a7663          	bgeu	s4,t1,1714a <quorem+0xbc>
   17142:	00032783          	lw	a5,0(t1)
   17146:	1371                	add	t1,t1,-4
   17148:	dbf5                	beqz	a5,1713c <quorem+0xae>
   1714a:	009aa823          	sw	s1,16(s5)
   1714e:	8556                	mv	a0,s5
   17150:	60d010ef          	jal	18f5c <__mcmp>
   17154:	06054263          	bltz	a0,171b8 <quorem+0x12a>
   17158:	6541                	lui	a0,0x10
   1715a:	85d2                	mv	a1,s4
   1715c:	4701                	li	a4,0
   1715e:	157d                	add	a0,a0,-1 # ffff <exit-0x95>
   17160:	4194                	lw	a3,0(a1)
   17162:	4010                	lw	a2,0(s0)
   17164:	0591                	add	a1,a1,4
   17166:	00a6f7b3          	and	a5,a3,a0
   1716a:	00a67833          	and	a6,a2,a0
   1716e:	410787b3          	sub	a5,a5,a6
   17172:	97ba                	add	a5,a5,a4
   17174:	4107d713          	sra	a4,a5,0x10
   17178:	8241                	srl	a2,a2,0x10
   1717a:	82c1                	srl	a3,a3,0x10
   1717c:	8f11                	sub	a4,a4,a2
   1717e:	9736                	add	a4,a4,a3
   17180:	01071693          	sll	a3,a4,0x10
   17184:	8fe9                	and	a5,a5,a0
   17186:	8fd5                	or	a5,a5,a3
   17188:	0411                	add	s0,s0,4
   1718a:	fef5ae23          	sw	a5,-4(a1)
   1718e:	8741                	sra	a4,a4,0x10
   17190:	fc89f8e3          	bgeu	s3,s0,17160 <quorem+0xd2>
   17194:	00249793          	sll	a5,s1,0x2
   17198:	97d2                	add	a5,a5,s4
   1719a:	4398                	lw	a4,0(a5)
   1719c:	ef09                	bnez	a4,171b6 <quorem+0x128>
   1719e:	17f1                	add	a5,a5,-4
   171a0:	00fa6663          	bltu	s4,a5,171ac <quorem+0x11e>
   171a4:	a039                	j	171b2 <quorem+0x124>
   171a6:	14fd                	add	s1,s1,-1
   171a8:	00fa7563          	bgeu	s4,a5,171b2 <quorem+0x124>
   171ac:	4398                	lw	a4,0(a5)
   171ae:	17f1                	add	a5,a5,-4
   171b0:	db7d                	beqz	a4,171a6 <quorem+0x118>
   171b2:	009aa823          	sw	s1,16(s5)
   171b6:	0905                	add	s2,s2,1
   171b8:	4462                	lw	s0,24(sp)
   171ba:	40f2                	lw	ra,28(sp)
   171bc:	49b2                	lw	s3,12(sp)
   171be:	4a22                	lw	s4,8(sp)
   171c0:	4a92                	lw	s5,4(sp)
   171c2:	44d2                	lw	s1,20(sp)
   171c4:	854a                	mv	a0,s2
   171c6:	4942                	lw	s2,16(sp)
   171c8:	6105                	add	sp,sp,32
   171ca:	8082                	ret
   171cc:	40f2                	lw	ra,28(sp)
   171ce:	44d2                	lw	s1,20(sp)
   171d0:	4501                	li	a0,0
   171d2:	6105                	add	sp,sp,32
   171d4:	8082                	ret

000171d6 <_dtoa_r>:
   171d6:	03852303          	lw	t1,56(a0)
   171da:	7171                	add	sp,sp,-176
   171dc:	d522                	sw	s0,168(sp)
   171de:	d326                	sw	s1,164(sp)
   171e0:	d14a                	sw	s2,160(sp)
   171e2:	cd52                	sw	s4,152(sp)
   171e4:	deee                	sw	s11,124(sp)
   171e6:	d706                	sw	ra,172(sp)
   171e8:	cf4e                	sw	s3,156(sp)
   171ea:	cb56                	sw	s5,148(sp)
   171ec:	ca3a                	sw	a4,20(sp)
   171ee:	c63e                	sw	a5,12(sp)
   171f0:	c446                	sw	a7,8(sp)
   171f2:	d22e                	sw	a1,36(sp)
   171f4:	c032                	sw	a2,0(sp)
   171f6:	842a                	mv	s0,a0
   171f8:	8dae                	mv	s11,a1
   171fa:	84b2                	mv	s1,a2
   171fc:	8a36                	mv	s4,a3
   171fe:	8942                	mv	s2,a6
   17200:	00030f63          	beqz	t1,1721e <_dtoa_r+0x48>
   17204:	5d58                	lw	a4,60(a0)
   17206:	4785                	li	a5,1
   17208:	859a                	mv	a1,t1
   1720a:	00e797b3          	sll	a5,a5,a4
   1720e:	00e32223          	sw	a4,4(t1)
   17212:	00f32423          	sw	a5,8(t1)
   17216:	6b0010ef          	jal	188c6 <_Bfree>
   1721a:	02042c23          	sw	zero,56(s0)
   1721e:	89a6                	mv	s3,s1
   17220:	4681                	li	a3,0
   17222:	0004d863          	bgez	s1,17232 <_dtoa_r+0x5c>
   17226:	0486                	sll	s1,s1,0x1
   17228:	0014d793          	srl	a5,s1,0x1
   1722c:	c03e                	sw	a5,0(sp)
   1722e:	89be                	mv	s3,a5
   17230:	4685                	li	a3,1
   17232:	7ff00737          	lui	a4,0x7ff00
   17236:	00d92023          	sw	a3,0(s2)
   1723a:	00e9f6b3          	and	a3,s3,a4
   1723e:	42e68d63          	beq	a3,a4,17678 <_dtoa_r+0x4a2>
   17242:	4482                	lw	s1,0(sp)
   17244:	856e                	mv	a0,s11
   17246:	4601                	li	a2,0
   17248:	85a6                	mv	a1,s1
   1724a:	4681                	li	a3,0
   1724c:	cc6e                	sw	s11,24(sp)
   1724e:	ce26                	sw	s1,28(sp)
   17250:	5d4040ef          	jal	1b824 <__eqdf2>
   17254:	e915                	bnez	a0,17288 <_dtoa_r+0xb2>
   17256:	4732                	lw	a4,12(sp)
   17258:	4785                	li	a5,1
   1725a:	c31c                	sw	a5,0(a4)
   1725c:	4722                	lw	a4,8(sp)
   1725e:	c711                	beqz	a4,1726a <_dtoa_r+0x94>
   17260:	00006797          	auipc	a5,0x6
   17264:	8ad78793          	add	a5,a5,-1875 # 1cb0d <__trunctfdf2+0x30f>
   17268:	c31c                	sw	a5,0(a4)
   1726a:	00006a97          	auipc	s5,0x6
   1726e:	8a2a8a93          	add	s5,s5,-1886 # 1cb0c <__trunctfdf2+0x30e>
   17272:	50ba                	lw	ra,172(sp)
   17274:	542a                	lw	s0,168(sp)
   17276:	549a                	lw	s1,164(sp)
   17278:	590a                	lw	s2,160(sp)
   1727a:	49fa                	lw	s3,156(sp)
   1727c:	4a6a                	lw	s4,152(sp)
   1727e:	5df6                	lw	s11,124(sp)
   17280:	8556                	mv	a0,s5
   17282:	4ada                	lw	s5,148(sp)
   17284:	614d                	add	sp,sp,176
   17286:	8082                	ret
   17288:	8626                	mv	a2,s1
   1728a:	10b8                	add	a4,sp,104
   1728c:	10f4                	add	a3,sp,108
   1728e:	85ee                	mv	a1,s11
   17290:	8522                	mv	a0,s0
   17292:	c95a                	sw	s6,144(sp)
   17294:	c75e                	sw	s7,140(sp)
   17296:	c562                	sw	s8,136(sp)
   17298:	c366                	sw	s9,132(sp)
   1729a:	c16a                	sw	s10,128(sp)
   1729c:	0149d913          	srl	s2,s3,0x14
   172a0:	7cd010ef          	jal	1926c <__d2b>
   172a4:	84aa                	mv	s1,a0
   172a6:	40091263          	bnez	s2,176aa <_dtoa_r+0x4d4>
   172aa:	5aa6                	lw	s5,104(sp)
   172ac:	5936                	lw	s2,108(sp)
   172ae:	02000793          	li	a5,32
   172b2:	9956                	add	s2,s2,s5
   172b4:	43290713          	add	a4,s2,1074
   172b8:	7ce7d463          	bge	a5,a4,17a80 <_dtoa_r+0x8aa>
   172bc:	04000793          	li	a5,64
   172c0:	8f99                	sub	a5,a5,a4
   172c2:	41290513          	add	a0,s2,1042
   172c6:	00f997b3          	sll	a5,s3,a5
   172ca:	00add533          	srl	a0,s11,a0
   172ce:	8d5d                	or	a0,a0,a5
   172d0:	4be050ef          	jal	1c78e <__floatunsidf>
   172d4:	fe1007b7          	lui	a5,0xfe100
   172d8:	4685                	li	a3,1
   172da:	872a                	mv	a4,a0
   172dc:	97ae                	add	a5,a5,a1
   172de:	197d                	add	s2,s2,-1
   172e0:	dc36                	sw	a3,56(sp)
   172e2:	00007697          	auipc	a3,0x7
   172e6:	44e68693          	add	a3,a3,1102 # 1e730 <__SDATA_BEGIN__+0x28>
   172ea:	4290                	lw	a2,0(a3)
   172ec:	42d4                	lw	a3,4(a3)
   172ee:	853a                	mv	a0,a4
   172f0:	85be                	mv	a1,a5
   172f2:	43d040ef          	jal	1bf2e <__subdf3>
   172f6:	00007797          	auipc	a5,0x7
   172fa:	44278793          	add	a5,a5,1090 # 1e738 <__SDATA_BEGIN__+0x30>
   172fe:	4390                	lw	a2,0(a5)
   17300:	43d4                	lw	a3,4(a5)
   17302:	70e040ef          	jal	1ba10 <__muldf3>
   17306:	00007797          	auipc	a5,0x7
   1730a:	43a78793          	add	a5,a5,1082 # 1e740 <__SDATA_BEGIN__+0x38>
   1730e:	4390                	lw	a2,0(a5)
   17310:	43d4                	lw	a3,4(a5)
   17312:	037030ef          	jal	1ab48 <__adddf3>
   17316:	8b2a                	mv	s6,a0
   17318:	854a                	mv	a0,s2
   1731a:	89ae                	mv	s3,a1
   1731c:	402050ef          	jal	1c71e <__floatsidf>
   17320:	00007797          	auipc	a5,0x7
   17324:	42878793          	add	a5,a5,1064 # 1e748 <__SDATA_BEGIN__+0x40>
   17328:	4390                	lw	a2,0(a5)
   1732a:	43d4                	lw	a3,4(a5)
   1732c:	6e4040ef          	jal	1ba10 <__muldf3>
   17330:	862a                	mv	a2,a0
   17332:	86ae                	mv	a3,a1
   17334:	855a                	mv	a0,s6
   17336:	85ce                	mv	a1,s3
   17338:	011030ef          	jal	1ab48 <__adddf3>
   1733c:	8baa                	mv	s7,a0
   1733e:	8b2e                	mv	s6,a1
   17340:	378050ef          	jal	1c6b8 <__fixdfsi>
   17344:	89aa                	mv	s3,a0
   17346:	85da                	mv	a1,s6
   17348:	855e                	mv	a0,s7
   1734a:	4601                	li	a2,0
   1734c:	4681                	li	a3,0
   1734e:	600040ef          	jal	1b94e <__ledf2>
   17352:	00055d63          	bgez	a0,1736c <_dtoa_r+0x196>
   17356:	854e                	mv	a0,s3
   17358:	3c6050ef          	jal	1c71e <__floatsidf>
   1735c:	865e                	mv	a2,s7
   1735e:	86da                	mv	a3,s6
   17360:	4c4040ef          	jal	1b824 <__eqdf2>
   17364:	00a03533          	snez	a0,a0
   17368:	40a989b3          	sub	s3,s3,a0
   1736c:	412a8ab3          	sub	s5,s5,s2
   17370:	47d9                	li	a5,22
   17372:	fffa8b13          	add	s6,s5,-1
   17376:	6d37e163          	bltu	a5,s3,17a38 <_dtoa_r+0x862>
   1737a:	00399713          	sll	a4,s3,0x3
   1737e:	00006797          	auipc	a5,0x6
   17382:	31278793          	add	a5,a5,786 # 1d690 <__mprec_tens>
   17386:	97ba                	add	a5,a5,a4
   17388:	4390                	lw	a2,0(a5)
   1738a:	43d4                	lw	a3,4(a5)
   1738c:	4562                	lw	a0,24(sp)
   1738e:	45f2                	lw	a1,28(sp)
   17390:	5be040ef          	jal	1b94e <__ledf2>
   17394:	6c055c63          	bgez	a0,17a6c <_dtoa_r+0x896>
   17398:	19fd                	add	s3,s3,-1
   1739a:	da02                	sw	zero,52(sp)
   1739c:	c802                	sw	zero,16(sp)
   1739e:	320b4263          	bltz	s6,176c2 <_dtoa_r+0x4ec>
   173a2:	3209d763          	bgez	s3,176d0 <_dtoa_r+0x4fa>
   173a6:	47c2                	lw	a5,16(sp)
   173a8:	d04e                	sw	s3,32(sp)
   173aa:	413787b3          	sub	a5,a5,s3
   173ae:	c83e                	sw	a5,16(sp)
   173b0:	413007b3          	neg	a5,s3
   173b4:	d83e                	sw	a5,48(sp)
   173b6:	47a5                	li	a5,9
   173b8:	4981                	li	s3,0
   173ba:	3347e163          	bltu	a5,s4,176dc <_dtoa_r+0x506>
   173be:	4795                	li	a5,5
   173c0:	6d47d563          	bge	a5,s4,17a8a <_dtoa_r+0x8b4>
   173c4:	1a71                	add	s4,s4,-4
   173c6:	478d                	li	a5,3
   173c8:	4901                	li	s2,0
   173ca:	1afa06e3          	beq	s4,a5,17d76 <_dtoa_r+0xba0>
   173ce:	1747d9e3          	bge	a5,s4,17d40 <_dtoa_r+0xb6a>
   173d2:	4791                	li	a5,4
   173d4:	0efa1de3          	bne	s4,a5,17cce <_dtoa_r+0xaf8>
   173d8:	4785                	li	a5,1
   173da:	d43e                	sw	a5,40(sp)
   173dc:	4652                	lw	a2,20(sp)
   173de:	18c058e3          	blez	a2,17d6e <_dtoa_r+0xb98>
   173e2:	de32                	sw	a2,60(sp)
   173e4:	8c32                	mv	s8,a2
   173e6:	46dd                	li	a3,23
   173e8:	4705                	li	a4,1
   173ea:	4791                	li	a5,4
   173ec:	50c6d7e3          	bge	a3,a2,180fa <_dtoa_r+0xf24>
   173f0:	0786                	sll	a5,a5,0x1
   173f2:	01478693          	add	a3,a5,20
   173f6:	85ba                	mv	a1,a4
   173f8:	0705                	add	a4,a4,1 # 7ff00001 <__BSS_END__+0x7fee127d>
   173fa:	fed67be3          	bgeu	a2,a3,173f0 <_dtoa_r+0x21a>
   173fe:	dc4c                	sw	a1,60(s0)
   17400:	8522                	mv	a0,s0
   17402:	458010ef          	jal	1885a <_Balloc>
   17406:	8aaa                	mv	s5,a0
   17408:	4c050ce3          	beqz	a0,180e0 <_dtoa_r+0xf0a>
   1740c:	dc08                	sw	a0,56(s0)
   1740e:	47b9                	li	a5,14
   17410:	3787e663          	bltu	a5,s8,1777c <_dtoa_r+0x5a6>
   17414:	36090463          	beqz	s2,1777c <_dtoa_r+0x5a6>
   17418:	5782                	lw	a5,32(sp)
   1741a:	18f052e3          	blez	a5,17d9e <_dtoa_r+0xbc8>
   1741e:	00f7f713          	and	a4,a5,15
   17422:	070e                	sll	a4,a4,0x3
   17424:	4047dc93          	sra	s9,a5,0x4
   17428:	00006797          	auipc	a5,0x6
   1742c:	26878793          	add	a5,a5,616 # 1d690 <__mprec_tens>
   17430:	97ba                	add	a5,a5,a4
   17432:	010cf693          	and	a3,s9,16
   17436:	0007a803          	lw	a6,0(a5)
   1743a:	43d8                	lw	a4,4(a5)
   1743c:	0e068de3          	beqz	a3,17d36 <_dtoa_r+0xb60>
   17440:	00006797          	auipc	a5,0x6
   17444:	22878793          	add	a5,a5,552 # 1d668 <__mprec_bigtens>
   17448:	5390                	lw	a2,32(a5)
   1744a:	53d4                	lw	a3,36(a5)
   1744c:	4562                	lw	a0,24(sp)
   1744e:	45f2                	lw	a1,28(sp)
   17450:	c4ba                	sw	a4,72(sp)
   17452:	c0c2                	sw	a6,64(sp)
   17454:	611030ef          	jal	1b264 <__divdf3>
   17458:	4806                	lw	a6,64(sp)
   1745a:	4726                	lw	a4,72(sp)
   1745c:	00fcfc93          	and	s9,s9,15
   17460:	832a                	mv	t1,a0
   17462:	8d2e                	mv	s10,a1
   17464:	490d                	li	s2,3
   17466:	020c8f63          	beqz	s9,174a4 <_dtoa_r+0x2ce>
   1746a:	c0a2                	sw	s0,64(sp)
   1746c:	00006b97          	auipc	s7,0x6
   17470:	1fcb8b93          	add	s7,s7,508 # 1d668 <__mprec_bigtens>
   17474:	844a                	mv	s0,s2
   17476:	85ba                	mv	a1,a4
   17478:	891a                	mv	s2,t1
   1747a:	001cf793          	and	a5,s9,1
   1747e:	cb91                	beqz	a5,17492 <_dtoa_r+0x2bc>
   17480:	000ba603          	lw	a2,0(s7)
   17484:	004ba683          	lw	a3,4(s7)
   17488:	8542                	mv	a0,a6
   1748a:	0405                	add	s0,s0,1
   1748c:	584040ef          	jal	1ba10 <__muldf3>
   17490:	882a                	mv	a6,a0
   17492:	401cdc93          	sra	s9,s9,0x1
   17496:	0ba1                	add	s7,s7,8
   17498:	fe0c91e3          	bnez	s9,1747a <_dtoa_r+0x2a4>
   1749c:	834a                	mv	t1,s2
   1749e:	8922                	mv	s2,s0
   174a0:	4406                	lw	s0,64(sp)
   174a2:	872e                	mv	a4,a1
   174a4:	86ba                	mv	a3,a4
   174a6:	8642                	mv	a2,a6
   174a8:	851a                	mv	a0,t1
   174aa:	85ea                	mv	a1,s10
   174ac:	5b9030ef          	jal	1b264 <__divdf3>
   174b0:	872a                	mv	a4,a0
   174b2:	87ae                	mv	a5,a1
   174b4:	56d2                	lw	a3,52(sp)
   174b6:	c28d                	beqz	a3,174d8 <_dtoa_r+0x302>
   174b8:	00007697          	auipc	a3,0x7
   174bc:	29868693          	add	a3,a3,664 # 1e750 <__SDATA_BEGIN__+0x48>
   174c0:	4290                	lw	a2,0(a3)
   174c2:	42d4                	lw	a3,4(a3)
   174c4:	853a                	mv	a0,a4
   174c6:	85be                	mv	a1,a5
   174c8:	c4ba                	sw	a4,72(sp)
   174ca:	c0be                	sw	a5,64(sp)
   174cc:	482040ef          	jal	1b94e <__ledf2>
   174d0:	4786                	lw	a5,64(sp)
   174d2:	4726                	lw	a4,72(sp)
   174d4:	2e054ce3          	bltz	a0,17fcc <_dtoa_r+0xdf6>
   174d8:	854a                	mv	a0,s2
   174da:	c6be                	sw	a5,76(sp)
   174dc:	c0ba                	sw	a4,64(sp)
   174de:	240050ef          	jal	1c71e <__floatsidf>
   174e2:	4706                	lw	a4,64(sp)
   174e4:	47b6                	lw	a5,76(sp)
   174e6:	863a                	mv	a2,a4
   174e8:	86be                	mv	a3,a5
   174ea:	c4ba                	sw	a4,72(sp)
   174ec:	c0be                	sw	a5,64(sp)
   174ee:	522040ef          	jal	1ba10 <__muldf3>
   174f2:	00007697          	auipc	a3,0x7
   174f6:	26e68693          	add	a3,a3,622 # 1e760 <__SDATA_BEGIN__+0x58>
   174fa:	4290                	lw	a2,0(a3)
   174fc:	42d4                	lw	a3,4(a3)
   174fe:	64a030ef          	jal	1ab48 <__adddf3>
   17502:	fcc006b7          	lui	a3,0xfcc00
   17506:	4786                	lw	a5,64(sp)
   17508:	4726                	lw	a4,72(sp)
   1750a:	8caa                	mv	s9,a0
   1750c:	00b68bb3          	add	s7,a3,a1
   17510:	220c0863          	beqz	s8,17740 <_dtoa_r+0x56a>
   17514:	5682                	lw	a3,32(sp)
   17516:	c4e2                	sw	s8,72(sp)
   17518:	ceb6                	sw	a3,92(sp)
   1751a:	853a                	mv	a0,a4
   1751c:	85be                	mv	a1,a5
   1751e:	c6ba                	sw	a4,76(sp)
   17520:	c0be                	sw	a5,64(sp)
   17522:	196050ef          	jal	1c6b8 <__fixdfsi>
   17526:	47a6                	lw	a5,72(sp)
   17528:	892a                	mv	s2,a0
   1752a:	cce6                	sw	s9,88(sp)
   1752c:	fff78693          	add	a3,a5,-1
   17530:	068e                	sll	a3,a3,0x3
   17532:	00006797          	auipc	a5,0x6
   17536:	15e78793          	add	a5,a5,350 # 1d690 <__mprec_tens>
   1753a:	96be                	add	a3,a3,a5
   1753c:	429c                	lw	a5,0(a3)
   1753e:	0046a803          	lw	a6,4(a3) # fcc00004 <__BSS_END__+0xfcbe1280>
   17542:	001a8d13          	add	s10,s5,1
   17546:	c8be                	sw	a5,80(sp)
   17548:	cac2                	sw	a6,84(sp)
   1754a:	1d4050ef          	jal	1c71e <__floatsidf>
   1754e:	4736                	lw	a4,76(sp)
   17550:	4786                	lw	a5,64(sp)
   17552:	862a                	mv	a2,a0
   17554:	86ae                	mv	a3,a1
   17556:	853a                	mv	a0,a4
   17558:	85be                	mv	a1,a5
   1755a:	1d5040ef          	jal	1bf2e <__subdf3>
   1755e:	5722                	lw	a4,40(sp)
   17560:	03090313          	add	t1,s2,48
   17564:	c0ea                	sw	s10,64(sp)
   17566:	8caa                	mv	s9,a0
   17568:	0ff37313          	zext.b	t1,t1
   1756c:	140705e3          	beqz	a4,17eb6 <_dtoa_r+0xce0>
   17570:	00007797          	auipc	a5,0x7
   17574:	1b078793          	add	a5,a5,432 # 1e720 <__SDATA_BEGIN__+0x18>
   17578:	4388                	lw	a0,0(a5)
   1757a:	4646                	lw	a2,80(sp)
   1757c:	46d6                	lw	a3,84(sp)
   1757e:	c0ae                	sw	a1,64(sp)
   17580:	43cc                	lw	a1,4(a5)
   17582:	c69a                	sw	t1,76(sp)
   17584:	4e1030ef          	jal	1b264 <__divdf3>
   17588:	4666                	lw	a2,88(sp)
   1758a:	86de                	mv	a3,s7
   1758c:	1a3040ef          	jal	1bf2e <__subdf3>
   17590:	4886                	lw	a7,64(sp)
   17592:	4336                	lw	t1,76(sp)
   17594:	8666                	mv	a2,s9
   17596:	86c6                	mv	a3,a7
   17598:	006a8023          	sb	t1,0(s5)
   1759c:	892a                	mv	s2,a0
   1759e:	8bae                	mv	s7,a1
   175a0:	2f0040ef          	jal	1b890 <__gedf2>
   175a4:	4886                	lw	a7,64(sp)
   175a6:	2aa045e3          	bgtz	a0,18050 <_dtoa_r+0xe7a>
   175aa:	00007697          	auipc	a3,0x7
   175ae:	1a668693          	add	a3,a3,422 # 1e750 <__SDATA_BEGIN__+0x48>
   175b2:	429c                	lw	a5,0(a3)
   175b4:	0046a803          	lw	a6,4(a3)
   175b8:	c6ce                	sw	s3,76(sp)
   175ba:	c0be                	sw	a5,64(sp)
   175bc:	4781                	li	a5,0
   175be:	c8da                	sw	s6,80(sp)
   175c0:	cce2                	sw	s8,88(sp)
   175c2:	c2c2                	sw	a6,68(sp)
   175c4:	4c26                	lw	s8,72(sp)
   175c6:	8b3e                	mv	s6,a5
   175c8:	c4d2                	sw	s4,72(sp)
   175ca:	89c6                	mv	s3,a7
   175cc:	a0a5                	j	17634 <_dtoa_r+0x45e>
   175ce:	0b05                	add	s6,s6,1
   175d0:	2b8b5ae3          	bge	s6,s8,18084 <_dtoa_r+0xeae>
   175d4:	00007a17          	auipc	s4,0x7
   175d8:	184a0a13          	add	s4,s4,388 # 1e758 <__SDATA_BEGIN__+0x50>
   175dc:	000a2603          	lw	a2,0(s4)
   175e0:	004a2683          	lw	a3,4(s4)
   175e4:	854a                	mv	a0,s2
   175e6:	85de                	mv	a1,s7
   175e8:	428040ef          	jal	1ba10 <__muldf3>
   175ec:	000a2603          	lw	a2,0(s4)
   175f0:	004a2683          	lw	a3,4(s4)
   175f4:	892a                	mv	s2,a0
   175f6:	8bae                	mv	s7,a1
   175f8:	8566                	mv	a0,s9
   175fa:	85ce                	mv	a1,s3
   175fc:	414040ef          	jal	1ba10 <__muldf3>
   17600:	8cae                	mv	s9,a1
   17602:	8a2a                	mv	s4,a0
   17604:	0b4050ef          	jal	1c6b8 <__fixdfsi>
   17608:	89aa                	mv	s3,a0
   1760a:	114050ef          	jal	1c71e <__floatsidf>
   1760e:	862a                	mv	a2,a0
   17610:	86ae                	mv	a3,a1
   17612:	8552                	mv	a0,s4
   17614:	85e6                	mv	a1,s9
   17616:	119040ef          	jal	1bf2e <__subdf3>
   1761a:	03098793          	add	a5,s3,48
   1761e:	864a                	mv	a2,s2
   17620:	86de                	mv	a3,s7
   17622:	00fd0023          	sb	a5,0(s10)
   17626:	0d05                	add	s10,s10,1
   17628:	8caa                	mv	s9,a0
   1762a:	89ae                	mv	s3,a1
   1762c:	322040ef          	jal	1b94e <__ledf2>
   17630:	220540e3          	bltz	a0,18050 <_dtoa_r+0xe7a>
   17634:	4506                	lw	a0,64(sp)
   17636:	4596                	lw	a1,68(sp)
   17638:	8666                	mv	a2,s9
   1763a:	86ce                	mv	a3,s3
   1763c:	0f3040ef          	jal	1bf2e <__subdf3>
   17640:	864a                	mv	a2,s2
   17642:	86de                	mv	a3,s7
   17644:	30a040ef          	jal	1b94e <__ledf2>
   17648:	f80553e3          	bgez	a0,175ce <_dtoa_r+0x3f8>
   1764c:	47f6                	lw	a5,92(sp)
   1764e:	8bea                	mv	s7,s10
   17650:	00178c13          	add	s8,a5,1
   17654:	03900613          	li	a2,57
   17658:	a019                	j	1765e <_dtoa_r+0x488>
   1765a:	1d7a8be3          	beq	s5,s7,18030 <_dtoa_r+0xe5a>
   1765e:	fffbc683          	lbu	a3,-1(s7)
   17662:	8d5e                	mv	s10,s7
   17664:	1bfd                	add	s7,s7,-1
   17666:	fec68ae3          	beq	a3,a2,1765a <_dtoa_r+0x484>
   1766a:	0685                	add	a3,a3,1
   1766c:	0ff6f693          	zext.b	a3,a3
   17670:	00db8023          	sb	a3,0(s7)
   17674:	8a62                	mv	s4,s8
   17676:	aeb9                	j	179d4 <_dtoa_r+0x7fe>
   17678:	46b2                	lw	a3,12(sp)
   1767a:	6709                	lui	a4,0x2
   1767c:	00c99793          	sll	a5,s3,0xc
   17680:	70f70713          	add	a4,a4,1807 # 270f <exit-0xd985>
   17684:	83b1                	srl	a5,a5,0xc
   17686:	c298                	sw	a4,0(a3)
   17688:	01b7e7b3          	or	a5,a5,s11
   1768c:	c3bd                	beqz	a5,176f2 <_dtoa_r+0x51c>
   1768e:	47a2                	lw	a5,8(sp)
   17690:	00005a97          	auipc	s5,0x5
   17694:	5c0a8a93          	add	s5,s5,1472 # 1cc50 <__trunctfdf2+0x452>
   17698:	bc078de3          	beqz	a5,17272 <_dtoa_r+0x9c>
   1769c:	00005797          	auipc	a5,0x5
   176a0:	5b778793          	add	a5,a5,1463 # 1cc53 <__trunctfdf2+0x455>
   176a4:	4722                	lw	a4,8(sp)
   176a6:	c31c                	sw	a5,0(a4)
   176a8:	b6e9                	j	17272 <_dtoa_r+0x9c>
   176aa:	47f2                	lw	a5,28(sp)
   176ac:	3ff006b7          	lui	a3,0x3ff00
   176b0:	5aa6                	lw	s5,104(sp)
   176b2:	07b2                	sll	a5,a5,0xc
   176b4:	83b1                	srl	a5,a5,0xc
   176b6:	4762                	lw	a4,24(sp)
   176b8:	8fd5                	or	a5,a5,a3
   176ba:	c0190913          	add	s2,s2,-1023
   176be:	dc02                	sw	zero,56(sp)
   176c0:	b10d                	j	172e2 <_dtoa_r+0x10c>
   176c2:	4785                	li	a5,1
   176c4:	415787b3          	sub	a5,a5,s5
   176c8:	c83e                	sw	a5,16(sp)
   176ca:	4b01                	li	s6,0
   176cc:	cc09cde3          	bltz	s3,173a6 <_dtoa_r+0x1d0>
   176d0:	d04e                	sw	s3,32(sp)
   176d2:	d802                	sw	zero,48(sp)
   176d4:	47a5                	li	a5,9
   176d6:	9b4e                	add	s6,s6,s3
   176d8:	cf47f3e3          	bgeu	a5,s4,173be <_dtoa_r+0x1e8>
   176dc:	4785                	li	a5,1
   176de:	4905                	li	s2,1
   176e0:	4a01                	li	s4,0
   176e2:	d43e                	sw	a5,40(sp)
   176e4:	5c7d                	li	s8,-1
   176e6:	ca02                	sw	zero,20(sp)
   176e8:	02042e23          	sw	zero,60(s0)
   176ec:	de62                	sw	s8,60(sp)
   176ee:	4581                	li	a1,0
   176f0:	bb01                	j	17400 <_dtoa_r+0x22a>
   176f2:	4722                	lw	a4,8(sp)
   176f4:	00005a97          	auipc	s5,0x5
   176f8:	550a8a93          	add	s5,s5,1360 # 1cc44 <__trunctfdf2+0x446>
   176fc:	00005797          	auipc	a5,0x5
   17700:	55078793          	add	a5,a5,1360 # 1cc4c <__trunctfdf2+0x44e>
   17704:	f345                	bnez	a4,176a4 <_dtoa_r+0x4ce>
   17706:	b6b5                	j	17272 <_dtoa_r+0x9c>
   17708:	854a                	mv	a0,s2
   1770a:	c6be                	sw	a5,76(sp)
   1770c:	c0ba                	sw	a4,64(sp)
   1770e:	010050ef          	jal	1c71e <__floatsidf>
   17712:	4706                	lw	a4,64(sp)
   17714:	47b6                	lw	a5,76(sp)
   17716:	863a                	mv	a2,a4
   17718:	86be                	mv	a3,a5
   1771a:	c4ba                	sw	a4,72(sp)
   1771c:	c0be                	sw	a5,64(sp)
   1771e:	2f2040ef          	jal	1ba10 <__muldf3>
   17722:	00007697          	auipc	a3,0x7
   17726:	03e68693          	add	a3,a3,62 # 1e760 <__SDATA_BEGIN__+0x58>
   1772a:	4290                	lw	a2,0(a3)
   1772c:	42d4                	lw	a3,4(a3)
   1772e:	41a030ef          	jal	1ab48 <__adddf3>
   17732:	4786                	lw	a5,64(sp)
   17734:	4726                	lw	a4,72(sp)
   17736:	fcc006b7          	lui	a3,0xfcc00
   1773a:	8caa                	mv	s9,a0
   1773c:	00b68bb3          	add	s7,a3,a1
   17740:	00007697          	auipc	a3,0x7
   17744:	02868693          	add	a3,a3,40 # 1e768 <__SDATA_BEGIN__+0x60>
   17748:	4290                	lw	a2,0(a3)
   1774a:	42d4                	lw	a3,4(a3)
   1774c:	853a                	mv	a0,a4
   1774e:	85be                	mv	a1,a5
   17750:	7de040ef          	jal	1bf2e <__subdf3>
   17754:	8666                	mv	a2,s9
   17756:	86de                	mv	a3,s7
   17758:	8d2a                	mv	s10,a0
   1775a:	892e                	mv	s2,a1
   1775c:	134040ef          	jal	1b890 <__gedf2>
   17760:	0ca04de3          	bgtz	a0,1803a <_dtoa_r+0xe64>
   17764:	800007b7          	lui	a5,0x80000
   17768:	0177c7b3          	xor	a5,a5,s7
   1776c:	8666                	mv	a2,s9
   1776e:	856a                	mv	a0,s10
   17770:	86be                	mv	a3,a5
   17772:	85ca                	mv	a1,s2
   17774:	1da040ef          	jal	1b94e <__ledf2>
   17778:	04054e63          	bltz	a0,177d4 <_dtoa_r+0x5fe>
   1777c:	57b6                	lw	a5,108(sp)
   1777e:	1207c263          	bltz	a5,178a2 <_dtoa_r+0x6cc>
   17782:	5682                	lw	a3,32(sp)
   17784:	4739                	li	a4,14
   17786:	10d74e63          	blt	a4,a3,178a2 <_dtoa_r+0x6cc>
   1778a:	5782                	lw	a5,32(sp)
   1778c:	00379713          	sll	a4,a5,0x3
   17790:	00006797          	auipc	a5,0x6
   17794:	f0078793          	add	a5,a5,-256 # 1d690 <__mprec_tens>
   17798:	97ba                	add	a5,a5,a4
   1779a:	0007a903          	lw	s2,0(a5)
   1779e:	0047a983          	lw	s3,4(a5)
   177a2:	47d2                	lw	a5,20(sp)
   177a4:	0207df63          	bgez	a5,177e2 <_dtoa_r+0x60c>
   177a8:	03804d63          	bgtz	s8,177e2 <_dtoa_r+0x60c>
   177ac:	020c1463          	bnez	s8,177d4 <_dtoa_r+0x5fe>
   177b0:	00007797          	auipc	a5,0x7
   177b4:	fb878793          	add	a5,a5,-72 # 1e768 <__SDATA_BEGIN__+0x60>
   177b8:	4390                	lw	a2,0(a5)
   177ba:	43d4                	lw	a3,4(a5)
   177bc:	854a                	mv	a0,s2
   177be:	85ce                	mv	a1,s3
   177c0:	250040ef          	jal	1ba10 <__muldf3>
   177c4:	862a                	mv	a2,a0
   177c6:	86ae                	mv	a3,a1
   177c8:	4562                	lw	a0,24(sp)
   177ca:	45f2                	lw	a1,28(sp)
   177cc:	182040ef          	jal	1b94e <__ledf2>
   177d0:	06a045e3          	bgtz	a0,1803a <_dtoa_r+0xe64>
   177d4:	8d56                	mv	s10,s5
   177d6:	cc02                	sw	zero,24(sp)
   177d8:	4901                	li	s2,0
   177da:	47d2                	lw	a5,20(sp)
   177dc:	fff7ca13          	not	s4,a5
   177e0:	a9a5                	j	17c58 <_dtoa_r+0xa82>
   177e2:	001a8793          	add	a5,s5,1
   177e6:	c0be                	sw	a5,64(sp)
   177e8:	4b62                	lw	s6,24(sp)
   177ea:	4a72                	lw	s4,28(sp)
   177ec:	864a                	mv	a2,s2
   177ee:	86ce                	mv	a3,s3
   177f0:	855a                	mv	a0,s6
   177f2:	85d2                	mv	a1,s4
   177f4:	271030ef          	jal	1b264 <__divdf3>
   177f8:	6c1040ef          	jal	1c6b8 <__fixdfsi>
   177fc:	8d2a                	mv	s10,a0
   177fe:	721040ef          	jal	1c71e <__floatsidf>
   17802:	864a                	mv	a2,s2
   17804:	86ce                	mv	a3,s3
   17806:	20a040ef          	jal	1ba10 <__muldf3>
   1780a:	862a                	mv	a2,a0
   1780c:	86ae                	mv	a3,a1
   1780e:	855a                	mv	a0,s6
   17810:	85d2                	mv	a1,s4
   17812:	71c040ef          	jal	1bf2e <__subdf3>
   17816:	030d0793          	add	a5,s10,48
   1781a:	00fa8023          	sb	a5,0(s5)
   1781e:	4605                	li	a2,1
   17820:	4b86                	lw	s7,64(sp)
   17822:	872a                	mv	a4,a0
   17824:	86ae                	mv	a3,a1
   17826:	5ecc0a63          	beq	s8,a2,17e1a <_dtoa_r+0xc44>
   1782a:	00007617          	auipc	a2,0x7
   1782e:	f2e60613          	add	a2,a2,-210 # 1e758 <__SDATA_BEGIN__+0x50>
   17832:	421c                	lw	a5,0(a2)
   17834:	00462803          	lw	a6,4(a2)
   17838:	4d85                	li	s11,1
   1783a:	c03e                	sw	a5,0(sp)
   1783c:	c242                	sw	a6,4(sp)
   1783e:	a081                	j	1787e <_dtoa_r+0x6a8>
   17840:	864a                	mv	a2,s2
   17842:	86ce                	mv	a3,s3
   17844:	855a                	mv	a0,s6
   17846:	85d2                	mv	a1,s4
   17848:	21d030ef          	jal	1b264 <__divdf3>
   1784c:	66d040ef          	jal	1c6b8 <__fixdfsi>
   17850:	8d2a                	mv	s10,a0
   17852:	6cd040ef          	jal	1c71e <__floatsidf>
   17856:	864a                	mv	a2,s2
   17858:	86ce                	mv	a3,s3
   1785a:	1b6040ef          	jal	1ba10 <__muldf3>
   1785e:	86ae                	mv	a3,a1
   17860:	862a                	mv	a2,a0
   17862:	85d2                	mv	a1,s4
   17864:	855a                	mv	a0,s6
   17866:	6c8040ef          	jal	1bf2e <__subdf3>
   1786a:	0b85                	add	s7,s7,1
   1786c:	030d0793          	add	a5,s10,48
   17870:	0d85                	add	s11,s11,1
   17872:	fefb8fa3          	sb	a5,-1(s7)
   17876:	872a                	mv	a4,a0
   17878:	86ae                	mv	a3,a1
   1787a:	5bbc0063          	beq	s8,s11,17e1a <_dtoa_r+0xc44>
   1787e:	4602                	lw	a2,0(sp)
   17880:	85b6                	mv	a1,a3
   17882:	4692                	lw	a3,4(sp)
   17884:	853a                	mv	a0,a4
   17886:	18a040ef          	jal	1ba10 <__muldf3>
   1788a:	4601                	li	a2,0
   1788c:	4681                	li	a3,0
   1788e:	8b2a                	mv	s6,a0
   17890:	8a2e                	mv	s4,a1
   17892:	793030ef          	jal	1b824 <__eqdf2>
   17896:	f54d                	bnez	a0,17840 <_dtoa_r+0x66a>
   17898:	5782                	lw	a5,32(sp)
   1789a:	8d5e                	mv	s10,s7
   1789c:	00178a13          	add	s4,a5,1
   178a0:	aa15                	j	179d4 <_dtoa_r+0x7fe>
   178a2:	5722                	lw	a4,40(sp)
   178a4:	18071f63          	bnez	a4,17a42 <_dtoa_r+0x86c>
   178a8:	5bc2                	lw	s7,48(sp)
   178aa:	4cc2                	lw	s9,16(sp)
   178ac:	d402                	sw	zero,40(sp)
   178ae:	4901                	li	s2,0
   178b0:	000c8e63          	beqz	s9,178cc <_dtoa_r+0x6f6>
   178b4:	01605c63          	blez	s6,178cc <_dtoa_r+0x6f6>
   178b8:	87e6                	mv	a5,s9
   178ba:	459b4963          	blt	s6,s9,17d0c <_dtoa_r+0xb36>
   178be:	4742                	lw	a4,16(sp)
   178c0:	40fc8cb3          	sub	s9,s9,a5
   178c4:	40fb0b33          	sub	s6,s6,a5
   178c8:	8f1d                	sub	a4,a4,a5
   178ca:	c83a                	sw	a4,16(sp)
   178cc:	57c2                	lw	a5,48(sp)
   178ce:	cb99                	beqz	a5,178e4 <_dtoa_r+0x70e>
   178d0:	57a2                	lw	a5,40(sp)
   178d2:	c399                	beqz	a5,178d8 <_dtoa_r+0x702>
   178d4:	5a0b9963          	bnez	s7,17e86 <_dtoa_r+0xcb0>
   178d8:	5642                	lw	a2,48(sp)
   178da:	85a6                	mv	a1,s1
   178dc:	8522                	mv	a0,s0
   178de:	492010ef          	jal	18d70 <__pow5mult>
   178e2:	84aa                	mv	s1,a0
   178e4:	4585                	li	a1,1
   178e6:	8522                	mv	a0,s0
   178e8:	282010ef          	jal	18b6a <__i2b>
   178ec:	cc2a                	sw	a0,24(sp)
   178ee:	36099d63          	bnez	s3,17c68 <_dtoa_r+0xa92>
   178f2:	4785                	li	a5,1
   178f4:	3b47d063          	bge	a5,s4,17c94 <_dtoa_r+0xabe>
   178f8:	97da                	add	a5,a5,s6
   178fa:	8bfd                	and	a5,a5,31
   178fc:	14078163          	beqz	a5,17a3e <_dtoa_r+0x868>
   17900:	02000713          	li	a4,32
   17904:	8f1d                	sub	a4,a4,a5
   17906:	4691                	li	a3,4
   17908:	3ae6dc63          	bge	a3,a4,17cc0 <_dtoa_r+0xaea>
   1790c:	4771                	li	a4,28
   1790e:	40f707b3          	sub	a5,a4,a5
   17912:	4742                	lw	a4,16(sp)
   17914:	9cbe                	add	s9,s9,a5
   17916:	9b3e                	add	s6,s6,a5
   17918:	973e                	add	a4,a4,a5
   1791a:	c83a                	sw	a4,16(sp)
   1791c:	47c2                	lw	a5,16(sp)
   1791e:	0cf04f63          	bgtz	a5,179fc <_dtoa_r+0x826>
   17922:	01605863          	blez	s6,17932 <_dtoa_r+0x75c>
   17926:	45e2                	lw	a1,24(sp)
   17928:	865a                	mv	a2,s6
   1792a:	8522                	mv	a0,s0
   1792c:	51e010ef          	jal	18e4a <__lshift>
   17930:	cc2a                	sw	a0,24(sp)
   17932:	57d2                	lw	a5,52(sp)
   17934:	ebf9                	bnez	a5,17a0a <_dtoa_r+0x834>
   17936:	2f805563          	blez	s8,17c20 <_dtoa_r+0xa4a>
   1793a:	57a2                	lw	a5,40(sp)
   1793c:	18079c63          	bnez	a5,17ad4 <_dtoa_r+0x8fe>
   17940:	5782                	lw	a5,32(sp)
   17942:	00178a13          	add	s4,a5,1
   17946:	4b62                	lw	s6,24(sp)
   17948:	4985                	li	s3,1
   1794a:	a809                	j	1795c <_dtoa_r+0x786>
   1794c:	85a6                	mv	a1,s1
   1794e:	4681                	li	a3,0
   17950:	4629                	li	a2,10
   17952:	8522                	mv	a0,s0
   17954:	785000ef          	jal	188d8 <__multadd>
   17958:	84aa                	mv	s1,a0
   1795a:	0985                	add	s3,s3,1
   1795c:	85da                	mv	a1,s6
   1795e:	8526                	mv	a0,s1
   17960:	f2eff0ef          	jal	1708e <quorem>
   17964:	03050b93          	add	s7,a0,48
   17968:	013a87b3          	add	a5,s5,s3
   1796c:	ff778fa3          	sb	s7,-1(a5)
   17970:	fd89cee3          	blt	s3,s8,1794c <_dtoa_r+0x776>
   17974:	4985                	li	s3,1
   17976:	39804963          	bgtz	s8,17d08 <_dtoa_r+0xb32>
   1797a:	99d6                	add	s3,s3,s5
   1797c:	4c01                	li	s8,0
   1797e:	85a6                	mv	a1,s1
   17980:	4605                	li	a2,1
   17982:	8522                	mv	a0,s0
   17984:	4c6010ef          	jal	18e4a <__lshift>
   17988:	45e2                	lw	a1,24(sp)
   1798a:	84aa                	mv	s1,a0
   1798c:	5d0010ef          	jal	18f5c <__mcmp>
   17990:	34a05e63          	blez	a0,17cec <_dtoa_r+0xb16>
   17994:	03900693          	li	a3,57
   17998:	a019                	j	1799e <_dtoa_r+0x7c8>
   1799a:	3f3a8c63          	beq	s5,s3,17d92 <_dtoa_r+0xbbc>
   1799e:	fff9c783          	lbu	a5,-1(s3)
   179a2:	8d4e                	mv	s10,s3
   179a4:	19fd                	add	s3,s3,-1
   179a6:	fed78ae3          	beq	a5,a3,1799a <_dtoa_r+0x7c4>
   179aa:	0785                	add	a5,a5,1
   179ac:	00f98023          	sb	a5,0(s3)
   179b0:	45e2                	lw	a1,24(sp)
   179b2:	8522                	mv	a0,s0
   179b4:	713000ef          	jal	188c6 <_Bfree>
   179b8:	00090e63          	beqz	s2,179d4 <_dtoa_r+0x7fe>
   179bc:	000c0863          	beqz	s8,179cc <_dtoa_r+0x7f6>
   179c0:	012c0663          	beq	s8,s2,179cc <_dtoa_r+0x7f6>
   179c4:	85e2                	mv	a1,s8
   179c6:	8522                	mv	a0,s0
   179c8:	6ff000ef          	jal	188c6 <_Bfree>
   179cc:	85ca                	mv	a1,s2
   179ce:	8522                	mv	a0,s0
   179d0:	6f7000ef          	jal	188c6 <_Bfree>
   179d4:	85a6                	mv	a1,s1
   179d6:	8522                	mv	a0,s0
   179d8:	6ef000ef          	jal	188c6 <_Bfree>
   179dc:	47b2                	lw	a5,12(sp)
   179de:	000d0023          	sb	zero,0(s10)
   179e2:	0147a023          	sw	s4,0(a5)
   179e6:	47a2                	lw	a5,8(sp)
   179e8:	c399                	beqz	a5,179ee <_dtoa_r+0x818>
   179ea:	01a7a023          	sw	s10,0(a5)
   179ee:	4b4a                	lw	s6,144(sp)
   179f0:	4bba                	lw	s7,140(sp)
   179f2:	4c2a                	lw	s8,136(sp)
   179f4:	4c9a                	lw	s9,132(sp)
   179f6:	4d0a                	lw	s10,128(sp)
   179f8:	87bff06f          	j	17272 <_dtoa_r+0x9c>
   179fc:	85a6                	mv	a1,s1
   179fe:	863e                	mv	a2,a5
   17a00:	8522                	mv	a0,s0
   17a02:	448010ef          	jal	18e4a <__lshift>
   17a06:	84aa                	mv	s1,a0
   17a08:	bf29                	j	17922 <_dtoa_r+0x74c>
   17a0a:	45e2                	lw	a1,24(sp)
   17a0c:	8526                	mv	a0,s1
   17a0e:	54e010ef          	jal	18f5c <__mcmp>
   17a12:	f20552e3          	bgez	a0,17936 <_dtoa_r+0x760>
   17a16:	5782                	lw	a5,32(sp)
   17a18:	85a6                	mv	a1,s1
   17a1a:	4681                	li	a3,0
   17a1c:	4629                	li	a2,10
   17a1e:	8522                	mv	a0,s0
   17a20:	fff78b13          	add	s6,a5,-1
   17a24:	6b5000ef          	jal	188d8 <__multadd>
   17a28:	57a2                	lw	a5,40(sp)
   17a2a:	84aa                	mv	s1,a0
   17a2c:	ebc9                	bnez	a5,17abe <_dtoa_r+0x8e8>
   17a2e:	5c72                	lw	s8,60(sp)
   17a30:	67805063          	blez	s8,18090 <_dtoa_r+0xeba>
   17a34:	5a02                	lw	s4,32(sp)
   17a36:	bf01                	j	17946 <_dtoa_r+0x770>
   17a38:	4785                	li	a5,1
   17a3a:	da3e                	sw	a5,52(sp)
   17a3c:	b285                	j	1739c <_dtoa_r+0x1c6>
   17a3e:	47f1                	li	a5,28
   17a40:	bdc9                	j	17912 <_dtoa_r+0x73c>
   17a42:	4705                	li	a4,1
   17a44:	33475b63          	bge	a4,s4,17d7a <_dtoa_r+0xba4>
   17a48:	57c2                	lw	a5,48(sp)
   17a4a:	fffc0b93          	add	s7,s8,-1
   17a4e:	2d77c163          	blt	a5,s7,17d10 <_dtoa_r+0xb3a>
   17a52:	41778bb3          	sub	s7,a5,s7
   17a56:	47c2                	lw	a5,16(sp)
   17a58:	41878cb3          	sub	s9,a5,s8
   17a5c:	600c5a63          	bgez	s8,18070 <_dtoa_r+0xe9a>
   17a60:	4585                	li	a1,1
   17a62:	8522                	mv	a0,s0
   17a64:	106010ef          	jal	18b6a <__i2b>
   17a68:	892a                	mv	s2,a0
   17a6a:	b599                	j	178b0 <_dtoa_r+0x6da>
   17a6c:	da02                	sw	zero,52(sp)
   17a6e:	c802                	sw	zero,16(sp)
   17a70:	c75040e3          	bgtz	s5,176d0 <_dtoa_r+0x4fa>
   17a74:	4785                	li	a5,1
   17a76:	415787b3          	sub	a5,a5,s5
   17a7a:	c83e                	sw	a5,16(sp)
   17a7c:	4b01                	li	s6,0
   17a7e:	b989                	j	176d0 <_dtoa_r+0x4fa>
   17a80:	8f99                	sub	a5,a5,a4
   17a82:	00fd9533          	sll	a0,s11,a5
   17a86:	84bff06f          	j	172d0 <_dtoa_r+0xfa>
   17a8a:	478d                	li	a5,3
   17a8c:	4905                	li	s2,1
   17a8e:	2efa0463          	beq	s4,a5,17d76 <_dtoa_r+0xba0>
   17a92:	9547c0e3          	blt	a5,s4,173d2 <_dtoa_r+0x1fc>
   17a96:	4789                	li	a5,2
   17a98:	66fa0663          	beq	s4,a5,18104 <_dtoa_r+0xf2e>
   17a9c:	02042e23          	sw	zero,60(s0)
   17aa0:	4581                	li	a1,0
   17aa2:	8522                	mv	a0,s0
   17aa4:	5b7000ef          	jal	1885a <_Balloc>
   17aa8:	8aaa                	mv	s5,a0
   17aaa:	62050b63          	beqz	a0,180e0 <_dtoa_r+0xf0a>
   17aae:	4785                	li	a5,1
   17ab0:	d43e                	sw	a5,40(sp)
   17ab2:	57fd                	li	a5,-1
   17ab4:	dc08                	sw	a0,56(s0)
   17ab6:	de3e                	sw	a5,60(sp)
   17ab8:	5c7d                	li	s8,-1
   17aba:	ca02                	sw	zero,20(sp)
   17abc:	b1c1                	j	1777c <_dtoa_r+0x5a6>
   17abe:	85ca                	mv	a1,s2
   17ac0:	4681                	li	a3,0
   17ac2:	4629                	li	a2,10
   17ac4:	8522                	mv	a0,s0
   17ac6:	613000ef          	jal	188d8 <__multadd>
   17aca:	5c72                	lw	s8,60(sp)
   17acc:	892a                	mv	s2,a0
   17ace:	5d805d63          	blez	s8,180a8 <_dtoa_r+0xed2>
   17ad2:	d05a                	sw	s6,32(sp)
   17ad4:	01905863          	blez	s9,17ae4 <_dtoa_r+0x90e>
   17ad8:	85ca                	mv	a1,s2
   17ada:	8666                	mv	a2,s9
   17adc:	8522                	mv	a0,s0
   17ade:	36c010ef          	jal	18e4a <__lshift>
   17ae2:	892a                	mv	s2,a0
   17ae4:	8b4a                	mv	s6,s2
   17ae6:	36099863          	bnez	s3,17e56 <_dtoa_r+0xc80>
   17aea:	5792                	lw	a5,36(sp)
   17aec:	fffa8d13          	add	s10,s5,-1
   17af0:	8cd6                	mv	s9,s5
   17af2:	c856                	sw	s5,16(sp)
   17af4:	4ae2                	lw	s5,24(sp)
   17af6:	8b85                	and	a5,a5,1
   17af8:	9d62                	add	s10,s10,s8
   17afa:	c03e                	sw	a5,0(sp)
   17afc:	ca6e                	sw	s11,20(sp)
   17afe:	85d6                	mv	a1,s5
   17b00:	8526                	mv	a0,s1
   17b02:	d8cff0ef          	jal	1708e <quorem>
   17b06:	8c2a                	mv	s8,a0
   17b08:	85ca                	mv	a1,s2
   17b0a:	8526                	mv	a0,s1
   17b0c:	450010ef          	jal	18f5c <__mcmp>
   17b10:	89aa                	mv	s3,a0
   17b12:	865a                	mv	a2,s6
   17b14:	85d6                	mv	a1,s5
   17b16:	8522                	mv	a0,s0
   17b18:	480010ef          	jal	18f98 <__mdiff>
   17b1c:	4558                	lw	a4,12(a0)
   17b1e:	030c0b93          	add	s7,s8,48
   17b22:	8daa                	mv	s11,a0
   17b24:	e335                	bnez	a4,17b88 <_dtoa_r+0x9b2>
   17b26:	85aa                	mv	a1,a0
   17b28:	8526                	mv	a0,s1
   17b2a:	432010ef          	jal	18f5c <__mcmp>
   17b2e:	872a                	mv	a4,a0
   17b30:	85ee                	mv	a1,s11
   17b32:	8522                	mv	a0,s0
   17b34:	8dba                	mv	s11,a4
   17b36:	591000ef          	jal	188c6 <_Bfree>
   17b3a:	014de6b3          	or	a3,s11,s4
   17b3e:	e6cd                	bnez	a3,17be8 <_dtoa_r+0xa12>
   17b40:	4782                	lw	a5,0(sp)
   17b42:	50078b63          	beqz	a5,18058 <_dtoa_r+0xe82>
   17b46:	5209c163          	bltz	s3,18068 <_dtoa_r+0xe92>
   17b4a:	017c8023          	sb	s7,0(s9)
   17b4e:	001c8993          	add	s3,s9,1
   17b52:	479d0163          	beq	s10,s9,17fb4 <_dtoa_r+0xdde>
   17b56:	85a6                	mv	a1,s1
   17b58:	4681                	li	a3,0
   17b5a:	4629                	li	a2,10
   17b5c:	8522                	mv	a0,s0
   17b5e:	57b000ef          	jal	188d8 <__multadd>
   17b62:	84aa                	mv	s1,a0
   17b64:	4681                	li	a3,0
   17b66:	4629                	li	a2,10
   17b68:	85ca                	mv	a1,s2
   17b6a:	8522                	mv	a0,s0
   17b6c:	07690863          	beq	s2,s6,17bdc <_dtoa_r+0xa06>
   17b70:	569000ef          	jal	188d8 <__multadd>
   17b74:	85da                	mv	a1,s6
   17b76:	892a                	mv	s2,a0
   17b78:	4681                	li	a3,0
   17b7a:	4629                	li	a2,10
   17b7c:	8522                	mv	a0,s0
   17b7e:	55b000ef          	jal	188d8 <__multadd>
   17b82:	8b2a                	mv	s6,a0
   17b84:	8cce                	mv	s9,s3
   17b86:	bfa5                	j	17afe <_dtoa_r+0x928>
   17b88:	85aa                	mv	a1,a0
   17b8a:	8522                	mv	a0,s0
   17b8c:	4ac2                	lw	s5,16(sp)
   17b8e:	4dd2                	lw	s11,20(sp)
   17b90:	537000ef          	jal	188c6 <_Bfree>
   17b94:	0009c963          	bltz	s3,17ba6 <_dtoa_r+0x9d0>
   17b98:	001df713          	and	a4,s11,1
   17b9c:	0149e9b3          	or	s3,s3,s4
   17ba0:	01376733          	or	a4,a4,s3
   17ba4:	ef31                	bnez	a4,17c00 <_dtoa_r+0xa2a>
   17ba6:	85a6                	mv	a1,s1
   17ba8:	4605                	li	a2,1
   17baa:	8522                	mv	a0,s0
   17bac:	29e010ef          	jal	18e4a <__lshift>
   17bb0:	45e2                	lw	a1,24(sp)
   17bb2:	84aa                	mv	s1,a0
   17bb4:	3a8010ef          	jal	18f5c <__mcmp>
   17bb8:	18a05863          	blez	a0,17d48 <_dtoa_r+0xb72>
   17bbc:	03900713          	li	a4,57
   17bc0:	18eb8b63          	beq	s7,a4,17d56 <_dtoa_r+0xb80>
   17bc4:	031c0b93          	add	s7,s8,49
   17bc8:	5782                	lw	a5,32(sp)
   17bca:	8c4a                	mv	s8,s2
   17bcc:	001c8d13          	add	s10,s9,1
   17bd0:	017c8023          	sb	s7,0(s9)
   17bd4:	00178a13          	add	s4,a5,1
   17bd8:	895a                	mv	s2,s6
   17bda:	bbd9                	j	179b0 <_dtoa_r+0x7da>
   17bdc:	4fd000ef          	jal	188d8 <__multadd>
   17be0:	892a                	mv	s2,a0
   17be2:	8b2a                	mv	s6,a0
   17be4:	8cce                	mv	s9,s3
   17be6:	bf21                	j	17afe <_dtoa_r+0x928>
   17be8:	4e09c863          	bltz	s3,180d8 <_dtoa_r+0xf02>
   17bec:	4782                	lw	a5,0(sp)
   17bee:	0149e9b3          	or	s3,s3,s4
   17bf2:	0137e9b3          	or	s3,a5,s3
   17bf6:	4e098163          	beqz	s3,180d8 <_dtoa_r+0xf02>
   17bfa:	f5b058e3          	blez	s11,17b4a <_dtoa_r+0x974>
   17bfe:	4ac2                	lw	s5,16(sp)
   17c00:	03900713          	li	a4,57
   17c04:	14eb8963          	beq	s7,a4,17d56 <_dtoa_r+0xb80>
   17c08:	5702                	lw	a4,32(sp)
   17c0a:	001b8793          	add	a5,s7,1
   17c0e:	8c4a                	mv	s8,s2
   17c10:	001c8d13          	add	s10,s9,1
   17c14:	00170a13          	add	s4,a4,1
   17c18:	00fc8023          	sb	a5,0(s9)
   17c1c:	895a                	mv	s2,s6
   17c1e:	bb49                	j	179b0 <_dtoa_r+0x7da>
   17c20:	4789                	li	a5,2
   17c22:	d147dce3          	bge	a5,s4,1793a <_dtoa_r+0x764>
   17c26:	8d56                	mv	s10,s5
   17c28:	ba0c19e3          	bnez	s8,177da <_dtoa_r+0x604>
   17c2c:	45e2                	lw	a1,24(sp)
   17c2e:	4681                	li	a3,0
   17c30:	4615                	li	a2,5
   17c32:	8522                	mv	a0,s0
   17c34:	4a5000ef          	jal	188d8 <__multadd>
   17c38:	85aa                	mv	a1,a0
   17c3a:	cc2a                	sw	a0,24(sp)
   17c3c:	8526                	mv	a0,s1
   17c3e:	31e010ef          	jal	18f5c <__mcmp>
   17c42:	b8a05ce3          	blez	a0,177da <_dtoa_r+0x604>
   17c46:	03100793          	li	a5,49
   17c4a:	00fa8023          	sb	a5,0(s5)
   17c4e:	5782                	lw	a5,32(sp)
   17c50:	001a8d13          	add	s10,s5,1
   17c54:	00178a13          	add	s4,a5,1
   17c58:	45e2                	lw	a1,24(sp)
   17c5a:	8522                	mv	a0,s0
   17c5c:	0a05                	add	s4,s4,1
   17c5e:	469000ef          	jal	188c6 <_Bfree>
   17c62:	d60915e3          	bnez	s2,179cc <_dtoa_r+0x7f6>
   17c66:	b3bd                	j	179d4 <_dtoa_r+0x7fe>
   17c68:	85aa                	mv	a1,a0
   17c6a:	864e                	mv	a2,s3
   17c6c:	8522                	mv	a0,s0
   17c6e:	102010ef          	jal	18d70 <__pow5mult>
   17c72:	4785                	li	a5,1
   17c74:	cc2a                	sw	a0,24(sp)
   17c76:	0b47da63          	bge	a5,s4,17d2a <_dtoa_r+0xb54>
   17c7a:	4981                	li	s3,0
   17c7c:	4762                	lw	a4,24(sp)
   17c7e:	4b1c                	lw	a5,16(a4)
   17c80:	078d                	add	a5,a5,3
   17c82:	078a                	sll	a5,a5,0x2
   17c84:	97ba                	add	a5,a5,a4
   17c86:	43c8                	lw	a0,4(a5)
   17c88:	605000ef          	jal	18a8c <__hi0bits>
   17c8c:	02000793          	li	a5,32
   17c90:	8f89                	sub	a5,a5,a0
   17c92:	b19d                	j	178f8 <_dtoa_r+0x722>
   17c94:	5792                	lw	a5,36(sp)
   17c96:	e39d                	bnez	a5,17cbc <_dtoa_r+0xae6>
   17c98:	4782                	lw	a5,0(sp)
   17c9a:	07b2                	sll	a5,a5,0xc
   17c9c:	e385                	bnez	a5,17cbc <_dtoa_r+0xae6>
   17c9e:	4682                	lw	a3,0(sp)
   17ca0:	4781                	li	a5,0
   17ca2:	0146d713          	srl	a4,a3,0x14
   17ca6:	7ff77713          	and	a4,a4,2047
   17caa:	c711                	beqz	a4,17cb6 <_dtoa_r+0xae0>
   17cac:	47c2                	lw	a5,16(sp)
   17cae:	0b05                	add	s6,s6,1
   17cb0:	0785                	add	a5,a5,1
   17cb2:	c83e                	sw	a5,16(sp)
   17cb4:	4785                	li	a5,1
   17cb6:	3a099b63          	bnez	s3,1806c <_dtoa_r+0xe96>
   17cba:	89be                	mv	s3,a5
   17cbc:	4785                	li	a5,1
   17cbe:	b92d                	j	178f8 <_dtoa_r+0x722>
   17cc0:	c4d70ee3          	beq	a4,a3,1791c <_dtoa_r+0x746>
   17cc4:	03c00713          	li	a4,60
   17cc8:	40f707b3          	sub	a5,a4,a5
   17ccc:	b199                	j	17912 <_dtoa_r+0x73c>
   17cce:	4785                	li	a5,1
   17cd0:	4a15                	li	s4,5
   17cd2:	d43e                	sw	a5,40(sp)
   17cd4:	47d2                	lw	a5,20(sp)
   17cd6:	5702                	lw	a4,32(sp)
   17cd8:	97ba                	add	a5,a5,a4
   17cda:	00178c13          	add	s8,a5,1
   17cde:	de3e                	sw	a5,60(sp)
   17ce0:	8662                	mv	a2,s8
   17ce2:	f1804263          	bgtz	s8,173e6 <_dtoa_r+0x210>
   17ce6:	4605                	li	a2,1
   17ce8:	efeff06f          	j	173e6 <_dtoa_r+0x210>
   17cec:	e509                	bnez	a0,17cf6 <_dtoa_r+0xb20>
   17cee:	001bf793          	and	a5,s7,1
   17cf2:	ca0791e3          	bnez	a5,17994 <_dtoa_r+0x7be>
   17cf6:	03000693          	li	a3,48
   17cfa:	fff9c783          	lbu	a5,-1(s3)
   17cfe:	8d4e                	mv	s10,s3
   17d00:	19fd                	add	s3,s3,-1
   17d02:	fed78ce3          	beq	a5,a3,17cfa <_dtoa_r+0xb24>
   17d06:	b16d                	j	179b0 <_dtoa_r+0x7da>
   17d08:	89e2                	mv	s3,s8
   17d0a:	b985                	j	1797a <_dtoa_r+0x7a4>
   17d0c:	87da                	mv	a5,s6
   17d0e:	be45                	j	178be <_dtoa_r+0x6e8>
   17d10:	57c2                	lw	a5,48(sp)
   17d12:	4742                	lw	a4,16(sp)
   17d14:	d85e                	sw	s7,48(sp)
   17d16:	40fb87b3          	sub	a5,s7,a5
   17d1a:	99be                	add	s3,s3,a5
   17d1c:	018707b3          	add	a5,a4,s8
   17d20:	8cba                	mv	s9,a4
   17d22:	9b62                	add	s6,s6,s8
   17d24:	c83e                	sw	a5,16(sp)
   17d26:	4b81                	li	s7,0
   17d28:	bb25                	j	17a60 <_dtoa_r+0x88a>
   17d2a:	5792                	lw	a5,36(sp)
   17d2c:	f7b9                	bnez	a5,17c7a <_dtoa_r+0xaa4>
   17d2e:	4782                	lw	a5,0(sp)
   17d30:	07b2                	sll	a5,a5,0xc
   17d32:	f7a1                	bnez	a5,17c7a <_dtoa_r+0xaa4>
   17d34:	b7ad                	j	17c9e <_dtoa_r+0xac8>
   17d36:	4362                	lw	t1,24(sp)
   17d38:	4d72                	lw	s10,28(sp)
   17d3a:	4909                	li	s2,2
   17d3c:	f2aff06f          	j	17466 <_dtoa_r+0x290>
   17d40:	4a09                	li	s4,2
   17d42:	d402                	sw	zero,40(sp)
   17d44:	e98ff06f          	j	173dc <_dtoa_r+0x206>
   17d48:	e80510e3          	bnez	a0,17bc8 <_dtoa_r+0x9f2>
   17d4c:	001bf713          	and	a4,s7,1
   17d50:	e60716e3          	bnez	a4,17bbc <_dtoa_r+0x9e6>
   17d54:	bd95                	j	17bc8 <_dtoa_r+0x9f2>
   17d56:	03900793          	li	a5,57
   17d5a:	00fc8023          	sb	a5,0(s9)
   17d5e:	5782                	lw	a5,32(sp)
   17d60:	8c4a                	mv	s8,s2
   17d62:	001c8993          	add	s3,s9,1
   17d66:	00178a13          	add	s4,a5,1
   17d6a:	895a                	mv	s2,s6
   17d6c:	b125                	j	17994 <_dtoa_r+0x7be>
   17d6e:	4785                	li	a5,1
   17d70:	4c05                	li	s8,1
   17d72:	ca3e                	sw	a5,20(sp)
   17d74:	ba95                	j	176e8 <_dtoa_r+0x512>
   17d76:	d402                	sw	zero,40(sp)
   17d78:	bfb1                	j	17cd4 <_dtoa_r+0xafe>
   17d7a:	5762                	lw	a4,56(sp)
   17d7c:	22070163          	beqz	a4,17f9e <_dtoa_r+0xdc8>
   17d80:	4742                	lw	a4,16(sp)
   17d82:	43378793          	add	a5,a5,1075
   17d86:	9b3e                	add	s6,s6,a5
   17d88:	97ba                	add	a5,a5,a4
   17d8a:	5bc2                	lw	s7,48(sp)
   17d8c:	8cba                	mv	s9,a4
   17d8e:	c83e                	sw	a5,16(sp)
   17d90:	b9c1                	j	17a60 <_dtoa_r+0x88a>
   17d92:	03100793          	li	a5,49
   17d96:	00fa8023          	sb	a5,0(s5)
   17d9a:	0a05                	add	s4,s4,1
   17d9c:	b911                	j	179b0 <_dtoa_r+0x7da>
   17d9e:	5782                	lw	a5,32(sp)
   17da0:	22078163          	beqz	a5,17fc2 <_dtoa_r+0xdec>
   17da4:	40f00bb3          	neg	s7,a5
   17da8:	00fbf713          	and	a4,s7,15
   17dac:	070e                	sll	a4,a4,0x3
   17dae:	00006797          	auipc	a5,0x6
   17db2:	8e278793          	add	a5,a5,-1822 # 1d690 <__mprec_tens>
   17db6:	97ba                	add	a5,a5,a4
   17db8:	4390                	lw	a2,0(a5)
   17dba:	43d4                	lw	a3,4(a5)
   17dbc:	4562                	lw	a0,24(sp)
   17dbe:	45f2                	lw	a1,28(sp)
   17dc0:	404bdb93          	sra	s7,s7,0x4
   17dc4:	44d030ef          	jal	1ba10 <__muldf3>
   17dc8:	8d2e                	mv	s10,a1
   17dca:	2e0b8563          	beqz	s7,180b4 <_dtoa_r+0xede>
   17dce:	4909                	li	s2,2
   17dd0:	c0a2                	sw	s0,64(sp)
   17dd2:	00006c97          	auipc	s9,0x6
   17dd6:	896c8c93          	add	s9,s9,-1898 # 1d668 <__mprec_bigtens>
   17dda:	844a                	mv	s0,s2
   17ddc:	872a                	mv	a4,a0
   17dde:	4601                	li	a2,0
   17de0:	892a                	mv	s2,a0
   17de2:	001bf693          	and	a3,s7,1
   17de6:	ca99                	beqz	a3,17dfc <_dtoa_r+0xc26>
   17de8:	000ca603          	lw	a2,0(s9)
   17dec:	004ca683          	lw	a3,4(s9)
   17df0:	853a                	mv	a0,a4
   17df2:	0405                	add	s0,s0,1
   17df4:	41d030ef          	jal	1ba10 <__muldf3>
   17df8:	872a                	mv	a4,a0
   17dfa:	4605                	li	a2,1
   17dfc:	401bdb93          	sra	s7,s7,0x1
   17e00:	0ca1                	add	s9,s9,8
   17e02:	fe0b90e3          	bnez	s7,17de2 <_dtoa_r+0xc0c>
   17e06:	854a                	mv	a0,s2
   17e08:	87ae                	mv	a5,a1
   17e0a:	8922                	mv	s2,s0
   17e0c:	4406                	lw	s0,64(sp)
   17e0e:	ea061363          	bnez	a2,174b4 <_dtoa_r+0x2de>
   17e12:	872a                	mv	a4,a0
   17e14:	87ea                	mv	a5,s10
   17e16:	e9eff06f          	j	174b4 <_dtoa_r+0x2de>
   17e1a:	85b6                	mv	a1,a3
   17e1c:	863a                	mv	a2,a4
   17e1e:	853a                	mv	a0,a4
   17e20:	529020ef          	jal	1ab48 <__adddf3>
   17e24:	5782                	lw	a5,32(sp)
   17e26:	864a                	mv	a2,s2
   17e28:	86ce                	mv	a3,s3
   17e2a:	00178a13          	add	s4,a5,1
   17e2e:	8caa                	mv	s9,a0
   17e30:	8b2e                	mv	s6,a1
   17e32:	8c52                	mv	s8,s4
   17e34:	25d030ef          	jal	1b890 <__gedf2>
   17e38:	80a04ee3          	bgtz	a0,17654 <_dtoa_r+0x47e>
   17e3c:	8566                	mv	a0,s9
   17e3e:	85da                	mv	a1,s6
   17e40:	864a                	mv	a2,s2
   17e42:	86ce                	mv	a3,s3
   17e44:	1e1030ef          	jal	1b824 <__eqdf2>
   17e48:	e509                	bnez	a0,17e52 <_dtoa_r+0xc7c>
   17e4a:	001d7d13          	and	s10,s10,1
   17e4e:	800d13e3          	bnez	s10,17654 <_dtoa_r+0x47e>
   17e52:	8d5e                	mv	s10,s7
   17e54:	b641                	j	179d4 <_dtoa_r+0x7fe>
   17e56:	00492583          	lw	a1,4(s2)
   17e5a:	8522                	mv	a0,s0
   17e5c:	1ff000ef          	jal	1885a <_Balloc>
   17e60:	89aa                	mv	s3,a0
   17e62:	24050e63          	beqz	a0,180be <_dtoa_r+0xee8>
   17e66:	01092603          	lw	a2,16(s2)
   17e6a:	00c90593          	add	a1,s2,12
   17e6e:	0531                	add	a0,a0,12
   17e70:	0609                	add	a2,a2,2
   17e72:	060a                	sll	a2,a2,0x2
   17e74:	e61fe0ef          	jal	16cd4 <memcpy>
   17e78:	4605                	li	a2,1
   17e7a:	85ce                	mv	a1,s3
   17e7c:	8522                	mv	a0,s0
   17e7e:	7cd000ef          	jal	18e4a <__lshift>
   17e82:	8b2a                	mv	s6,a0
   17e84:	b19d                	j	17aea <_dtoa_r+0x914>
   17e86:	85ca                	mv	a1,s2
   17e88:	865e                	mv	a2,s7
   17e8a:	8522                	mv	a0,s0
   17e8c:	6e5000ef          	jal	18d70 <__pow5mult>
   17e90:	8626                	mv	a2,s1
   17e92:	85aa                	mv	a1,a0
   17e94:	892a                	mv	s2,a0
   17e96:	8522                	mv	a0,s0
   17e98:	53f000ef          	jal	18bd6 <__multiply>
   17e9c:	87aa                	mv	a5,a0
   17e9e:	85a6                	mv	a1,s1
   17ea0:	8522                	mv	a0,s0
   17ea2:	84be                	mv	s1,a5
   17ea4:	223000ef          	jal	188c6 <_Bfree>
   17ea8:	57c2                	lw	a5,48(sp)
   17eaa:	417787b3          	sub	a5,a5,s7
   17eae:	d83e                	sw	a5,48(sp)
   17eb0:	a2078ae3          	beqz	a5,178e4 <_dtoa_r+0x70e>
   17eb4:	b415                	j	178d8 <_dtoa_r+0x702>
   17eb6:	4646                	lw	a2,80(sp)
   17eb8:	46d6                	lw	a3,84(sp)
   17eba:	4566                	lw	a0,88(sp)
   17ebc:	c6ae                	sw	a1,76(sp)
   17ebe:	85de                	mv	a1,s7
   17ec0:	d41a                	sw	t1,40(sp)
   17ec2:	34f030ef          	jal	1ba10 <__muldf3>
   17ec6:	5322                	lw	t1,40(sp)
   17ec8:	47a6                	lw	a5,72(sp)
   17eca:	4685                	li	a3,1
   17ecc:	006a8023          	sb	t1,0(s5)
   17ed0:	dc2a                	sw	a0,56(sp)
   17ed2:	48b6                	lw	a7,76(sp)
   17ed4:	892e                	mv	s2,a1
   17ed6:	00fa8bb3          	add	s7,s5,a5
   17eda:	00007617          	auipc	a2,0x7
   17ede:	87e60613          	add	a2,a2,-1922 # 1e758 <__SDATA_BEGIN__+0x50>
   17ee2:	1cd78163          	beq	a5,a3,180a4 <_dtoa_r+0xece>
   17ee6:	421c                	lw	a5,0(a2)
   17ee8:	00462803          	lw	a6,4(a2)
   17eec:	c4a6                	sw	s1,72(sp)
   17eee:	d43e                	sw	a5,40(sp)
   17ef0:	d642                	sw	a6,44(sp)
   17ef2:	c6a2                	sw	s0,76(sp)
   17ef4:	8566                	mv	a0,s9
   17ef6:	85c6                	mv	a1,a7
   17ef8:	5622                	lw	a2,40(sp)
   17efa:	56b2                	lw	a3,44(sp)
   17efc:	0d05                	add	s10,s10,1
   17efe:	313030ef          	jal	1ba10 <__muldf3>
   17f02:	842e                	mv	s0,a1
   17f04:	84aa                	mv	s1,a0
   17f06:	7b2040ef          	jal	1c6b8 <__fixdfsi>
   17f0a:	8caa                	mv	s9,a0
   17f0c:	013040ef          	jal	1c71e <__floatsidf>
   17f10:	862a                	mv	a2,a0
   17f12:	86ae                	mv	a3,a1
   17f14:	8526                	mv	a0,s1
   17f16:	85a2                	mv	a1,s0
   17f18:	030c8c93          	add	s9,s9,48
   17f1c:	012040ef          	jal	1bf2e <__subdf3>
   17f20:	ff9d0fa3          	sb	s9,-1(s10)
   17f24:	fdab9ae3          	bne	s7,s10,17ef8 <_dtoa_r+0xd22>
   17f28:	44a6                	lw	s1,72(sp)
   17f2a:	4436                	lw	s0,76(sp)
   17f2c:	8caa                	mv	s9,a0
   17f2e:	88ae                	mv	a7,a1
   17f30:	00006d17          	auipc	s10,0x6
   17f34:	7f0d0d13          	add	s10,s10,2032 # 1e720 <__SDATA_BEGIN__+0x18>
   17f38:	000d2603          	lw	a2,0(s10)
   17f3c:	004d2683          	lw	a3,4(s10)
   17f40:	5562                	lw	a0,56(sp)
   17f42:	85ca                	mv	a1,s2
   17f44:	d446                	sw	a7,40(sp)
   17f46:	403020ef          	jal	1ab48 <__adddf3>
   17f4a:	58a2                	lw	a7,40(sp)
   17f4c:	8666                	mv	a2,s9
   17f4e:	86c6                	mv	a3,a7
   17f50:	1ff030ef          	jal	1b94e <__ledf2>
   17f54:	12054363          	bltz	a0,1807a <_dtoa_r+0xea4>
   17f58:	5662                	lw	a2,56(sp)
   17f5a:	000d2503          	lw	a0,0(s10)
   17f5e:	004d2583          	lw	a1,4(s10)
   17f62:	86ca                	mv	a3,s2
   17f64:	7cb030ef          	jal	1bf2e <__subdf3>
   17f68:	58a2                	lw	a7,40(sp)
   17f6a:	8666                	mv	a2,s9
   17f6c:	86c6                	mv	a3,a7
   17f6e:	123030ef          	jal	1b890 <__gedf2>
   17f72:	0ca04763          	bgtz	a0,18040 <_dtoa_r+0xe6a>
   17f76:	57b6                	lw	a5,108(sp)
   17f78:	9207c8e3          	bltz	a5,178a8 <_dtoa_r+0x6d2>
   17f7c:	5702                	lw	a4,32(sp)
   17f7e:	47b9                	li	a5,14
   17f80:	92e7c4e3          	blt	a5,a4,178a8 <_dtoa_r+0x6d2>
   17f84:	5782                	lw	a5,32(sp)
   17f86:	00005717          	auipc	a4,0x5
   17f8a:	70a70713          	add	a4,a4,1802 # 1d690 <__mprec_tens>
   17f8e:	078e                	sll	a5,a5,0x3
   17f90:	97ba                	add	a5,a5,a4
   17f92:	0007a903          	lw	s2,0(a5)
   17f96:	0047a983          	lw	s3,4(a5)
   17f9a:	84fff06f          	j	177e8 <_dtoa_r+0x612>
   17f9e:	5726                	lw	a4,104(sp)
   17fa0:	46c2                	lw	a3,16(sp)
   17fa2:	03600793          	li	a5,54
   17fa6:	8f99                	sub	a5,a5,a4
   17fa8:	9b3e                	add	s6,s6,a5
   17faa:	97b6                	add	a5,a5,a3
   17fac:	5bc2                	lw	s7,48(sp)
   17fae:	8cb6                	mv	s9,a3
   17fb0:	c83e                	sw	a5,16(sp)
   17fb2:	b47d                	j	17a60 <_dtoa_r+0x88a>
   17fb4:	5782                	lw	a5,32(sp)
   17fb6:	8c4a                	mv	s8,s2
   17fb8:	4ac2                	lw	s5,16(sp)
   17fba:	00178a13          	add	s4,a5,1
   17fbe:	895a                	mv	s2,s6
   17fc0:	ba7d                	j	1797e <_dtoa_r+0x7a8>
   17fc2:	4762                	lw	a4,24(sp)
   17fc4:	47f2                	lw	a5,28(sp)
   17fc6:	4909                	li	s2,2
   17fc8:	cecff06f          	j	174b4 <_dtoa_r+0x2de>
   17fcc:	f20c0e63          	beqz	s8,17708 <_dtoa_r+0x532>
   17fd0:	5d72                	lw	s10,60(sp)
   17fd2:	fba05563          	blez	s10,1777c <_dtoa_r+0x5a6>
   17fd6:	00006617          	auipc	a2,0x6
   17fda:	78260613          	add	a2,a2,1922 # 1e758 <__SDATA_BEGIN__+0x50>
   17fde:	85be                	mv	a1,a5
   17fe0:	5782                	lw	a5,32(sp)
   17fe2:	4254                	lw	a3,4(a2)
   17fe4:	4210                	lw	a2,0(a2)
   17fe6:	17fd                	add	a5,a5,-1
   17fe8:	853a                	mv	a0,a4
   17fea:	cebe                	sw	a5,92(sp)
   17fec:	225030ef          	jal	1ba10 <__muldf3>
   17ff0:	872a                	mv	a4,a0
   17ff2:	00190513          	add	a0,s2,1
   17ff6:	c4ba                	sw	a4,72(sp)
   17ff8:	c0ae                	sw	a1,64(sp)
   17ffa:	724040ef          	jal	1c71e <__floatsidf>
   17ffe:	4726                	lw	a4,72(sp)
   18000:	4786                	lw	a5,64(sp)
   18002:	863a                	mv	a2,a4
   18004:	86be                	mv	a3,a5
   18006:	c6ba                	sw	a4,76(sp)
   18008:	209030ef          	jal	1ba10 <__muldf3>
   1800c:	00006697          	auipc	a3,0x6
   18010:	75468693          	add	a3,a3,1876 # 1e760 <__SDATA_BEGIN__+0x58>
   18014:	4290                	lw	a2,0(a3)
   18016:	42d4                	lw	a3,4(a3)
   18018:	331020ef          	jal	1ab48 <__adddf3>
   1801c:	fcc006b7          	lui	a3,0xfcc00
   18020:	4786                	lw	a5,64(sp)
   18022:	4736                	lw	a4,76(sp)
   18024:	8caa                	mv	s9,a0
   18026:	00b68bb3          	add	s7,a3,a1
   1802a:	c4ea                	sw	s10,72(sp)
   1802c:	ceeff06f          	j	1751a <_dtoa_r+0x344>
   18030:	03100693          	li	a3,49
   18034:	0c05                	add	s8,s8,1
   18036:	e3aff06f          	j	17670 <_dtoa_r+0x49a>
   1803a:	cc02                	sw	zero,24(sp)
   1803c:	4901                	li	s2,0
   1803e:	b121                	j	17c46 <_dtoa_r+0xa70>
   18040:	03000613          	li	a2,48
   18044:	fffbc783          	lbu	a5,-1(s7)
   18048:	8d5e                	mv	s10,s7
   1804a:	1bfd                	add	s7,s7,-1
   1804c:	fec78ce3          	beq	a5,a2,18044 <_dtoa_r+0xe6e>
   18050:	47f6                	lw	a5,92(sp)
   18052:	00178a13          	add	s4,a5,1
   18056:	babd                	j	179d4 <_dtoa_r+0x7fe>
   18058:	03900713          	li	a4,57
   1805c:	4ac2                	lw	s5,16(sp)
   1805e:	ceeb8ce3          	beq	s7,a4,17d56 <_dtoa_r+0xb80>
   18062:	b73041e3          	bgtz	s3,17bc4 <_dtoa_r+0x9ee>
   18066:	b68d                	j	17bc8 <_dtoa_r+0x9f2>
   18068:	4ac2                	lw	s5,16(sp)
   1806a:	beb9                	j	17bc8 <_dtoa_r+0x9f2>
   1806c:	89be                	mv	s3,a5
   1806e:	b139                	j	17c7c <_dtoa_r+0xaa6>
   18070:	8cbe                	mv	s9,a5
   18072:	97e2                	add	a5,a5,s8
   18074:	9b62                	add	s6,s6,s8
   18076:	c83e                	sw	a5,16(sp)
   18078:	b2e5                	j	17a60 <_dtoa_r+0x88a>
   1807a:	47f6                	lw	a5,92(sp)
   1807c:	00178c13          	add	s8,a5,1
   18080:	dd4ff06f          	j	17654 <_dtoa_r+0x47e>
   18084:	49b6                	lw	s3,76(sp)
   18086:	4b46                	lw	s6,80(sp)
   18088:	4c66                	lw	s8,88(sp)
   1808a:	4a26                	lw	s4,72(sp)
   1808c:	ef0ff06f          	j	1777c <_dtoa_r+0x5a6>
   18090:	4789                	li	a5,2
   18092:	0147c663          	blt	a5,s4,1809e <_dtoa_r+0xec8>
   18096:	5a02                	lw	s4,32(sp)
   18098:	5c72                	lw	s8,60(sp)
   1809a:	8adff06f          	j	17946 <_dtoa_r+0x770>
   1809e:	5c72                	lw	s8,60(sp)
   180a0:	d05a                	sw	s6,32(sp)
   180a2:	b651                	j	17c26 <_dtoa_r+0xa50>
   180a4:	4b86                	lw	s7,64(sp)
   180a6:	b569                	j	17f30 <_dtoa_r+0xd5a>
   180a8:	4789                	li	a5,2
   180aa:	ff47cae3          	blt	a5,s4,1809e <_dtoa_r+0xec8>
   180ae:	5c72                	lw	s8,60(sp)
   180b0:	d05a                	sw	s6,32(sp)
   180b2:	b40d                	j	17ad4 <_dtoa_r+0x8fe>
   180b4:	872a                	mv	a4,a0
   180b6:	87ae                	mv	a5,a1
   180b8:	4909                	li	s2,2
   180ba:	bfaff06f          	j	174b4 <_dtoa_r+0x2de>
   180be:	00005697          	auipc	a3,0x5
   180c2:	b9668693          	add	a3,a3,-1130 # 1cc54 <__trunctfdf2+0x456>
   180c6:	4601                	li	a2,0
   180c8:	2ef00593          	li	a1,751
   180cc:	00005517          	auipc	a0,0x5
   180d0:	b9c50513          	add	a0,a0,-1124 # 1cc68 <__trunctfdf2+0x46a>
   180d4:	256020ef          	jal	1a32a <__assert_func>
   180d8:	4ac2                	lw	s5,16(sp)
   180da:	adb046e3          	bgtz	s11,17ba6 <_dtoa_r+0x9d0>
   180de:	b4ed                	j	17bc8 <_dtoa_r+0x9f2>
   180e0:	00005697          	auipc	a3,0x5
   180e4:	b7468693          	add	a3,a3,-1164 # 1cc54 <__trunctfdf2+0x456>
   180e8:	4601                	li	a2,0
   180ea:	1af00593          	li	a1,431
   180ee:	00005517          	auipc	a0,0x5
   180f2:	b7a50513          	add	a0,a0,-1158 # 1cc68 <__trunctfdf2+0x46a>
   180f6:	234020ef          	jal	1a32a <__assert_func>
   180fa:	02042e23          	sw	zero,60(s0)
   180fe:	4581                	li	a1,0
   18100:	b00ff06f          	j	17400 <_dtoa_r+0x22a>
   18104:	d402                	sw	zero,40(sp)
   18106:	ad6ff06f          	j	173dc <_dtoa_r+0x206>

0001810a <_findenv_r>:
   1810a:	7179                	add	sp,sp,-48
   1810c:	c85a                	sw	s6,16(sp)
   1810e:	f7818b13          	add	s6,gp,-136 # 1e788 <environ>
   18112:	d226                	sw	s1,36(sp)
   18114:	ce4e                	sw	s3,28(sp)
   18116:	cc52                	sw	s4,24(sp)
   18118:	ca56                	sw	s5,20(sp)
   1811a:	d606                	sw	ra,44(sp)
   1811c:	8aaa                	mv	s5,a0
   1811e:	89ae                	mv	s3,a1
   18120:	8a32                	mv	s4,a2
   18122:	2f8020ef          	jal	1a41a <__env_lock>
   18126:	000b2483          	lw	s1,0(s6)
   1812a:	c08d                	beqz	s1,1814c <_findenv_r+0x42>
   1812c:	d422                	sw	s0,40(sp)
   1812e:	0009c703          	lbu	a4,0(s3)
   18132:	87ce                	mv	a5,s3
   18134:	03d00693          	li	a3,61
   18138:	4401                	li	s0,0
   1813a:	e709                	bnez	a4,18144 <_findenv_r+0x3a>
   1813c:	a035                	j	18168 <_findenv_r+0x5e>
   1813e:	0007c703          	lbu	a4,0(a5)
   18142:	c30d                	beqz	a4,18164 <_findenv_r+0x5a>
   18144:	0785                	add	a5,a5,1
   18146:	fed71ce3          	bne	a4,a3,1813e <_findenv_r+0x34>
   1814a:	5422                	lw	s0,40(sp)
   1814c:	8556                	mv	a0,s5
   1814e:	2d4020ef          	jal	1a422 <__env_unlock>
   18152:	50b2                	lw	ra,44(sp)
   18154:	5492                	lw	s1,36(sp)
   18156:	49f2                	lw	s3,28(sp)
   18158:	4a62                	lw	s4,24(sp)
   1815a:	4ad2                	lw	s5,20(sp)
   1815c:	4b42                	lw	s6,16(sp)
   1815e:	4501                	li	a0,0
   18160:	6145                	add	sp,sp,48
   18162:	8082                	ret
   18164:	41378433          	sub	s0,a5,s3
   18168:	4088                	lw	a0,0(s1)
   1816a:	d165                	beqz	a0,1814a <_findenv_r+0x40>
   1816c:	c65e                	sw	s7,12(sp)
   1816e:	d04a                	sw	s2,32(sp)
   18170:	03d00b93          	li	s7,61
   18174:	8622                	mv	a2,s0
   18176:	85ce                	mv	a1,s3
   18178:	0b8020ef          	jal	1a230 <strncmp>
   1817c:	e901                	bnez	a0,1818c <_findenv_r+0x82>
   1817e:	0004a903          	lw	s2,0(s1)
   18182:	9922                	add	s2,s2,s0
   18184:	00094783          	lbu	a5,0(s2)
   18188:	01778963          	beq	a5,s7,1819a <_findenv_r+0x90>
   1818c:	40c8                	lw	a0,4(s1)
   1818e:	0491                	add	s1,s1,4
   18190:	f175                	bnez	a0,18174 <_findenv_r+0x6a>
   18192:	5422                	lw	s0,40(sp)
   18194:	5902                	lw	s2,32(sp)
   18196:	4bb2                	lw	s7,12(sp)
   18198:	bf55                	j	1814c <_findenv_r+0x42>
   1819a:	000b2783          	lw	a5,0(s6)
   1819e:	8556                	mv	a0,s5
   181a0:	8c9d                	sub	s1,s1,a5
   181a2:	8489                	sra	s1,s1,0x2
   181a4:	009a2023          	sw	s1,0(s4)
   181a8:	27a020ef          	jal	1a422 <__env_unlock>
   181ac:	50b2                	lw	ra,44(sp)
   181ae:	5422                	lw	s0,40(sp)
   181b0:	4bb2                	lw	s7,12(sp)
   181b2:	5492                	lw	s1,36(sp)
   181b4:	49f2                	lw	s3,28(sp)
   181b6:	4a62                	lw	s4,24(sp)
   181b8:	4ad2                	lw	s5,20(sp)
   181ba:	4b42                	lw	s6,16(sp)
   181bc:	00190513          	add	a0,s2,1
   181c0:	5902                	lw	s2,32(sp)
   181c2:	6145                	add	sp,sp,48
   181c4:	8082                	ret

000181c6 <_getenv_r>:
   181c6:	1101                	add	sp,sp,-32
   181c8:	0070                	add	a2,sp,12
   181ca:	ce06                	sw	ra,28(sp)
   181cc:	f3fff0ef          	jal	1810a <_findenv_r>
   181d0:	40f2                	lw	ra,28(sp)
   181d2:	6105                	add	sp,sp,32
   181d4:	8082                	ret

000181d6 <_mbtowc_r>:
   181d6:	e4c1a783          	lw	a5,-436(gp) # 1e65c <__global_locale+0xe4>
   181da:	8782                	jr	a5

000181dc <__ascii_mbtowc>:
   181dc:	c999                	beqz	a1,181f2 <__ascii_mbtowc+0x16>
   181de:	c61d                	beqz	a2,1820c <__ascii_mbtowc+0x30>
   181e0:	ca95                	beqz	a3,18214 <__ascii_mbtowc+0x38>
   181e2:	00064783          	lbu	a5,0(a2)
   181e6:	c19c                	sw	a5,0(a1)
   181e8:	00064503          	lbu	a0,0(a2)
   181ec:	00a03533          	snez	a0,a0
   181f0:	8082                	ret
   181f2:	1141                	add	sp,sp,-16
   181f4:	006c                	add	a1,sp,12
   181f6:	ce09                	beqz	a2,18210 <__ascii_mbtowc+0x34>
   181f8:	c285                	beqz	a3,18218 <__ascii_mbtowc+0x3c>
   181fa:	00064783          	lbu	a5,0(a2)
   181fe:	c19c                	sw	a5,0(a1)
   18200:	00064503          	lbu	a0,0(a2)
   18204:	00a03533          	snez	a0,a0
   18208:	0141                	add	sp,sp,16
   1820a:	8082                	ret
   1820c:	4501                	li	a0,0
   1820e:	8082                	ret
   18210:	4501                	li	a0,0
   18212:	bfdd                	j	18208 <__ascii_mbtowc+0x2c>
   18214:	5579                	li	a0,-2
   18216:	8082                	ret
   18218:	5579                	li	a0,-2
   1821a:	b7fd                	j	18208 <__ascii_mbtowc+0x2c>

0001821c <__utf8_mbtowc>:
   1821c:	1141                	add	sp,sp,-16
   1821e:	8e2a                	mv	t3,a0
   18220:	c1d1                	beqz	a1,182a4 <__utf8_mbtowc+0x88>
   18222:	ce35                	beqz	a2,1829e <__utf8_mbtowc+0x82>
   18224:	20068963          	beqz	a3,18436 <__utf8_mbtowc+0x21a>
   18228:	00072803          	lw	a6,0(a4)
   1822c:	06081163          	bnez	a6,1828e <__utf8_mbtowc+0x72>
   18230:	00064783          	lbu	a5,0(a2)
   18234:	4505                	li	a0,1
   18236:	c3a5                	beqz	a5,18296 <__utf8_mbtowc+0x7a>
   18238:	07f00893          	li	a7,127
   1823c:	0ef8d563          	bge	a7,a5,18326 <__utf8_mbtowc+0x10a>
   18240:	f4078893          	add	a7,a5,-192
   18244:	437d                	li	t1,31
   18246:	07136163          	bltu	t1,a7,182a8 <__utf8_mbtowc+0x8c>
   1824a:	00f70223          	sb	a5,4(a4)
   1824e:	00081763          	bnez	a6,1825c <__utf8_mbtowc+0x40>
   18252:	4805                	li	a6,1
   18254:	01072023          	sw	a6,0(a4)
   18258:	1d068f63          	beq	a3,a6,18436 <__utf8_mbtowc+0x21a>
   1825c:	962a                	add	a2,a2,a0
   1825e:	00064683          	lbu	a3,0(a2)
   18262:	03f00613          	li	a2,63
   18266:	0505                	add	a0,a0,1
   18268:	f8068813          	add	a6,a3,-128
   1826c:	1b066a63          	bltu	a2,a6,18420 <__utf8_mbtowc+0x204>
   18270:	0c100613          	li	a2,193
   18274:	1af65663          	bge	a2,a5,18420 <__utf8_mbtowc+0x204>
   18278:	079a                	sll	a5,a5,0x6
   1827a:	7c07f793          	and	a5,a5,1984
   1827e:	03f6f693          	and	a3,a3,63
   18282:	00072023          	sw	zero,0(a4)
   18286:	8fd5                	or	a5,a5,a3
   18288:	c19c                	sw	a5,0(a1)
   1828a:	0141                	add	sp,sp,16
   1828c:	8082                	ret
   1828e:	00474783          	lbu	a5,4(a4)
   18292:	4501                	li	a0,0
   18294:	f3d5                	bnez	a5,18238 <__utf8_mbtowc+0x1c>
   18296:	0005a023          	sw	zero,0(a1)
   1829a:	00072023          	sw	zero,0(a4)
   1829e:	4501                	li	a0,0
   182a0:	0141                	add	sp,sp,16
   182a2:	8082                	ret
   182a4:	006c                	add	a1,sp,12
   182a6:	bfb5                	j	18222 <__utf8_mbtowc+0x6>
   182a8:	f2078893          	add	a7,a5,-224
   182ac:	433d                	li	t1,15
   182ae:	09136263          	bltu	t1,a7,18332 <__utf8_mbtowc+0x116>
   182b2:	00f70223          	sb	a5,4(a4)
   182b6:	12080963          	beqz	a6,183e8 <__utf8_mbtowc+0x1cc>
   182ba:	00168893          	add	a7,a3,1
   182be:	011038b3          	snez	a7,a7
   182c2:	4305                	li	t1,1
   182c4:	96c6                	add	a3,a3,a7
   182c6:	12680663          	beq	a6,t1,183f2 <__utf8_mbtowc+0x1d6>
   182ca:	00574883          	lbu	a7,5(a4)
   182ce:	0e000313          	li	t1,224
   182d2:	14678363          	beq	a5,t1,18418 <__utf8_mbtowc+0x1fc>
   182d6:	f8088313          	add	t1,a7,-128
   182da:	03f00e93          	li	t4,63
   182de:	146ee163          	bltu	t4,t1,18420 <__utf8_mbtowc+0x204>
   182e2:	011702a3          	sb	a7,5(a4)
   182e6:	4305                	li	t1,1
   182e8:	14680263          	beq	a6,t1,1842c <__utf8_mbtowc+0x210>
   182ec:	962a                	add	a2,a2,a0
   182ee:	00064683          	lbu	a3,0(a2)
   182f2:	03f00613          	li	a2,63
   182f6:	0505                	add	a0,a0,1
   182f8:	f8068813          	add	a6,a3,-128
   182fc:	13066263          	bltu	a2,a6,18420 <__utf8_mbtowc+0x204>
   18300:	6605                	lui	a2,0x1
   18302:	07b2                	sll	a5,a5,0xc
   18304:	089a                	sll	a7,a7,0x6
   18306:	fc060613          	add	a2,a2,-64 # fc0 <exit-0xf0d4>
   1830a:	683d                	lui	a6,0xf
   1830c:	0107f7b3          	and	a5,a5,a6
   18310:	00c8f8b3          	and	a7,a7,a2
   18314:	0117e7b3          	or	a5,a5,a7
   18318:	03f6f693          	and	a3,a3,63
   1831c:	00072023          	sw	zero,0(a4)
   18320:	8fd5                	or	a5,a5,a3
   18322:	c19c                	sw	a5,0(a1)
   18324:	bfb5                	j	182a0 <__utf8_mbtowc+0x84>
   18326:	00072023          	sw	zero,0(a4)
   1832a:	c19c                	sw	a5,0(a1)
   1832c:	4505                	li	a0,1
   1832e:	0141                	add	sp,sp,16
   18330:	8082                	ret
   18332:	f1078893          	add	a7,a5,-240
   18336:	4311                	li	t1,4
   18338:	0f136463          	bltu	t1,a7,18420 <__utf8_mbtowc+0x204>
   1833c:	00f70223          	sb	a5,4(a4)
   18340:	0c080063          	beqz	a6,18400 <__utf8_mbtowc+0x1e4>
   18344:	00168893          	add	a7,a3,1
   18348:	011038b3          	snez	a7,a7
   1834c:	4305                	li	t1,1
   1834e:	96c6                	add	a3,a3,a7
   18350:	0a680d63          	beq	a6,t1,1840a <__utf8_mbtowc+0x1ee>
   18354:	00574883          	lbu	a7,5(a4)
   18358:	0f000313          	li	t1,240
   1835c:	0c678f63          	beq	a5,t1,1843a <__utf8_mbtowc+0x21e>
   18360:	0f400313          	li	t1,244
   18364:	10678963          	beq	a5,t1,18476 <__utf8_mbtowc+0x25a>
   18368:	f8088313          	add	t1,a7,-128
   1836c:	03f00e93          	li	t4,63
   18370:	0a6ee863          	bltu	t4,t1,18420 <__utf8_mbtowc+0x204>
   18374:	011702a3          	sb	a7,5(a4)
   18378:	4305                	li	t1,1
   1837a:	0c680563          	beq	a6,t1,18444 <__utf8_mbtowc+0x228>
   1837e:	00072f03          	lw	t5,0(a4)
   18382:	00168813          	add	a6,a3,1
   18386:	01003833          	snez	a6,a6
   1838a:	4309                	li	t1,2
   1838c:	96c2                	add	a3,a3,a6
   1838e:	0c6f0063          	beq	t5,t1,1844e <__utf8_mbtowc+0x232>
   18392:	00674803          	lbu	a6,6(a4)
   18396:	f8080693          	add	a3,a6,-128 # ef80 <exit-0x1114>
   1839a:	08dee363          	bltu	t4,a3,18420 <__utf8_mbtowc+0x204>
   1839e:	962a                	add	a2,a2,a0
   183a0:	00064683          	lbu	a3,0(a2)
   183a4:	03f00613          	li	a2,63
   183a8:	0505                	add	a0,a0,1
   183aa:	f8068313          	add	t1,a3,-128
   183ae:	06666963          	bltu	a2,t1,18420 <__utf8_mbtowc+0x204>
   183b2:	001c0337          	lui	t1,0x1c0
   183b6:	07ca                	sll	a5,a5,0x12
   183b8:	0067f7b3          	and	a5,a5,t1
   183bc:	08b2                	sll	a7,a7,0xc
   183be:	6605                	lui	a2,0x1
   183c0:	0003f337          	lui	t1,0x3f
   183c4:	0068f8b3          	and	a7,a7,t1
   183c8:	081a                	sll	a6,a6,0x6
   183ca:	fc060613          	add	a2,a2,-64 # fc0 <exit-0xf0d4>
   183ce:	0117e7b3          	or	a5,a5,a7
   183d2:	00c87833          	and	a6,a6,a2
   183d6:	0107e7b3          	or	a5,a5,a6
   183da:	03f6f693          	and	a3,a3,63
   183de:	8fd5                	or	a5,a5,a3
   183e0:	c19c                	sw	a5,0(a1)
   183e2:	00072023          	sw	zero,0(a4)
   183e6:	bd6d                	j	182a0 <__utf8_mbtowc+0x84>
   183e8:	4805                	li	a6,1
   183ea:	01072023          	sw	a6,0(a4)
   183ee:	05068463          	beq	a3,a6,18436 <__utf8_mbtowc+0x21a>
   183f2:	00a60833          	add	a6,a2,a0
   183f6:	00084883          	lbu	a7,0(a6)
   183fa:	0505                	add	a0,a0,1
   183fc:	4805                	li	a6,1
   183fe:	bdc1                	j	182ce <__utf8_mbtowc+0xb2>
   18400:	4805                	li	a6,1
   18402:	01072023          	sw	a6,0(a4)
   18406:	03068863          	beq	a3,a6,18436 <__utf8_mbtowc+0x21a>
   1840a:	00a60833          	add	a6,a2,a0
   1840e:	00084883          	lbu	a7,0(a6)
   18412:	0505                	add	a0,a0,1
   18414:	4805                	li	a6,1
   18416:	b789                	j	18358 <__utf8_mbtowc+0x13c>
   18418:	09f00313          	li	t1,159
   1841c:	eb134de3          	blt	t1,a7,182d6 <__utf8_mbtowc+0xba>
   18420:	08a00793          	li	a5,138
   18424:	00fe2023          	sw	a5,0(t3)
   18428:	557d                	li	a0,-1
   1842a:	bd9d                	j	182a0 <__utf8_mbtowc+0x84>
   1842c:	4809                	li	a6,2
   1842e:	01072023          	sw	a6,0(a4)
   18432:	eb069de3          	bne	a3,a6,182ec <__utf8_mbtowc+0xd0>
   18436:	5579                	li	a0,-2
   18438:	b5a5                	j	182a0 <__utf8_mbtowc+0x84>
   1843a:	08f00313          	li	t1,143
   1843e:	f31345e3          	blt	t1,a7,18368 <__utf8_mbtowc+0x14c>
   18442:	bff9                	j	18420 <__utf8_mbtowc+0x204>
   18444:	4809                	li	a6,2
   18446:	01072023          	sw	a6,0(a4)
   1844a:	ff0686e3          	beq	a3,a6,18436 <__utf8_mbtowc+0x21a>
   1844e:	00a60833          	add	a6,a2,a0
   18452:	00084803          	lbu	a6,0(a6)
   18456:	03f00313          	li	t1,63
   1845a:	0505                	add	a0,a0,1
   1845c:	f8080e93          	add	t4,a6,-128
   18460:	fdd360e3          	bltu	t1,t4,18420 <__utf8_mbtowc+0x204>
   18464:	430d                	li	t1,3
   18466:	01070323          	sb	a6,6(a4)
   1846a:	00672023          	sw	t1,0(a4)
   1846e:	f26698e3          	bne	a3,t1,1839e <__utf8_mbtowc+0x182>
   18472:	5579                	li	a0,-2
   18474:	b535                	j	182a0 <__utf8_mbtowc+0x84>
   18476:	08f00313          	li	t1,143
   1847a:	ef1357e3          	bge	t1,a7,18368 <__utf8_mbtowc+0x14c>
   1847e:	b74d                	j	18420 <__utf8_mbtowc+0x204>

00018480 <__sjis_mbtowc>:
   18480:	882a                	mv	a6,a0
   18482:	c1b5                	beqz	a1,184e6 <__sjis_mbtowc+0x66>
   18484:	c265                	beqz	a2,18564 <__sjis_mbtowc+0xe4>
   18486:	c2fd                	beqz	a3,1856c <__sjis_mbtowc+0xec>
   18488:	4308                	lw	a0,0(a4)
   1848a:	00064783          	lbu	a5,0(a2)
   1848e:	c911                	beqz	a0,184a2 <__sjis_mbtowc+0x22>
   18490:	4685                	li	a3,1
   18492:	02d50663          	beq	a0,a3,184be <__sjis_mbtowc+0x3e>
   18496:	c19c                	sw	a5,0(a1)
   18498:	00064503          	lbu	a0,0(a2)
   1849c:	00a03533          	snez	a0,a0
   184a0:	8082                	ret
   184a2:	f7f78513          	add	a0,a5,-129
   184a6:	48f9                	li	a7,30
   184a8:	06a8e163          	bltu	a7,a0,1850a <__sjis_mbtowc+0x8a>
   184ac:	4505                	li	a0,1
   184ae:	00f70223          	sb	a5,4(a4)
   184b2:	c308                	sw	a0,0(a4)
   184b4:	0aa68c63          	beq	a3,a0,1856c <__sjis_mbtowc+0xec>
   184b8:	00164783          	lbu	a5,1(a2)
   184bc:	4509                	li	a0,2
   184be:	fc078693          	add	a3,a5,-64
   184c2:	03e00613          	li	a2,62
   184c6:	00d67863          	bgeu	a2,a3,184d6 <__sjis_mbtowc+0x56>
   184ca:	f8078693          	add	a3,a5,-128
   184ce:	07c00613          	li	a2,124
   184d2:	0ad66163          	bltu	a2,a3,18574 <__sjis_mbtowc+0xf4>
   184d6:	00474683          	lbu	a3,4(a4)
   184da:	06a2                	sll	a3,a3,0x8
   184dc:	97b6                	add	a5,a5,a3
   184de:	c19c                	sw	a5,0(a1)
   184e0:	00072023          	sw	zero,0(a4)
   184e4:	8082                	ret
   184e6:	1141                	add	sp,sp,-16
   184e8:	006c                	add	a1,sp,12
   184ea:	ce3d                	beqz	a2,18568 <__sjis_mbtowc+0xe8>
   184ec:	c2d1                	beqz	a3,18570 <__sjis_mbtowc+0xf0>
   184ee:	4308                	lw	a0,0(a4)
   184f0:	00064783          	lbu	a5,0(a2)
   184f4:	c10d                	beqz	a0,18516 <__sjis_mbtowc+0x96>
   184f6:	4685                	li	a3,1
   184f8:	04d50263          	beq	a0,a3,1853c <__sjis_mbtowc+0xbc>
   184fc:	c19c                	sw	a5,0(a1)
   184fe:	00064503          	lbu	a0,0(a2)
   18502:	00a03533          	snez	a0,a0
   18506:	0141                	add	sp,sp,16
   18508:	8082                	ret
   1850a:	f2078513          	add	a0,a5,-224
   1850e:	48bd                	li	a7,15
   18510:	f8a8e3e3          	bltu	a7,a0,18496 <__sjis_mbtowc+0x16>
   18514:	bf61                	j	184ac <__sjis_mbtowc+0x2c>
   18516:	f7f78513          	add	a0,a5,-129
   1851a:	48f9                	li	a7,30
   1851c:	00a8f763          	bgeu	a7,a0,1852a <__sjis_mbtowc+0xaa>
   18520:	f2078513          	add	a0,a5,-224
   18524:	48bd                	li	a7,15
   18526:	fca8ebe3          	bltu	a7,a0,184fc <__sjis_mbtowc+0x7c>
   1852a:	4505                	li	a0,1
   1852c:	00f70223          	sb	a5,4(a4)
   18530:	c308                	sw	a0,0(a4)
   18532:	02a68f63          	beq	a3,a0,18570 <__sjis_mbtowc+0xf0>
   18536:	00164783          	lbu	a5,1(a2)
   1853a:	4509                	li	a0,2
   1853c:	fc078693          	add	a3,a5,-64
   18540:	03e00613          	li	a2,62
   18544:	00d67863          	bgeu	a2,a3,18554 <__sjis_mbtowc+0xd4>
   18548:	f8078693          	add	a3,a5,-128
   1854c:	07c00613          	li	a2,124
   18550:	02d66863          	bltu	a2,a3,18580 <__sjis_mbtowc+0x100>
   18554:	00474683          	lbu	a3,4(a4)
   18558:	06a2                	sll	a3,a3,0x8
   1855a:	97b6                	add	a5,a5,a3
   1855c:	c19c                	sw	a5,0(a1)
   1855e:	00072023          	sw	zero,0(a4)
   18562:	b755                	j	18506 <__sjis_mbtowc+0x86>
   18564:	4501                	li	a0,0
   18566:	8082                	ret
   18568:	4501                	li	a0,0
   1856a:	bf71                	j	18506 <__sjis_mbtowc+0x86>
   1856c:	5579                	li	a0,-2
   1856e:	8082                	ret
   18570:	5579                	li	a0,-2
   18572:	bf51                	j	18506 <__sjis_mbtowc+0x86>
   18574:	08a00793          	li	a5,138
   18578:	00f82023          	sw	a5,0(a6)
   1857c:	557d                	li	a0,-1
   1857e:	8082                	ret
   18580:	08a00793          	li	a5,138
   18584:	00f82023          	sw	a5,0(a6)
   18588:	557d                	li	a0,-1
   1858a:	bfb5                	j	18506 <__sjis_mbtowc+0x86>

0001858c <__eucjp_mbtowc>:
   1858c:	882a                	mv	a6,a0
   1858e:	cdd9                	beqz	a1,1862c <__eucjp_mbtowc+0xa0>
   18590:	12060d63          	beqz	a2,186ca <__eucjp_mbtowc+0x13e>
   18594:	14068f63          	beqz	a3,186f2 <__eucjp_mbtowc+0x166>
   18598:	4308                	lw	a0,0(a4)
   1859a:	00064783          	lbu	a5,0(a2)
   1859e:	cd09                	beqz	a0,185b8 <__eucjp_mbtowc+0x2c>
   185a0:	4885                	li	a7,1
   185a2:	03150f63          	beq	a0,a7,185e0 <__eucjp_mbtowc+0x54>
   185a6:	4689                	li	a3,2
   185a8:	12d50a63          	beq	a0,a3,186dc <__eucjp_mbtowc+0x150>
   185ac:	c19c                	sw	a5,0(a1)
   185ae:	00064503          	lbu	a0,0(a2)
   185b2:	00a03533          	snez	a0,a0
   185b6:	8082                	ret
   185b8:	f7278513          	add	a0,a5,-142
   185bc:	4885                	li	a7,1
   185be:	00a8f863          	bgeu	a7,a0,185ce <__eucjp_mbtowc+0x42>
   185c2:	f5f78513          	add	a0,a5,-161
   185c6:	05d00893          	li	a7,93
   185ca:	fea8e1e3          	bltu	a7,a0,185ac <__eucjp_mbtowc+0x20>
   185ce:	4505                	li	a0,1
   185d0:	00f70223          	sb	a5,4(a4)
   185d4:	c308                	sw	a0,0(a4)
   185d6:	10a68e63          	beq	a3,a0,186f2 <__eucjp_mbtowc+0x166>
   185da:	00164783          	lbu	a5,1(a2)
   185de:	4509                	li	a0,2
   185e0:	f5f78893          	add	a7,a5,-161
   185e4:	05d00313          	li	t1,93
   185e8:	11136963          	bltu	t1,a7,186fa <__eucjp_mbtowc+0x16e>
   185ec:	00474883          	lbu	a7,4(a4)
   185f0:	08f00313          	li	t1,143
   185f4:	0c689d63          	bne	a7,t1,186ce <__eucjp_mbtowc+0x142>
   185f8:	00f702a3          	sb	a5,5(a4)
   185fc:	4789                	li	a5,2
   185fe:	c31c                	sw	a5,0(a4)
   18600:	0ed57963          	bgeu	a0,a3,186f2 <__eucjp_mbtowc+0x166>
   18604:	962a                	add	a2,a2,a0
   18606:	00064783          	lbu	a5,0(a2)
   1860a:	0505                	add	a0,a0,1
   1860c:	f5f78693          	add	a3,a5,-161
   18610:	05d00613          	li	a2,93
   18614:	0ed66363          	bltu	a2,a3,186fa <__eucjp_mbtowc+0x16e>
   18618:	00574683          	lbu	a3,5(a4)
   1861c:	07f7f793          	and	a5,a5,127
   18620:	06a2                	sll	a3,a3,0x8
   18622:	97b6                	add	a5,a5,a3
   18624:	c19c                	sw	a5,0(a1)
   18626:	00072023          	sw	zero,0(a4)
   1862a:	8082                	ret
   1862c:	1141                	add	sp,sp,-16
   1862e:	006c                	add	a1,sp,12
   18630:	ca45                	beqz	a2,186e0 <__eucjp_mbtowc+0x154>
   18632:	caf1                	beqz	a3,18706 <__eucjp_mbtowc+0x17a>
   18634:	4308                	lw	a0,0(a4)
   18636:	00064783          	lbu	a5,0(a2)
   1863a:	cd11                	beqz	a0,18656 <__eucjp_mbtowc+0xca>
   1863c:	4885                	li	a7,1
   1863e:	05150063          	beq	a0,a7,1867e <__eucjp_mbtowc+0xf2>
   18642:	4689                	li	a3,2
   18644:	0ad50963          	beq	a0,a3,186f6 <__eucjp_mbtowc+0x16a>
   18648:	c19c                	sw	a5,0(a1)
   1864a:	00064503          	lbu	a0,0(a2)
   1864e:	00a03533          	snez	a0,a0
   18652:	0141                	add	sp,sp,16
   18654:	8082                	ret
   18656:	f7278513          	add	a0,a5,-142
   1865a:	4885                	li	a7,1
   1865c:	00a8f863          	bgeu	a7,a0,1866c <__eucjp_mbtowc+0xe0>
   18660:	f5f78513          	add	a0,a5,-161
   18664:	05d00893          	li	a7,93
   18668:	fea8e0e3          	bltu	a7,a0,18648 <__eucjp_mbtowc+0xbc>
   1866c:	4505                	li	a0,1
   1866e:	00f70223          	sb	a5,4(a4)
   18672:	c308                	sw	a0,0(a4)
   18674:	08a68963          	beq	a3,a0,18706 <__eucjp_mbtowc+0x17a>
   18678:	00164783          	lbu	a5,1(a2)
   1867c:	4509                	li	a0,2
   1867e:	f5f78893          	add	a7,a5,-161
   18682:	05d00313          	li	t1,93
   18686:	09136263          	bltu	t1,a7,1870a <__eucjp_mbtowc+0x17e>
   1868a:	00474883          	lbu	a7,4(a4)
   1868e:	08f00313          	li	t1,143
   18692:	04689963          	bne	a7,t1,186e4 <__eucjp_mbtowc+0x158>
   18696:	00f702a3          	sb	a5,5(a4)
   1869a:	4789                	li	a5,2
   1869c:	c31c                	sw	a5,0(a4)
   1869e:	06d57463          	bgeu	a0,a3,18706 <__eucjp_mbtowc+0x17a>
   186a2:	962a                	add	a2,a2,a0
   186a4:	00064783          	lbu	a5,0(a2)
   186a8:	0505                	add	a0,a0,1
   186aa:	f5f78693          	add	a3,a5,-161
   186ae:	05d00613          	li	a2,93
   186b2:	04d66c63          	bltu	a2,a3,1870a <__eucjp_mbtowc+0x17e>
   186b6:	00574683          	lbu	a3,5(a4)
   186ba:	07f7f793          	and	a5,a5,127
   186be:	06a2                	sll	a3,a3,0x8
   186c0:	97b6                	add	a5,a5,a3
   186c2:	c19c                	sw	a5,0(a1)
   186c4:	00072023          	sw	zero,0(a4)
   186c8:	b769                	j	18652 <__eucjp_mbtowc+0xc6>
   186ca:	4501                	li	a0,0
   186cc:	8082                	ret
   186ce:	08a2                	sll	a7,a7,0x8
   186d0:	98be                	add	a7,a7,a5
   186d2:	0115a023          	sw	a7,0(a1)
   186d6:	00072023          	sw	zero,0(a4)
   186da:	8082                	ret
   186dc:	4505                	li	a0,1
   186de:	b73d                	j	1860c <__eucjp_mbtowc+0x80>
   186e0:	4501                	li	a0,0
   186e2:	bf85                	j	18652 <__eucjp_mbtowc+0xc6>
   186e4:	08a2                	sll	a7,a7,0x8
   186e6:	98be                	add	a7,a7,a5
   186e8:	0115a023          	sw	a7,0(a1)
   186ec:	00072023          	sw	zero,0(a4)
   186f0:	b78d                	j	18652 <__eucjp_mbtowc+0xc6>
   186f2:	5579                	li	a0,-2
   186f4:	8082                	ret
   186f6:	4505                	li	a0,1
   186f8:	bf4d                	j	186aa <__eucjp_mbtowc+0x11e>
   186fa:	08a00793          	li	a5,138
   186fe:	00f82023          	sw	a5,0(a6)
   18702:	557d                	li	a0,-1
   18704:	8082                	ret
   18706:	5579                	li	a0,-2
   18708:	b7a9                	j	18652 <__eucjp_mbtowc+0xc6>
   1870a:	08a00793          	li	a5,138
   1870e:	00f82023          	sw	a5,0(a6)
   18712:	557d                	li	a0,-1
   18714:	bf3d                	j	18652 <__eucjp_mbtowc+0xc6>

00018716 <__jis_mbtowc>:
   18716:	1101                	add	sp,sp,-32
   18718:	cdb9                	beqz	a1,18776 <__jis_mbtowc+0x60>
   1871a:	c225                	beqz	a2,1877a <__jis_mbtowc+0x64>
   1871c:	12068d63          	beqz	a3,18856 <__jis_mbtowc+0x140>
   18720:	ce22                	sw	s0,28(sp)
   18722:	cc26                	sw	s1,24(sp)
   18724:	ca4a                	sw	s2,20(sp)
   18726:	c84e                	sw	s3,16(sp)
   18728:	8eb2                	mv	t4,a2
   1872a:	000ec303          	lbu	t1,0(t4)
   1872e:	00074903          	lbu	s2,0(a4)
   18732:	84b2                	mv	s1,a2
   18734:	4885                	li	a7,1
   18736:	00005397          	auipc	t2,0x5
   1873a:	eb638393          	add	t2,t2,-330 # 1d5ec <JIS_state_table>
   1873e:	00005297          	auipc	t0,0x5
   18742:	e6628293          	add	t0,t0,-410 # 1d5a4 <JIS_action_table>
   18746:	02f00413          	li	s0,47
   1874a:	00005f17          	auipc	t5,0x5
   1874e:	d82f0f13          	add	t5,t5,-638 # 1d4cc <categories+0x1c>
   18752:	4f95                	li	t6,5
   18754:	00005e17          	auipc	t3,0x5
   18758:	e38e0e13          	add	t3,t3,-456 # 1d58c <categories+0xdc>
   1875c:	06030b63          	beqz	t1,187d2 <__jis_mbtowc+0xbc>
   18760:	fe530793          	add	a5,t1,-27 # 3efe5 <__BSS_END__+0x20261>
   18764:	0ff7f793          	zext.b	a5,a5
   18768:	00f46e63          	bltu	s0,a5,18784 <__jis_mbtowc+0x6e>
   1876c:	078a                	sll	a5,a5,0x2
   1876e:	97fa                	add	a5,a5,t5
   18770:	439c                	lw	a5,0(a5)
   18772:	97fa                	add	a5,a5,t5
   18774:	8782                	jr	a5
   18776:	006c                	add	a1,sp,12
   18778:	f255                	bnez	a2,1871c <__jis_mbtowc+0x6>
   1877a:	00072023          	sw	zero,0(a4)
   1877e:	4505                	li	a0,1
   18780:	6105                	add	sp,sp,32
   18782:	8082                	ret
   18784:	fdf30993          	add	s3,t1,-33
   18788:	05d00793          	li	a5,93
   1878c:	0137b9b3          	sltu	s3,a5,s3
   18790:	099d                	add	s3,s3,7
   18792:	00391793          	sll	a5,s2,0x3
   18796:	97ca                	add	a5,a5,s2
   18798:	00f28833          	add	a6,t0,a5
   1879c:	984e                	add	a6,a6,s3
   1879e:	00084803          	lbu	a6,0(a6)
   187a2:	979e                	add	a5,a5,t2
   187a4:	97ce                	add	a5,a5,s3
   187a6:	0007c903          	lbu	s2,0(a5)
   187aa:	090fe263          	bltu	t6,a6,1882e <__jis_mbtowc+0x118>
   187ae:	080a                	sll	a6,a6,0x2
   187b0:	9872                	add	a6,a6,t3
   187b2:	00082783          	lw	a5,0(a6)
   187b6:	97f2                	add	a5,a5,t3
   187b8:	8782                	jr	a5
   187ba:	00670223          	sb	t1,4(a4)
   187be:	0e85                	add	t4,t4,1
   187c0:	00188793          	add	a5,a7,1
   187c4:	08d8f363          	bgeu	a7,a3,1884a <__jis_mbtowc+0x134>
   187c8:	000ec303          	lbu	t1,0(t4)
   187cc:	88be                	mv	a7,a5
   187ce:	f80319e3          	bnez	t1,18760 <__jis_mbtowc+0x4a>
   187d2:	4999                	li	s3,6
   187d4:	bf7d                	j	18792 <__jis_mbtowc+0x7c>
   187d6:	01148633          	add	a2,s1,a7
   187da:	b7d5                	j	187be <__jis_mbtowc+0xa8>
   187dc:	4685                	li	a3,1
   187de:	00474783          	lbu	a5,4(a4)
   187e2:	c314                	sw	a3,0(a4)
   187e4:	000ec703          	lbu	a4,0(t4)
   187e8:	07a2                	sll	a5,a5,0x8
   187ea:	8546                	mv	a0,a7
   187ec:	97ba                	add	a5,a5,a4
   187ee:	4472                	lw	s0,28(sp)
   187f0:	44e2                	lw	s1,24(sp)
   187f2:	4952                	lw	s2,20(sp)
   187f4:	49c2                	lw	s3,16(sp)
   187f6:	c19c                	sw	a5,0(a1)
   187f8:	6105                	add	sp,sp,32
   187fa:	8082                	ret
   187fc:	00072023          	sw	zero,0(a4)
   18800:	00064783          	lbu	a5,0(a2)
   18804:	8546                	mv	a0,a7
   18806:	b7e5                	j	187ee <__jis_mbtowc+0xd8>
   18808:	4472                	lw	s0,28(sp)
   1880a:	00072023          	sw	zero,0(a4)
   1880e:	0005a023          	sw	zero,0(a1)
   18812:	44e2                	lw	s1,24(sp)
   18814:	4952                	lw	s2,20(sp)
   18816:	49c2                	lw	s3,16(sp)
   18818:	4501                	li	a0,0
   1881a:	6105                	add	sp,sp,32
   1881c:	8082                	ret
   1881e:	4989                	li	s3,2
   18820:	bf8d                	j	18792 <__jis_mbtowc+0x7c>
   18822:	498d                	li	s3,3
   18824:	b7bd                	j	18792 <__jis_mbtowc+0x7c>
   18826:	4991                	li	s3,4
   18828:	b7ad                	j	18792 <__jis_mbtowc+0x7c>
   1882a:	4995                	li	s3,5
   1882c:	b79d                	j	18792 <__jis_mbtowc+0x7c>
   1882e:	4472                	lw	s0,28(sp)
   18830:	08a00793          	li	a5,138
   18834:	c11c                	sw	a5,0(a0)
   18836:	44e2                	lw	s1,24(sp)
   18838:	4952                	lw	s2,20(sp)
   1883a:	49c2                	lw	s3,16(sp)
   1883c:	557d                	li	a0,-1
   1883e:	6105                	add	sp,sp,32
   18840:	8082                	ret
   18842:	4985                	li	s3,1
   18844:	b7b9                	j	18792 <__jis_mbtowc+0x7c>
   18846:	4981                	li	s3,0
   18848:	b7a9                	j	18792 <__jis_mbtowc+0x7c>
   1884a:	01272023          	sw	s2,0(a4)
   1884e:	4472                	lw	s0,28(sp)
   18850:	44e2                	lw	s1,24(sp)
   18852:	4952                	lw	s2,20(sp)
   18854:	49c2                	lw	s3,16(sp)
   18856:	5579                	li	a0,-2
   18858:	b745                	j	187f8 <__jis_mbtowc+0xe2>

0001885a <_Balloc>:
   1885a:	417c                	lw	a5,68(a0)
   1885c:	1141                	add	sp,sp,-16
   1885e:	c422                	sw	s0,8(sp)
   18860:	c226                	sw	s1,4(sp)
   18862:	c606                	sw	ra,12(sp)
   18864:	842a                	mv	s0,a0
   18866:	84ae                	mv	s1,a1
   18868:	c38d                	beqz	a5,1888a <_Balloc+0x30>
   1886a:	00249713          	sll	a4,s1,0x2
   1886e:	97ba                	add	a5,a5,a4
   18870:	4388                	lw	a0,0(a5)
   18872:	c515                	beqz	a0,1889e <_Balloc+0x44>
   18874:	4118                	lw	a4,0(a0)
   18876:	c398                	sw	a4,0(a5)
   18878:	00052823          	sw	zero,16(a0)
   1887c:	00052623          	sw	zero,12(a0)
   18880:	40b2                	lw	ra,12(sp)
   18882:	4422                	lw	s0,8(sp)
   18884:	4492                	lw	s1,4(sp)
   18886:	0141                	add	sp,sp,16
   18888:	8082                	ret
   1888a:	02100613          	li	a2,33
   1888e:	4591                	li	a1,4
   18890:	2e3010ef          	jal	1a372 <_calloc_r>
   18894:	c068                	sw	a0,68(s0)
   18896:	87aa                	mv	a5,a0
   18898:	f969                	bnez	a0,1886a <_Balloc+0x10>
   1889a:	4501                	li	a0,0
   1889c:	b7d5                	j	18880 <_Balloc+0x26>
   1889e:	c04a                	sw	s2,0(sp)
   188a0:	4905                	li	s2,1
   188a2:	00991933          	sll	s2,s2,s1
   188a6:	00590613          	add	a2,s2,5
   188aa:	060a                	sll	a2,a2,0x2
   188ac:	4585                	li	a1,1
   188ae:	8522                	mv	a0,s0
   188b0:	2c3010ef          	jal	1a372 <_calloc_r>
   188b4:	c511                	beqz	a0,188c0 <_Balloc+0x66>
   188b6:	01252423          	sw	s2,8(a0)
   188ba:	c144                	sw	s1,4(a0)
   188bc:	4902                	lw	s2,0(sp)
   188be:	bf6d                	j	18878 <_Balloc+0x1e>
   188c0:	4902                	lw	s2,0(sp)
   188c2:	4501                	li	a0,0
   188c4:	bf75                	j	18880 <_Balloc+0x26>

000188c6 <_Bfree>:
   188c6:	c981                	beqz	a1,188d6 <_Bfree+0x10>
   188c8:	41d8                	lw	a4,4(a1)
   188ca:	417c                	lw	a5,68(a0)
   188cc:	070a                	sll	a4,a4,0x2
   188ce:	97ba                	add	a5,a5,a4
   188d0:	4398                	lw	a4,0(a5)
   188d2:	c198                	sw	a4,0(a1)
   188d4:	c38c                	sw	a1,0(a5)
   188d6:	8082                	ret

000188d8 <__multadd>:
   188d8:	1101                	add	sp,sp,-32
   188da:	ca26                	sw	s1,20(sp)
   188dc:	4984                	lw	s1,16(a1)
   188de:	6341                	lui	t1,0x10
   188e0:	cc22                	sw	s0,24(sp)
   188e2:	c84a                	sw	s2,16(sp)
   188e4:	c64e                	sw	s3,12(sp)
   188e6:	ce06                	sw	ra,28(sp)
   188e8:	892e                	mv	s2,a1
   188ea:	89aa                	mv	s3,a0
   188ec:	8436                	mv	s0,a3
   188ee:	01458813          	add	a6,a1,20
   188f2:	4881                	li	a7,0
   188f4:	137d                	add	t1,t1,-1 # ffff <exit-0x95>
   188f6:	00082783          	lw	a5,0(a6)
   188fa:	0811                	add	a6,a6,4
   188fc:	0885                	add	a7,a7,1
   188fe:	0067f733          	and	a4,a5,t1
   18902:	02c70733          	mul	a4,a4,a2
   18906:	0107d693          	srl	a3,a5,0x10
   1890a:	02c686b3          	mul	a3,a3,a2
   1890e:	008707b3          	add	a5,a4,s0
   18912:	0107d713          	srl	a4,a5,0x10
   18916:	0067f7b3          	and	a5,a5,t1
   1891a:	96ba                	add	a3,a3,a4
   1891c:	01069713          	sll	a4,a3,0x10
   18920:	97ba                	add	a5,a5,a4
   18922:	fef82e23          	sw	a5,-4(a6)
   18926:	0106d413          	srl	s0,a3,0x10
   1892a:	fc98c6e3          	blt	a7,s1,188f6 <__multadd+0x1e>
   1892e:	cc09                	beqz	s0,18948 <__multadd+0x70>
   18930:	00892783          	lw	a5,8(s2)
   18934:	02f4d263          	bge	s1,a5,18958 <__multadd+0x80>
   18938:	00448793          	add	a5,s1,4
   1893c:	078a                	sll	a5,a5,0x2
   1893e:	97ca                	add	a5,a5,s2
   18940:	c3c0                	sw	s0,4(a5)
   18942:	0485                	add	s1,s1,1
   18944:	00992823          	sw	s1,16(s2)
   18948:	40f2                	lw	ra,28(sp)
   1894a:	4462                	lw	s0,24(sp)
   1894c:	44d2                	lw	s1,20(sp)
   1894e:	49b2                	lw	s3,12(sp)
   18950:	854a                	mv	a0,s2
   18952:	4942                	lw	s2,16(sp)
   18954:	6105                	add	sp,sp,32
   18956:	8082                	ret
   18958:	00492583          	lw	a1,4(s2)
   1895c:	854e                	mv	a0,s3
   1895e:	c452                	sw	s4,8(sp)
   18960:	0585                	add	a1,a1,1
   18962:	ef9ff0ef          	jal	1885a <_Balloc>
   18966:	8a2a                	mv	s4,a0
   18968:	c121                	beqz	a0,189a8 <__multadd+0xd0>
   1896a:	01092603          	lw	a2,16(s2)
   1896e:	00c90593          	add	a1,s2,12
   18972:	0531                	add	a0,a0,12
   18974:	0609                	add	a2,a2,2
   18976:	060a                	sll	a2,a2,0x2
   18978:	b5cfe0ef          	jal	16cd4 <memcpy>
   1897c:	00492703          	lw	a4,4(s2)
   18980:	0449a783          	lw	a5,68(s3)
   18984:	070a                	sll	a4,a4,0x2
   18986:	97ba                	add	a5,a5,a4
   18988:	4398                	lw	a4,0(a5)
   1898a:	00e92023          	sw	a4,0(s2)
   1898e:	0127a023          	sw	s2,0(a5)
   18992:	00448793          	add	a5,s1,4
   18996:	8952                	mv	s2,s4
   18998:	078a                	sll	a5,a5,0x2
   1899a:	97ca                	add	a5,a5,s2
   1899c:	4a22                	lw	s4,8(sp)
   1899e:	0485                	add	s1,s1,1
   189a0:	c3c0                	sw	s0,4(a5)
   189a2:	00992823          	sw	s1,16(s2)
   189a6:	b74d                	j	18948 <__multadd+0x70>
   189a8:	00004697          	auipc	a3,0x4
   189ac:	2ac68693          	add	a3,a3,684 # 1cc54 <__trunctfdf2+0x456>
   189b0:	4601                	li	a2,0
   189b2:	0ba00593          	li	a1,186
   189b6:	00004517          	auipc	a0,0x4
   189ba:	33250513          	add	a0,a0,818 # 1cce8 <__trunctfdf2+0x4ea>
   189be:	16d010ef          	jal	1a32a <__assert_func>

000189c2 <__s2b>:
   189c2:	1101                	add	sp,sp,-32
   189c4:	cc22                	sw	s0,24(sp)
   189c6:	ca26                	sw	s1,20(sp)
   189c8:	c84a                	sw	s2,16(sp)
   189ca:	c64e                	sw	s3,12(sp)
   189cc:	c452                	sw	s4,8(sp)
   189ce:	89b6                	mv	s3,a3
   189d0:	47a5                	li	a5,9
   189d2:	06a1                	add	a3,a3,8
   189d4:	ce06                	sw	ra,28(sp)
   189d6:	02f6c6b3          	div	a3,a3,a5
   189da:	892a                	mv	s2,a0
   189dc:	842e                	mv	s0,a1
   189de:	8a32                	mv	s4,a2
   189e0:	84ba                	mv	s1,a4
   189e2:	0937d563          	bge	a5,s3,18a6c <__s2b+0xaa>
   189e6:	4785                	li	a5,1
   189e8:	4581                	li	a1,0
   189ea:	0786                	sll	a5,a5,0x1
   189ec:	0585                	add	a1,a1,1
   189ee:	fed7cee3          	blt	a5,a3,189ea <__s2b+0x28>
   189f2:	854a                	mv	a0,s2
   189f4:	e67ff0ef          	jal	1885a <_Balloc>
   189f8:	85aa                	mv	a1,a0
   189fa:	c93d                	beqz	a0,18a70 <__s2b+0xae>
   189fc:	4785                	li	a5,1
   189fe:	c91c                	sw	a5,16(a0)
   18a00:	c944                	sw	s1,20(a0)
   18a02:	47a5                	li	a5,9
   18a04:	0747d163          	bge	a5,s4,18a66 <__s2b+0xa4>
   18a08:	c256                	sw	s5,4(sp)
   18a0a:	00940a93          	add	s5,s0,9
   18a0e:	84d6                	mv	s1,s5
   18a10:	9452                	add	s0,s0,s4
   18a12:	0004c683          	lbu	a3,0(s1)
   18a16:	4629                	li	a2,10
   18a18:	854a                	mv	a0,s2
   18a1a:	fd068693          	add	a3,a3,-48
   18a1e:	ebbff0ef          	jal	188d8 <__multadd>
   18a22:	0485                	add	s1,s1,1
   18a24:	85aa                	mv	a1,a0
   18a26:	fe8496e3          	bne	s1,s0,18a12 <__s2b+0x50>
   18a2a:	ff8a0413          	add	s0,s4,-8
   18a2e:	9456                	add	s0,s0,s5
   18a30:	4a92                	lw	s5,4(sp)
   18a32:	033a5163          	bge	s4,s3,18a54 <__s2b+0x92>
   18a36:	414989b3          	sub	s3,s3,s4
   18a3a:	99a2                	add	s3,s3,s0
   18a3c:	00044683          	lbu	a3,0(s0)
   18a40:	4629                	li	a2,10
   18a42:	854a                	mv	a0,s2
   18a44:	fd068693          	add	a3,a3,-48
   18a48:	e91ff0ef          	jal	188d8 <__multadd>
   18a4c:	0405                	add	s0,s0,1
   18a4e:	85aa                	mv	a1,a0
   18a50:	ff3416e3          	bne	s0,s3,18a3c <__s2b+0x7a>
   18a54:	40f2                	lw	ra,28(sp)
   18a56:	4462                	lw	s0,24(sp)
   18a58:	44d2                	lw	s1,20(sp)
   18a5a:	4942                	lw	s2,16(sp)
   18a5c:	49b2                	lw	s3,12(sp)
   18a5e:	4a22                	lw	s4,8(sp)
   18a60:	852e                	mv	a0,a1
   18a62:	6105                	add	sp,sp,32
   18a64:	8082                	ret
   18a66:	0429                	add	s0,s0,10
   18a68:	4a25                	li	s4,9
   18a6a:	b7e1                	j	18a32 <__s2b+0x70>
   18a6c:	4581                	li	a1,0
   18a6e:	b751                	j	189f2 <__s2b+0x30>
   18a70:	00004697          	auipc	a3,0x4
   18a74:	1e468693          	add	a3,a3,484 # 1cc54 <__trunctfdf2+0x456>
   18a78:	4601                	li	a2,0
   18a7a:	0d300593          	li	a1,211
   18a7e:	00004517          	auipc	a0,0x4
   18a82:	26a50513          	add	a0,a0,618 # 1cce8 <__trunctfdf2+0x4ea>
   18a86:	c256                	sw	s5,4(sp)
   18a88:	0a3010ef          	jal	1a32a <__assert_func>

00018a8c <__hi0bits>:
   18a8c:	87aa                	mv	a5,a0
   18a8e:	6741                	lui	a4,0x10
   18a90:	4501                	li	a0,0
   18a92:	00e7f463          	bgeu	a5,a4,18a9a <__hi0bits+0xe>
   18a96:	07c2                	sll	a5,a5,0x10
   18a98:	4541                	li	a0,16
   18a9a:	01000737          	lui	a4,0x1000
   18a9e:	00e7f463          	bgeu	a5,a4,18aa6 <__hi0bits+0x1a>
   18aa2:	0521                	add	a0,a0,8
   18aa4:	07a2                	sll	a5,a5,0x8
   18aa6:	10000737          	lui	a4,0x10000
   18aaa:	00e7f463          	bgeu	a5,a4,18ab2 <__hi0bits+0x26>
   18aae:	0511                	add	a0,a0,4
   18ab0:	0792                	sll	a5,a5,0x4
   18ab2:	40000737          	lui	a4,0x40000
   18ab6:	00e7e763          	bltu	a5,a4,18ac4 <__hi0bits+0x38>
   18aba:	fff7c793          	not	a5,a5
   18abe:	83fd                	srl	a5,a5,0x1f
   18ac0:	953e                	add	a0,a0,a5
   18ac2:	8082                	ret
   18ac4:	078a                	sll	a5,a5,0x2
   18ac6:	0007c963          	bltz	a5,18ad8 <__hi0bits+0x4c>
   18aca:	00179713          	sll	a4,a5,0x1
   18ace:	00074763          	bltz	a4,18adc <__hi0bits+0x50>
   18ad2:	02000513          	li	a0,32
   18ad6:	8082                	ret
   18ad8:	0509                	add	a0,a0,2
   18ada:	8082                	ret
   18adc:	050d                	add	a0,a0,3
   18ade:	8082                	ret

00018ae0 <__lo0bits>:
   18ae0:	411c                	lw	a5,0(a0)
   18ae2:	872a                	mv	a4,a0
   18ae4:	0077f693          	and	a3,a5,7
   18ae8:	ce81                	beqz	a3,18b00 <__lo0bits+0x20>
   18aea:	0017f693          	and	a3,a5,1
   18aee:	4501                	li	a0,0
   18af0:	ee95                	bnez	a3,18b2c <__lo0bits+0x4c>
   18af2:	0027f693          	and	a3,a5,2
   18af6:	c6b5                	beqz	a3,18b62 <__lo0bits+0x82>
   18af8:	8385                	srl	a5,a5,0x1
   18afa:	c31c                	sw	a5,0(a4)
   18afc:	4505                	li	a0,1
   18afe:	8082                	ret
   18b00:	01079693          	sll	a3,a5,0x10
   18b04:	82c1                	srl	a3,a3,0x10
   18b06:	4501                	li	a0,0
   18b08:	c6b9                	beqz	a3,18b56 <__lo0bits+0x76>
   18b0a:	0ff7f693          	zext.b	a3,a5
   18b0e:	ce95                	beqz	a3,18b4a <__lo0bits+0x6a>
   18b10:	00f7f693          	and	a3,a5,15
   18b14:	c68d                	beqz	a3,18b3e <__lo0bits+0x5e>
   18b16:	0037f693          	and	a3,a5,3
   18b1a:	ce81                	beqz	a3,18b32 <__lo0bits+0x52>
   18b1c:	0017f693          	and	a3,a5,1
   18b20:	e699                	bnez	a3,18b2e <__lo0bits+0x4e>
   18b22:	8385                	srl	a5,a5,0x1
   18b24:	0505                	add	a0,a0,1
   18b26:	e781                	bnez	a5,18b2e <__lo0bits+0x4e>
   18b28:	02000513          	li	a0,32
   18b2c:	8082                	ret
   18b2e:	c31c                	sw	a5,0(a4)
   18b30:	8082                	ret
   18b32:	8389                	srl	a5,a5,0x2
   18b34:	0017f693          	and	a3,a5,1
   18b38:	0509                	add	a0,a0,2
   18b3a:	faf5                	bnez	a3,18b2e <__lo0bits+0x4e>
   18b3c:	b7dd                	j	18b22 <__lo0bits+0x42>
   18b3e:	8391                	srl	a5,a5,0x4
   18b40:	0037f693          	and	a3,a5,3
   18b44:	0511                	add	a0,a0,4
   18b46:	faf9                	bnez	a3,18b1c <__lo0bits+0x3c>
   18b48:	b7ed                	j	18b32 <__lo0bits+0x52>
   18b4a:	83a1                	srl	a5,a5,0x8
   18b4c:	00f7f693          	and	a3,a5,15
   18b50:	0521                	add	a0,a0,8
   18b52:	f2f1                	bnez	a3,18b16 <__lo0bits+0x36>
   18b54:	b7ed                	j	18b3e <__lo0bits+0x5e>
   18b56:	83c1                	srl	a5,a5,0x10
   18b58:	0ff7f693          	zext.b	a3,a5
   18b5c:	4541                	li	a0,16
   18b5e:	facd                	bnez	a3,18b10 <__lo0bits+0x30>
   18b60:	b7ed                	j	18b4a <__lo0bits+0x6a>
   18b62:	8389                	srl	a5,a5,0x2
   18b64:	c31c                	sw	a5,0(a4)
   18b66:	4509                	li	a0,2
   18b68:	8082                	ret

00018b6a <__i2b>:
   18b6a:	417c                	lw	a5,68(a0)
   18b6c:	1141                	add	sp,sp,-16
   18b6e:	c422                	sw	s0,8(sp)
   18b70:	c226                	sw	s1,4(sp)
   18b72:	c606                	sw	ra,12(sp)
   18b74:	842a                	mv	s0,a0
   18b76:	84ae                	mv	s1,a1
   18b78:	cf99                	beqz	a5,18b96 <__i2b+0x2c>
   18b7a:	43c8                	lw	a0,4(a5)
   18b7c:	c131                	beqz	a0,18bc0 <__i2b+0x56>
   18b7e:	4118                	lw	a4,0(a0)
   18b80:	c3d8                	sw	a4,4(a5)
   18b82:	40b2                	lw	ra,12(sp)
   18b84:	4422                	lw	s0,8(sp)
   18b86:	4785                	li	a5,1
   18b88:	c944                	sw	s1,20(a0)
   18b8a:	00052623          	sw	zero,12(a0)
   18b8e:	c91c                	sw	a5,16(a0)
   18b90:	4492                	lw	s1,4(sp)
   18b92:	0141                	add	sp,sp,16
   18b94:	8082                	ret
   18b96:	02100613          	li	a2,33
   18b9a:	4591                	li	a1,4
   18b9c:	7d6010ef          	jal	1a372 <_calloc_r>
   18ba0:	c068                	sw	a0,68(s0)
   18ba2:	87aa                	mv	a5,a0
   18ba4:	f979                	bnez	a0,18b7a <__i2b+0x10>
   18ba6:	00004697          	auipc	a3,0x4
   18baa:	0ae68693          	add	a3,a3,174 # 1cc54 <__trunctfdf2+0x456>
   18bae:	4601                	li	a2,0
   18bb0:	14500593          	li	a1,325
   18bb4:	00004517          	auipc	a0,0x4
   18bb8:	13450513          	add	a0,a0,308 # 1cce8 <__trunctfdf2+0x4ea>
   18bbc:	76e010ef          	jal	1a32a <__assert_func>
   18bc0:	4671                	li	a2,28
   18bc2:	4585                	li	a1,1
   18bc4:	8522                	mv	a0,s0
   18bc6:	7ac010ef          	jal	1a372 <_calloc_r>
   18bca:	dd71                	beqz	a0,18ba6 <__i2b+0x3c>
   18bcc:	4785                	li	a5,1
   18bce:	c15c                	sw	a5,4(a0)
   18bd0:	4789                	li	a5,2
   18bd2:	c51c                	sw	a5,8(a0)
   18bd4:	b77d                	j	18b82 <__i2b+0x18>

00018bd6 <__multiply>:
   18bd6:	1101                	add	sp,sp,-32
   18bd8:	c84a                	sw	s2,16(sp)
   18bda:	c64e                	sw	s3,12(sp)
   18bdc:	0105a903          	lw	s2,16(a1)
   18be0:	01062983          	lw	s3,16(a2)
   18be4:	ca26                	sw	s1,20(sp)
   18be6:	c452                	sw	s4,8(sp)
   18be8:	ce06                	sw	ra,28(sp)
   18bea:	cc22                	sw	s0,24(sp)
   18bec:	8a2e                	mv	s4,a1
   18bee:	84b2                	mv	s1,a2
   18bf0:	01394763          	blt	s2,s3,18bfe <__multiply+0x28>
   18bf4:	874e                	mv	a4,s3
   18bf6:	84ae                	mv	s1,a1
   18bf8:	89ca                	mv	s3,s2
   18bfa:	8a32                	mv	s4,a2
   18bfc:	893a                	mv	s2,a4
   18bfe:	449c                	lw	a5,8(s1)
   18c00:	40cc                	lw	a1,4(s1)
   18c02:	01298433          	add	s0,s3,s2
   18c06:	0087a7b3          	slt	a5,a5,s0
   18c0a:	95be                	add	a1,a1,a5
   18c0c:	c4fff0ef          	jal	1885a <_Balloc>
   18c10:	14050363          	beqz	a0,18d56 <__multiply+0x180>
   18c14:	01450313          	add	t1,a0,20
   18c18:	00241893          	sll	a7,s0,0x2
   18c1c:	989a                	add	a7,a7,t1
   18c1e:	879a                	mv	a5,t1
   18c20:	01137763          	bgeu	t1,a7,18c2e <__multiply+0x58>
   18c24:	0007a023          	sw	zero,0(a5)
   18c28:	0791                	add	a5,a5,4
   18c2a:	ff17ede3          	bltu	a5,a7,18c24 <__multiply+0x4e>
   18c2e:	014a0813          	add	a6,s4,20
   18c32:	00291e13          	sll	t3,s2,0x2
   18c36:	01448e93          	add	t4,s1,20
   18c3a:	00299593          	sll	a1,s3,0x2
   18c3e:	9e42                	add	t3,t3,a6
   18c40:	95f6                	add	a1,a1,t4
   18c42:	0fc87163          	bgeu	a6,t3,18d24 <__multiply+0x14e>
   18c46:	01548793          	add	a5,s1,21
   18c4a:	4f11                	li	t5,4
   18c4c:	0ef5fe63          	bgeu	a1,a5,18d48 <__multiply+0x172>
   18c50:	66c1                	lui	a3,0x10
   18c52:	16fd                	add	a3,a3,-1 # ffff <exit-0x95>
   18c54:	a809                	j	18c66 <__multiply+0x90>
   18c56:	010fdf93          	srl	t6,t6,0x10
   18c5a:	060f9863          	bnez	t6,18cca <__multiply+0xf4>
   18c5e:	0811                	add	a6,a6,4
   18c60:	0311                	add	t1,t1,4
   18c62:	0dc87163          	bgeu	a6,t3,18d24 <__multiply+0x14e>
   18c66:	00082f83          	lw	t6,0(a6)
   18c6a:	00dff3b3          	and	t2,t6,a3
   18c6e:	fe0384e3          	beqz	t2,18c56 <__multiply+0x80>
   18c72:	829a                	mv	t0,t1
   18c74:	8ff6                	mv	t6,t4
   18c76:	4481                	li	s1,0
   18c78:	000fa783          	lw	a5,0(t6)
   18c7c:	0002a603          	lw	a2,0(t0)
   18c80:	0291                	add	t0,t0,4
   18c82:	00d7f733          	and	a4,a5,a3
   18c86:	02770733          	mul	a4,a4,t2
   18c8a:	83c1                	srl	a5,a5,0x10
   18c8c:	00d67933          	and	s2,a2,a3
   18c90:	8241                	srl	a2,a2,0x10
   18c92:	0f91                	add	t6,t6,4
   18c94:	027787b3          	mul	a5,a5,t2
   18c98:	974a                	add	a4,a4,s2
   18c9a:	9726                	add	a4,a4,s1
   18c9c:	01075493          	srl	s1,a4,0x10
   18ca0:	8f75                	and	a4,a4,a3
   18ca2:	97b2                	add	a5,a5,a2
   18ca4:	97a6                	add	a5,a5,s1
   18ca6:	01079613          	sll	a2,a5,0x10
   18caa:	8f51                	or	a4,a4,a2
   18cac:	fee2ae23          	sw	a4,-4(t0)
   18cb0:	0107d493          	srl	s1,a5,0x10
   18cb4:	fcbfe2e3          	bltu	t6,a1,18c78 <__multiply+0xa2>
   18cb8:	01e307b3          	add	a5,t1,t5
   18cbc:	c384                	sw	s1,0(a5)
   18cbe:	00082f83          	lw	t6,0(a6)
   18cc2:	010fdf93          	srl	t6,t6,0x10
   18cc6:	f80f8ce3          	beqz	t6,18c5e <__multiply+0x88>
   18cca:	00032703          	lw	a4,0(t1)
   18cce:	829a                	mv	t0,t1
   18cd0:	8676                	mv	a2,t4
   18cd2:	84ba                	mv	s1,a4
   18cd4:	4381                	li	t2,0
   18cd6:	421c                	lw	a5,0(a2)
   18cd8:	0104d993          	srl	s3,s1,0x10
   18cdc:	8f75                	and	a4,a4,a3
   18cde:	8ff5                	and	a5,a5,a3
   18ce0:	03f787b3          	mul	a5,a5,t6
   18ce4:	0042a483          	lw	s1,4(t0)
   18ce8:	0291                	add	t0,t0,4
   18cea:	0611                	add	a2,a2,4
   18cec:	00d4f933          	and	s2,s1,a3
   18cf0:	979e                	add	a5,a5,t2
   18cf2:	97ce                	add	a5,a5,s3
   18cf4:	01079393          	sll	t2,a5,0x10
   18cf8:	00e3e733          	or	a4,t2,a4
   18cfc:	fee2ae23          	sw	a4,-4(t0)
   18d00:	ffe65703          	lhu	a4,-2(a2)
   18d04:	83c1                	srl	a5,a5,0x10
   18d06:	03f70733          	mul	a4,a4,t6
   18d0a:	974a                	add	a4,a4,s2
   18d0c:	973e                	add	a4,a4,a5
   18d0e:	01075393          	srl	t2,a4,0x10
   18d12:	fcb662e3          	bltu	a2,a1,18cd6 <__multiply+0x100>
   18d16:	01e307b3          	add	a5,t1,t5
   18d1a:	c398                	sw	a4,0(a5)
   18d1c:	0811                	add	a6,a6,4
   18d1e:	0311                	add	t1,t1,4
   18d20:	f5c863e3          	bltu	a6,t3,18c66 <__multiply+0x90>
   18d24:	00804563          	bgtz	s0,18d2e <__multiply+0x158>
   18d28:	a039                	j	18d36 <__multiply+0x160>
   18d2a:	147d                	add	s0,s0,-1
   18d2c:	c409                	beqz	s0,18d36 <__multiply+0x160>
   18d2e:	ffc8a783          	lw	a5,-4(a7)
   18d32:	18f1                	add	a7,a7,-4
   18d34:	dbfd                	beqz	a5,18d2a <__multiply+0x154>
   18d36:	40f2                	lw	ra,28(sp)
   18d38:	c900                	sw	s0,16(a0)
   18d3a:	4462                	lw	s0,24(sp)
   18d3c:	44d2                	lw	s1,20(sp)
   18d3e:	4942                	lw	s2,16(sp)
   18d40:	49b2                	lw	s3,12(sp)
   18d42:	4a22                	lw	s4,8(sp)
   18d44:	6105                	add	sp,sp,32
   18d46:	8082                	ret
   18d48:	409587b3          	sub	a5,a1,s1
   18d4c:	17ad                	add	a5,a5,-21
   18d4e:	9bf1                	and	a5,a5,-4
   18d50:	00478f13          	add	t5,a5,4
   18d54:	bdf5                	j	18c50 <__multiply+0x7a>
   18d56:	00004697          	auipc	a3,0x4
   18d5a:	efe68693          	add	a3,a3,-258 # 1cc54 <__trunctfdf2+0x456>
   18d5e:	4601                	li	a2,0
   18d60:	16200593          	li	a1,354
   18d64:	00004517          	auipc	a0,0x4
   18d68:	f8450513          	add	a0,a0,-124 # 1cce8 <__trunctfdf2+0x4ea>
   18d6c:	5be010ef          	jal	1a32a <__assert_func>

00018d70 <__pow5mult>:
   18d70:	1101                	add	sp,sp,-32
   18d72:	cc22                	sw	s0,24(sp)
   18d74:	c84a                	sw	s2,16(sp)
   18d76:	c64e                	sw	s3,12(sp)
   18d78:	ce06                	sw	ra,28(sp)
   18d7a:	00367793          	and	a5,a2,3
   18d7e:	8432                	mv	s0,a2
   18d80:	89aa                	mv	s3,a0
   18d82:	892e                	mv	s2,a1
   18d84:	ebad                	bnez	a5,18df6 <__pow5mult+0x86>
   18d86:	8409                	sra	s0,s0,0x2
   18d88:	c431                	beqz	s0,18dd4 <__pow5mult+0x64>
   18d8a:	ca26                	sw	s1,20(sp)
   18d8c:	0409a483          	lw	s1,64(s3)
   18d90:	c0c1                	beqz	s1,18e10 <__pow5mult+0xa0>
   18d92:	00147793          	and	a5,s0,1
   18d96:	eb89                	bnez	a5,18da8 <__pow5mult+0x38>
   18d98:	8405                	sra	s0,s0,0x1
   18d9a:	cc05                	beqz	s0,18dd2 <__pow5mult+0x62>
   18d9c:	4088                	lw	a0,0(s1)
   18d9e:	c131                	beqz	a0,18de2 <__pow5mult+0x72>
   18da0:	84aa                	mv	s1,a0
   18da2:	00147793          	and	a5,s0,1
   18da6:	dbed                	beqz	a5,18d98 <__pow5mult+0x28>
   18da8:	8626                	mv	a2,s1
   18daa:	85ca                	mv	a1,s2
   18dac:	854e                	mv	a0,s3
   18dae:	e29ff0ef          	jal	18bd6 <__multiply>
   18db2:	00090d63          	beqz	s2,18dcc <__pow5mult+0x5c>
   18db6:	00492703          	lw	a4,4(s2)
   18dba:	0449a783          	lw	a5,68(s3)
   18dbe:	070a                	sll	a4,a4,0x2
   18dc0:	97ba                	add	a5,a5,a4
   18dc2:	4398                	lw	a4,0(a5)
   18dc4:	00e92023          	sw	a4,0(s2)
   18dc8:	0127a023          	sw	s2,0(a5)
   18dcc:	8405                	sra	s0,s0,0x1
   18dce:	892a                	mv	s2,a0
   18dd0:	f471                	bnez	s0,18d9c <__pow5mult+0x2c>
   18dd2:	44d2                	lw	s1,20(sp)
   18dd4:	40f2                	lw	ra,28(sp)
   18dd6:	4462                	lw	s0,24(sp)
   18dd8:	49b2                	lw	s3,12(sp)
   18dda:	854a                	mv	a0,s2
   18ddc:	4942                	lw	s2,16(sp)
   18dde:	6105                	add	sp,sp,32
   18de0:	8082                	ret
   18de2:	8626                	mv	a2,s1
   18de4:	85a6                	mv	a1,s1
   18de6:	854e                	mv	a0,s3
   18de8:	defff0ef          	jal	18bd6 <__multiply>
   18dec:	c088                	sw	a0,0(s1)
   18dee:	00052023          	sw	zero,0(a0)
   18df2:	84aa                	mv	s1,a0
   18df4:	b77d                	j	18da2 <__pow5mult+0x32>
   18df6:	17fd                	add	a5,a5,-1
   18df8:	00005717          	auipc	a4,0x5
   18dfc:	83c70713          	add	a4,a4,-1988 # 1d634 <p05.0>
   18e00:	078a                	sll	a5,a5,0x2
   18e02:	97ba                	add	a5,a5,a4
   18e04:	4390                	lw	a2,0(a5)
   18e06:	4681                	li	a3,0
   18e08:	ad1ff0ef          	jal	188d8 <__multadd>
   18e0c:	892a                	mv	s2,a0
   18e0e:	bfa5                	j	18d86 <__pow5mult+0x16>
   18e10:	4585                	li	a1,1
   18e12:	854e                	mv	a0,s3
   18e14:	a47ff0ef          	jal	1885a <_Balloc>
   18e18:	84aa                	mv	s1,a0
   18e1a:	c919                	beqz	a0,18e30 <__pow5mult+0xc0>
   18e1c:	27100793          	li	a5,625
   18e20:	c95c                	sw	a5,20(a0)
   18e22:	4785                	li	a5,1
   18e24:	c91c                	sw	a5,16(a0)
   18e26:	04a9a023          	sw	a0,64(s3)
   18e2a:	00052023          	sw	zero,0(a0)
   18e2e:	b795                	j	18d92 <__pow5mult+0x22>
   18e30:	00004697          	auipc	a3,0x4
   18e34:	e2468693          	add	a3,a3,-476 # 1cc54 <__trunctfdf2+0x456>
   18e38:	4601                	li	a2,0
   18e3a:	14500593          	li	a1,325
   18e3e:	00004517          	auipc	a0,0x4
   18e42:	eaa50513          	add	a0,a0,-342 # 1cce8 <__trunctfdf2+0x4ea>
   18e46:	4e4010ef          	jal	1a32a <__assert_func>

00018e4a <__lshift>:
   18e4a:	1101                	add	sp,sp,-32
   18e4c:	c256                	sw	s5,4(sp)
   18e4e:	0105aa83          	lw	s5,16(a1)
   18e52:	459c                	lw	a5,8(a1)
   18e54:	c64e                	sw	s3,12(sp)
   18e56:	40565993          	sra	s3,a2,0x5
   18e5a:	9ace                	add	s5,s5,s3
   18e5c:	cc22                	sw	s0,24(sp)
   18e5e:	ca26                	sw	s1,20(sp)
   18e60:	c84a                	sw	s2,16(sp)
   18e62:	c452                	sw	s4,8(sp)
   18e64:	ce06                	sw	ra,28(sp)
   18e66:	001a8913          	add	s2,s5,1
   18e6a:	84ae                	mv	s1,a1
   18e6c:	8432                	mv	s0,a2
   18e6e:	41cc                	lw	a1,4(a1)
   18e70:	8a2a                	mv	s4,a0
   18e72:	0127d663          	bge	a5,s2,18e7e <__lshift+0x34>
   18e76:	0786                	sll	a5,a5,0x1
   18e78:	0585                	add	a1,a1,1
   18e7a:	ff27cee3          	blt	a5,s2,18e76 <__lshift+0x2c>
   18e7e:	8552                	mv	a0,s4
   18e80:	9dbff0ef          	jal	1885a <_Balloc>
   18e84:	cd5d                	beqz	a0,18f42 <__lshift+0xf8>
   18e86:	01450813          	add	a6,a0,20
   18e8a:	01305e63          	blez	s3,18ea6 <__lshift+0x5c>
   18e8e:	0995                	add	s3,s3,5
   18e90:	098a                	sll	s3,s3,0x2
   18e92:	01350733          	add	a4,a0,s3
   18e96:	87c2                	mv	a5,a6
   18e98:	0791                	add	a5,a5,4
   18e9a:	fe07ae23          	sw	zero,-4(a5)
   18e9e:	fee79de3          	bne	a5,a4,18e98 <__lshift+0x4e>
   18ea2:	19b1                	add	s3,s3,-20
   18ea4:	984e                	add	a6,a6,s3
   18ea6:	0104a883          	lw	a7,16(s1)
   18eaa:	01448793          	add	a5,s1,20
   18eae:	01f47613          	and	a2,s0,31
   18eb2:	088a                	sll	a7,a7,0x2
   18eb4:	98be                	add	a7,a7,a5
   18eb6:	c63d                	beqz	a2,18f24 <__lshift+0xda>
   18eb8:	02000593          	li	a1,32
   18ebc:	8d91                	sub	a1,a1,a2
   18ebe:	8342                	mv	t1,a6
   18ec0:	4681                	li	a3,0
   18ec2:	4398                	lw	a4,0(a5)
   18ec4:	0311                	add	t1,t1,4
   18ec6:	0791                	add	a5,a5,4
   18ec8:	00c71733          	sll	a4,a4,a2
   18ecc:	8f55                	or	a4,a4,a3
   18ece:	fee32e23          	sw	a4,-4(t1)
   18ed2:	ffc7a683          	lw	a3,-4(a5)
   18ed6:	00b6d6b3          	srl	a3,a3,a1
   18eda:	ff17e4e3          	bltu	a5,a7,18ec2 <__lshift+0x78>
   18ede:	01548793          	add	a5,s1,21
   18ee2:	4711                	li	a4,4
   18ee4:	00f8e863          	bltu	a7,a5,18ef4 <__lshift+0xaa>
   18ee8:	409887b3          	sub	a5,a7,s1
   18eec:	17ad                	add	a5,a5,-21
   18eee:	9bf1                	and	a5,a5,-4
   18ef0:	00478713          	add	a4,a5,4
   18ef4:	983a                	add	a6,a6,a4
   18ef6:	00d82023          	sw	a3,0(a6)
   18efa:	e291                	bnez	a3,18efe <__lshift+0xb4>
   18efc:	8956                	mv	s2,s5
   18efe:	40d8                	lw	a4,4(s1)
   18f00:	044a2783          	lw	a5,68(s4)
   18f04:	40f2                	lw	ra,28(sp)
   18f06:	070a                	sll	a4,a4,0x2
   18f08:	97ba                	add	a5,a5,a4
   18f0a:	4398                	lw	a4,0(a5)
   18f0c:	01252823          	sw	s2,16(a0)
   18f10:	4462                	lw	s0,24(sp)
   18f12:	c098                	sw	a4,0(s1)
   18f14:	c384                	sw	s1,0(a5)
   18f16:	4942                	lw	s2,16(sp)
   18f18:	44d2                	lw	s1,20(sp)
   18f1a:	49b2                	lw	s3,12(sp)
   18f1c:	4a22                	lw	s4,8(sp)
   18f1e:	4a92                	lw	s5,4(sp)
   18f20:	6105                	add	sp,sp,32
   18f22:	8082                	ret
   18f24:	4398                	lw	a4,0(a5)
   18f26:	0791                	add	a5,a5,4
   18f28:	0811                	add	a6,a6,4
   18f2a:	fee82e23          	sw	a4,-4(a6)
   18f2e:	fd17f7e3          	bgeu	a5,a7,18efc <__lshift+0xb2>
   18f32:	4398                	lw	a4,0(a5)
   18f34:	0791                	add	a5,a5,4
   18f36:	0811                	add	a6,a6,4
   18f38:	fee82e23          	sw	a4,-4(a6)
   18f3c:	ff17e4e3          	bltu	a5,a7,18f24 <__lshift+0xda>
   18f40:	bf75                	j	18efc <__lshift+0xb2>
   18f42:	00004697          	auipc	a3,0x4
   18f46:	d1268693          	add	a3,a3,-750 # 1cc54 <__trunctfdf2+0x456>
   18f4a:	4601                	li	a2,0
   18f4c:	1de00593          	li	a1,478
   18f50:	00004517          	auipc	a0,0x4
   18f54:	d9850513          	add	a0,a0,-616 # 1cce8 <__trunctfdf2+0x4ea>
   18f58:	3d2010ef          	jal	1a32a <__assert_func>

00018f5c <__mcmp>:
   18f5c:	4918                	lw	a4,16(a0)
   18f5e:	499c                	lw	a5,16(a1)
   18f60:	882a                	mv	a6,a0
   18f62:	40f70533          	sub	a0,a4,a5
   18f66:	02f71863          	bne	a4,a5,18f96 <__mcmp+0x3a>
   18f6a:	078a                	sll	a5,a5,0x2
   18f6c:	0851                	add	a6,a6,20
   18f6e:	05d1                	add	a1,a1,20
   18f70:	00f80733          	add	a4,a6,a5
   18f74:	97ae                	add	a5,a5,a1
   18f76:	a019                	j	18f7c <__mcmp+0x20>
   18f78:	00e87f63          	bgeu	a6,a4,18f96 <__mcmp+0x3a>
   18f7c:	ffc72603          	lw	a2,-4(a4)
   18f80:	ffc7a683          	lw	a3,-4(a5)
   18f84:	1771                	add	a4,a4,-4
   18f86:	17f1                	add	a5,a5,-4
   18f88:	fed608e3          	beq	a2,a3,18f78 <__mcmp+0x1c>
   18f8c:	4505                	li	a0,1
   18f8e:	00d67463          	bgeu	a2,a3,18f96 <__mcmp+0x3a>
   18f92:	557d                	li	a0,-1
   18f94:	8082                	ret
   18f96:	8082                	ret

00018f98 <__mdiff>:
   18f98:	4998                	lw	a4,16(a1)
   18f9a:	4a1c                	lw	a5,16(a2)
   18f9c:	1141                	add	sp,sp,-16
   18f9e:	c422                	sw	s0,8(sp)
   18fa0:	c226                	sw	s1,4(sp)
   18fa2:	c606                	sw	ra,12(sp)
   18fa4:	c04a                	sw	s2,0(sp)
   18fa6:	842e                	mv	s0,a1
   18fa8:	84b2                	mv	s1,a2
   18faa:	40f706b3          	sub	a3,a4,a5
   18fae:	12f71863          	bne	a4,a5,190de <__mdiff+0x146>
   18fb2:	00279693          	sll	a3,a5,0x2
   18fb6:	01458613          	add	a2,a1,20
   18fba:	01448713          	add	a4,s1,20
   18fbe:	00d607b3          	add	a5,a2,a3
   18fc2:	9736                	add	a4,a4,a3
   18fc4:	a019                	j	18fca <__mdiff+0x32>
   18fc6:	12f67463          	bgeu	a2,a5,190ee <__mdiff+0x156>
   18fca:	ffc7a583          	lw	a1,-4(a5)
   18fce:	ffc72683          	lw	a3,-4(a4)
   18fd2:	17f1                	add	a5,a5,-4
   18fd4:	1771                	add	a4,a4,-4
   18fd6:	fed588e3          	beq	a1,a3,18fc6 <__mdiff+0x2e>
   18fda:	4905                	li	s2,1
   18fdc:	00d5e663          	bltu	a1,a3,18fe8 <__mdiff+0x50>
   18fe0:	87a6                	mv	a5,s1
   18fe2:	4901                	li	s2,0
   18fe4:	84a2                	mv	s1,s0
   18fe6:	843e                	mv	s0,a5
   18fe8:	40cc                	lw	a1,4(s1)
   18fea:	871ff0ef          	jal	1885a <_Balloc>
   18fee:	12050763          	beqz	a0,1911c <__mdiff+0x184>
   18ff2:	0104a883          	lw	a7,16(s1)
   18ff6:	01042283          	lw	t0,16(s0)
   18ffa:	01448f93          	add	t6,s1,20
   18ffe:	00289313          	sll	t1,a7,0x2
   19002:	01440813          	add	a6,s0,20
   19006:	028a                	sll	t0,t0,0x2
   19008:	01450593          	add	a1,a0,20
   1900c:	6e41                	lui	t3,0x10
   1900e:	01252623          	sw	s2,12(a0)
   19012:	937e                	add	t1,t1,t6
   19014:	92c2                	add	t0,t0,a6
   19016:	8f2e                	mv	t5,a1
   19018:	8efe                	mv	t4,t6
   1901a:	4681                	li	a3,0
   1901c:	1e7d                	add	t3,t3,-1 # ffff <exit-0x95>
   1901e:	000ea703          	lw	a4,0(t4)
   19022:	00082603          	lw	a2,0(a6)
   19026:	0f11                	add	t5,t5,4
   19028:	01c777b3          	and	a5,a4,t3
   1902c:	01c673b3          	and	t2,a2,t3
   19030:	407787b3          	sub	a5,a5,t2
   19034:	97b6                	add	a5,a5,a3
   19036:	8341                	srl	a4,a4,0x10
   19038:	8241                	srl	a2,a2,0x10
   1903a:	4107d693          	sra	a3,a5,0x10
   1903e:	8f11                	sub	a4,a4,a2
   19040:	9736                	add	a4,a4,a3
   19042:	01071693          	sll	a3,a4,0x10
   19046:	01c7f7b3          	and	a5,a5,t3
   1904a:	8fd5                	or	a5,a5,a3
   1904c:	0811                	add	a6,a6,4
   1904e:	feff2e23          	sw	a5,-4(t5)
   19052:	0e91                	add	t4,t4,4
   19054:	41075693          	sra	a3,a4,0x10
   19058:	fc5863e3          	bltu	a6,t0,1901e <__mdiff+0x86>
   1905c:	01540713          	add	a4,s0,21
   19060:	40828433          	sub	s0,t0,s0
   19064:	142d                	add	s0,s0,-21
   19066:	00e2b2b3          	sltu	t0,t0,a4
   1906a:	0012cf13          	xor	t5,t0,1
   1906e:	8009                	srl	s0,s0,0x2
   19070:	4711                	li	a4,4
   19072:	06028a63          	beqz	t0,190e6 <__mdiff+0x14e>
   19076:	9fba                	add	t6,t6,a4
   19078:	00e58833          	add	a6,a1,a4
   1907c:	6ec1                	lui	t4,0x10
   1907e:	8e42                	mv	t3,a6
   19080:	867e                	mv	a2,t6
   19082:	1efd                	add	t4,t4,-1 # ffff <exit-0x95>
   19084:	086ff363          	bgeu	t6,t1,1910a <__mdiff+0x172>
   19088:	421c                	lw	a5,0(a2)
   1908a:	0e11                	add	t3,t3,4
   1908c:	0611                	add	a2,a2,4
   1908e:	01d7f733          	and	a4,a5,t4
   19092:	9736                	add	a4,a4,a3
   19094:	0107d593          	srl	a1,a5,0x10
   19098:	8741                	sra	a4,a4,0x10
   1909a:	972e                	add	a4,a4,a1
   1909c:	97b6                	add	a5,a5,a3
   1909e:	01d7f7b3          	and	a5,a5,t4
   190a2:	01071693          	sll	a3,a4,0x10
   190a6:	8fd5                	or	a5,a5,a3
   190a8:	fefe2e23          	sw	a5,-4(t3)
   190ac:	41075693          	sra	a3,a4,0x10
   190b0:	fc666ce3          	bltu	a2,t1,19088 <__mdiff+0xf0>
   190b4:	137d                	add	t1,t1,-1
   190b6:	41f30333          	sub	t1,t1,t6
   190ba:	ffc37313          	and	t1,t1,-4
   190be:	00680733          	add	a4,a6,t1
   190c2:	e791                	bnez	a5,190ce <__mdiff+0x136>
   190c4:	ffc72783          	lw	a5,-4(a4)
   190c8:	18fd                	add	a7,a7,-1
   190ca:	1771                	add	a4,a4,-4
   190cc:	dfe5                	beqz	a5,190c4 <__mdiff+0x12c>
   190ce:	40b2                	lw	ra,12(sp)
   190d0:	4422                	lw	s0,8(sp)
   190d2:	01152823          	sw	a7,16(a0)
   190d6:	4492                	lw	s1,4(sp)
   190d8:	4902                	lw	s2,0(sp)
   190da:	0141                	add	sp,sp,16
   190dc:	8082                	ret
   190de:	4905                	li	s2,1
   190e0:	f006d0e3          	bgez	a3,18fe0 <__mdiff+0x48>
   190e4:	b711                	j	18fe8 <__mdiff+0x50>
   190e6:	00140713          	add	a4,s0,1
   190ea:	070a                	sll	a4,a4,0x2
   190ec:	b769                	j	19076 <__mdiff+0xde>
   190ee:	4581                	li	a1,0
   190f0:	f6aff0ef          	jal	1885a <_Balloc>
   190f4:	c129                	beqz	a0,19136 <__mdiff+0x19e>
   190f6:	40b2                	lw	ra,12(sp)
   190f8:	4422                	lw	s0,8(sp)
   190fa:	4785                	li	a5,1
   190fc:	c91c                	sw	a5,16(a0)
   190fe:	00052a23          	sw	zero,20(a0)
   19102:	4492                	lw	s1,4(sp)
   19104:	4902                	lw	s2,0(sp)
   19106:	0141                	add	sp,sp,16
   19108:	8082                	ret
   1910a:	4701                	li	a4,0
   1910c:	000f1463          	bnez	t5,19114 <__mdiff+0x17c>
   19110:	972e                	add	a4,a4,a1
   19112:	bf45                	j	190c2 <__mdiff+0x12a>
   19114:	00241713          	sll	a4,s0,0x2
   19118:	972e                	add	a4,a4,a1
   1911a:	b765                	j	190c2 <__mdiff+0x12a>
   1911c:	00004697          	auipc	a3,0x4
   19120:	b3868693          	add	a3,a3,-1224 # 1cc54 <__trunctfdf2+0x456>
   19124:	4601                	li	a2,0
   19126:	24500593          	li	a1,581
   1912a:	00004517          	auipc	a0,0x4
   1912e:	bbe50513          	add	a0,a0,-1090 # 1cce8 <__trunctfdf2+0x4ea>
   19132:	1f8010ef          	jal	1a32a <__assert_func>
   19136:	00004697          	auipc	a3,0x4
   1913a:	b1e68693          	add	a3,a3,-1250 # 1cc54 <__trunctfdf2+0x456>
   1913e:	4601                	li	a2,0
   19140:	23700593          	li	a1,567
   19144:	00004517          	auipc	a0,0x4
   19148:	ba450513          	add	a0,a0,-1116 # 1cce8 <__trunctfdf2+0x4ea>
   1914c:	1de010ef          	jal	1a32a <__assert_func>

00019150 <__ulp>:
   19150:	7ff007b7          	lui	a5,0x7ff00
   19154:	8dfd                	and	a1,a1,a5
   19156:	fcc007b7          	lui	a5,0xfcc00
   1915a:	95be                	add	a1,a1,a5
   1915c:	4781                	li	a5,0
   1915e:	00b05463          	blez	a1,19166 <__ulp+0x16>
   19162:	853e                	mv	a0,a5
   19164:	8082                	ret
   19166:	40b005b3          	neg	a1,a1
   1916a:	85d1                	sra	a1,a1,0x14
   1916c:	47cd                	li	a5,19
   1916e:	00b7c963          	blt	a5,a1,19180 <__ulp+0x30>
   19172:	000807b7          	lui	a5,0x80
   19176:	40b7d5b3          	sra	a1,a5,a1
   1917a:	4781                	li	a5,0
   1917c:	853e                	mv	a0,a5
   1917e:	8082                	ret
   19180:	15b1                	add	a1,a1,-20
   19182:	4779                	li	a4,30
   19184:	4785                	li	a5,1
   19186:	00b74663          	blt	a4,a1,19192 <__ulp+0x42>
   1918a:	800007b7          	lui	a5,0x80000
   1918e:	00b7d7b3          	srl	a5,a5,a1
   19192:	4581                	li	a1,0
   19194:	853e                	mv	a0,a5
   19196:	8082                	ret

00019198 <__b2d>:
   19198:	1101                	add	sp,sp,-32
   1919a:	ca26                	sw	s1,20(sp)
   1919c:	4904                	lw	s1,16(a0)
   1919e:	cc22                	sw	s0,24(sp)
   191a0:	01450413          	add	s0,a0,20
   191a4:	048a                	sll	s1,s1,0x2
   191a6:	94a2                	add	s1,s1,s0
   191a8:	c84a                	sw	s2,16(sp)
   191aa:	ffc4a903          	lw	s2,-4(s1)
   191ae:	c64e                	sw	s3,12(sp)
   191b0:	c452                	sw	s4,8(sp)
   191b2:	854a                	mv	a0,s2
   191b4:	89ae                	mv	s3,a1
   191b6:	ce06                	sw	ra,28(sp)
   191b8:	8d5ff0ef          	jal	18a8c <__hi0bits>
   191bc:	02000713          	li	a4,32
   191c0:	40a707b3          	sub	a5,a4,a0
   191c4:	00f9a023          	sw	a5,0(s3)
   191c8:	47a9                	li	a5,10
   191ca:	ffc48a13          	add	s4,s1,-4
   191ce:	06a7db63          	bge	a5,a0,19244 <__b2d+0xac>
   191d2:	ff550613          	add	a2,a0,-11
   191d6:	03447d63          	bgeu	s0,s4,19210 <__b2d+0x78>
   191da:	ff84a783          	lw	a5,-8(s1)
   191de:	c629                	beqz	a2,19228 <__b2d+0x90>
   191e0:	40c706b3          	sub	a3,a4,a2
   191e4:	00d7d733          	srl	a4,a5,a3
   191e8:	00c91933          	sll	s2,s2,a2
   191ec:	00e96933          	or	s2,s2,a4
   191f0:	ff848593          	add	a1,s1,-8
   191f4:	3ff00737          	lui	a4,0x3ff00
   191f8:	00e96733          	or	a4,s2,a4
   191fc:	00c797b3          	sll	a5,a5,a2
   19200:	02b47863          	bgeu	s0,a1,19230 <__b2d+0x98>
   19204:	ff44a603          	lw	a2,-12(s1)
   19208:	00d656b3          	srl	a3,a2,a3
   1920c:	8fd5                	or	a5,a5,a3
   1920e:	a00d                	j	19230 <__b2d+0x98>
   19210:	47ad                	li	a5,11
   19212:	00f50a63          	beq	a0,a5,19226 <__b2d+0x8e>
   19216:	00c91933          	sll	s2,s2,a2
   1921a:	3ff00737          	lui	a4,0x3ff00
   1921e:	00e96733          	or	a4,s2,a4
   19222:	4781                	li	a5,0
   19224:	a031                	j	19230 <__b2d+0x98>
   19226:	4781                	li	a5,0
   19228:	3ff00737          	lui	a4,0x3ff00
   1922c:	00e96733          	or	a4,s2,a4
   19230:	40f2                	lw	ra,28(sp)
   19232:	4462                	lw	s0,24(sp)
   19234:	44d2                	lw	s1,20(sp)
   19236:	4942                	lw	s2,16(sp)
   19238:	49b2                	lw	s3,12(sp)
   1923a:	4a22                	lw	s4,8(sp)
   1923c:	853e                	mv	a0,a5
   1923e:	85ba                	mv	a1,a4
   19240:	6105                	add	sp,sp,32
   19242:	8082                	ret
   19244:	46ad                	li	a3,11
   19246:	8e89                	sub	a3,a3,a0
   19248:	3ff007b7          	lui	a5,0x3ff00
   1924c:	00d95733          	srl	a4,s2,a3
   19250:	8f5d                	or	a4,a4,a5
   19252:	4781                	li	a5,0
   19254:	01447663          	bgeu	s0,s4,19260 <__b2d+0xc8>
   19258:	ff84a783          	lw	a5,-8(s1)
   1925c:	00d7d7b3          	srl	a5,a5,a3
   19260:	0555                	add	a0,a0,21
   19262:	00a91933          	sll	s2,s2,a0
   19266:	00f967b3          	or	a5,s2,a5
   1926a:	b7d9                	j	19230 <__b2d+0x98>

0001926c <__d2b>:
   1926c:	7179                	add	sp,sp,-48
   1926e:	ca56                	sw	s5,20(sp)
   19270:	8aae                	mv	s5,a1
   19272:	4585                	li	a1,1
   19274:	d226                	sw	s1,36(sp)
   19276:	ce4e                	sw	s3,28(sp)
   19278:	cc52                	sw	s4,24(sp)
   1927a:	d606                	sw	ra,44(sp)
   1927c:	d422                	sw	s0,40(sp)
   1927e:	d04a                	sw	s2,32(sp)
   19280:	84b2                	mv	s1,a2
   19282:	8a36                	mv	s4,a3
   19284:	89ba                	mv	s3,a4
   19286:	dd4ff0ef          	jal	1885a <_Balloc>
   1928a:	c955                	beqz	a0,1933e <__d2b+0xd2>
   1928c:	00100737          	lui	a4,0x100
   19290:	0144d913          	srl	s2,s1,0x14
   19294:	fff70793          	add	a5,a4,-1 # fffff <__BSS_END__+0xe127b>
   19298:	7ff97913          	and	s2,s2,2047
   1929c:	842a                	mv	s0,a0
   1929e:	8fe5                	and	a5,a5,s1
   192a0:	00090363          	beqz	s2,192a6 <__d2b+0x3a>
   192a4:	8fd9                	or	a5,a5,a4
   192a6:	c63e                	sw	a5,12(sp)
   192a8:	040a9263          	bnez	s5,192ec <__d2b+0x80>
   192ac:	0068                	add	a0,sp,12
   192ae:	833ff0ef          	jal	18ae0 <__lo0bits>
   192b2:	4732                	lw	a4,12(sp)
   192b4:	4485                	li	s1,1
   192b6:	c804                	sw	s1,16(s0)
   192b8:	c858                	sw	a4,20(s0)
   192ba:	02050793          	add	a5,a0,32
   192be:	06090063          	beqz	s2,1931e <__d2b+0xb2>
   192c2:	bcd90913          	add	s2,s2,-1075
   192c6:	993e                	add	s2,s2,a5
   192c8:	03500493          	li	s1,53
   192cc:	012a2023          	sw	s2,0(s4)
   192d0:	40f48533          	sub	a0,s1,a5
   192d4:	00a9a023          	sw	a0,0(s3)
   192d8:	50b2                	lw	ra,44(sp)
   192da:	8522                	mv	a0,s0
   192dc:	5422                	lw	s0,40(sp)
   192de:	5492                	lw	s1,36(sp)
   192e0:	5902                	lw	s2,32(sp)
   192e2:	49f2                	lw	s3,28(sp)
   192e4:	4a62                	lw	s4,24(sp)
   192e6:	4ad2                	lw	s5,20(sp)
   192e8:	6145                	add	sp,sp,48
   192ea:	8082                	ret
   192ec:	0028                	add	a0,sp,8
   192ee:	c456                	sw	s5,8(sp)
   192f0:	ff0ff0ef          	jal	18ae0 <__lo0bits>
   192f4:	4732                	lw	a4,12(sp)
   192f6:	87aa                	mv	a5,a0
   192f8:	c129                	beqz	a0,1933a <__d2b+0xce>
   192fa:	4622                	lw	a2,8(sp)
   192fc:	02000693          	li	a3,32
   19300:	8e89                	sub	a3,a3,a0
   19302:	00d716b3          	sll	a3,a4,a3
   19306:	00a75733          	srl	a4,a4,a0
   1930a:	8ed1                	or	a3,a3,a2
   1930c:	c63a                	sw	a4,12(sp)
   1930e:	00e034b3          	snez	s1,a4
   19312:	0485                	add	s1,s1,1
   19314:	c854                	sw	a3,20(s0)
   19316:	cc18                	sw	a4,24(s0)
   19318:	c804                	sw	s1,16(s0)
   1931a:	fa0914e3          	bnez	s2,192c2 <__d2b+0x56>
   1931e:	00249713          	sll	a4,s1,0x2
   19322:	9722                	add	a4,a4,s0
   19324:	4b08                	lw	a0,16(a4)
   19326:	bce78793          	add	a5,a5,-1074 # 3feffbce <__BSS_END__+0x3fee0e4a>
   1932a:	00fa2023          	sw	a5,0(s4)
   1932e:	f5eff0ef          	jal	18a8c <__hi0bits>
   19332:	0496                	sll	s1,s1,0x5
   19334:	40a48533          	sub	a0,s1,a0
   19338:	bf71                	j	192d4 <__d2b+0x68>
   1933a:	46a2                	lw	a3,8(sp)
   1933c:	bfc9                	j	1930e <__d2b+0xa2>
   1933e:	00004697          	auipc	a3,0x4
   19342:	91668693          	add	a3,a3,-1770 # 1cc54 <__trunctfdf2+0x456>
   19346:	4601                	li	a2,0
   19348:	30f00593          	li	a1,783
   1934c:	00004517          	auipc	a0,0x4
   19350:	99c50513          	add	a0,a0,-1636 # 1cce8 <__trunctfdf2+0x4ea>
   19354:	7d7000ef          	jal	1a32a <__assert_func>

00019358 <__ratio>:
   19358:	7179                	add	sp,sp,-48
   1935a:	d04a                	sw	s2,32(sp)
   1935c:	892e                	mv	s2,a1
   1935e:	002c                	add	a1,sp,8
   19360:	d606                	sw	ra,44(sp)
   19362:	d422                	sw	s0,40(sp)
   19364:	d226                	sw	s1,36(sp)
   19366:	ce4e                	sw	s3,28(sp)
   19368:	89aa                	mv	s3,a0
   1936a:	e2fff0ef          	jal	19198 <__b2d>
   1936e:	84aa                	mv	s1,a0
   19370:	842e                	mv	s0,a1
   19372:	854a                	mv	a0,s2
   19374:	006c                	add	a1,sp,12
   19376:	e23ff0ef          	jal	19198 <__b2d>
   1937a:	01092703          	lw	a4,16(s2)
   1937e:	0109a783          	lw	a5,16(s3)
   19382:	46b2                	lw	a3,12(sp)
   19384:	8f99                	sub	a5,a5,a4
   19386:	4722                	lw	a4,8(sp)
   19388:	0796                	sll	a5,a5,0x5
   1938a:	8f15                	sub	a4,a4,a3
   1938c:	97ba                	add	a5,a5,a4
   1938e:	872a                	mv	a4,a0
   19390:	02f05163          	blez	a5,193b2 <__ratio+0x5a>
   19394:	07d2                	sll	a5,a5,0x14
   19396:	943e                	add	s0,s0,a5
   19398:	86ae                	mv	a3,a1
   1939a:	8526                	mv	a0,s1
   1939c:	85a2                	mv	a1,s0
   1939e:	863a                	mv	a2,a4
   193a0:	6c5010ef          	jal	1b264 <__divdf3>
   193a4:	50b2                	lw	ra,44(sp)
   193a6:	5422                	lw	s0,40(sp)
   193a8:	5492                	lw	s1,36(sp)
   193aa:	5902                	lw	s2,32(sp)
   193ac:	49f2                	lw	s3,28(sp)
   193ae:	6145                	add	sp,sp,48
   193b0:	8082                	ret
   193b2:	07d2                	sll	a5,a5,0x14
   193b4:	8d9d                	sub	a1,a1,a5
   193b6:	b7cd                	j	19398 <__ratio+0x40>

000193b8 <_mprec_log10>:
   193b8:	1141                	add	sp,sp,-16
   193ba:	c04a                	sw	s2,0(sp)
   193bc:	c606                	sw	ra,12(sp)
   193be:	47dd                	li	a5,23
   193c0:	892a                	mv	s2,a0
   193c2:	04a7d063          	bge	a5,a0,19402 <_mprec_log10+0x4a>
   193c6:	00005717          	auipc	a4,0x5
   193ca:	38a70713          	add	a4,a4,906 # 1e750 <__SDATA_BEGIN__+0x48>
   193ce:	431c                	lw	a5,0(a4)
   193d0:	434c                	lw	a1,4(a4)
   193d2:	00005717          	auipc	a4,0x5
   193d6:	38670713          	add	a4,a4,902 # 1e758 <__SDATA_BEGIN__+0x50>
   193da:	c422                	sw	s0,8(sp)
   193dc:	c226                	sw	s1,4(sp)
   193de:	4300                	lw	s0,0(a4)
   193e0:	4344                	lw	s1,4(a4)
   193e2:	853e                	mv	a0,a5
   193e4:	8622                	mv	a2,s0
   193e6:	86a6                	mv	a3,s1
   193e8:	628020ef          	jal	1ba10 <__muldf3>
   193ec:	197d                	add	s2,s2,-1
   193ee:	87aa                	mv	a5,a0
   193f0:	fe0919e3          	bnez	s2,193e2 <_mprec_log10+0x2a>
   193f4:	4422                	lw	s0,8(sp)
   193f6:	40b2                	lw	ra,12(sp)
   193f8:	4492                	lw	s1,4(sp)
   193fa:	4902                	lw	s2,0(sp)
   193fc:	853e                	mv	a0,a5
   193fe:	0141                	add	sp,sp,16
   19400:	8082                	ret
   19402:	00351913          	sll	s2,a0,0x3
   19406:	00004717          	auipc	a4,0x4
   1940a:	28a70713          	add	a4,a4,650 # 1d690 <__mprec_tens>
   1940e:	974a                	add	a4,a4,s2
   19410:	431c                	lw	a5,0(a4)
   19412:	40b2                	lw	ra,12(sp)
   19414:	434c                	lw	a1,4(a4)
   19416:	4902                	lw	s2,0(sp)
   19418:	853e                	mv	a0,a5
   1941a:	0141                	add	sp,sp,16
   1941c:	8082                	ret

0001941e <__copybits>:
   1941e:	4a14                	lw	a3,16(a2)
   19420:	15fd                	add	a1,a1,-1
   19422:	8595                	sra	a1,a1,0x5
   19424:	0585                	add	a1,a1,1
   19426:	01460793          	add	a5,a2,20
   1942a:	068a                	sll	a3,a3,0x2
   1942c:	058a                	sll	a1,a1,0x2
   1942e:	96be                	add	a3,a3,a5
   19430:	95aa                	add	a1,a1,a0
   19432:	02d7f163          	bgeu	a5,a3,19454 <__copybits+0x36>
   19436:	872a                	mv	a4,a0
   19438:	0007a803          	lw	a6,0(a5)
   1943c:	0791                	add	a5,a5,4
   1943e:	0711                	add	a4,a4,4
   19440:	ff072e23          	sw	a6,-4(a4)
   19444:	fed7eae3          	bltu	a5,a3,19438 <__copybits+0x1a>
   19448:	40c687b3          	sub	a5,a3,a2
   1944c:	17ad                	add	a5,a5,-21
   1944e:	9bf1                	and	a5,a5,-4
   19450:	0791                	add	a5,a5,4
   19452:	953e                	add	a0,a0,a5
   19454:	00b57763          	bgeu	a0,a1,19462 <__copybits+0x44>
   19458:	0511                	add	a0,a0,4
   1945a:	fe052e23          	sw	zero,-4(a0)
   1945e:	feb56de3          	bltu	a0,a1,19458 <__copybits+0x3a>
   19462:	8082                	ret

00019464 <__any_on>:
   19464:	4918                	lw	a4,16(a0)
   19466:	4055d613          	sra	a2,a1,0x5
   1946a:	01450693          	add	a3,a0,20
   1946e:	00c75d63          	bge	a4,a2,19488 <__any_on+0x24>
   19472:	070a                	sll	a4,a4,0x2
   19474:	00e687b3          	add	a5,a3,a4
   19478:	02f6f863          	bgeu	a3,a5,194a8 <__any_on+0x44>
   1947c:	ffc7a703          	lw	a4,-4(a5)
   19480:	17f1                	add	a5,a5,-4
   19482:	db7d                	beqz	a4,19478 <__any_on+0x14>
   19484:	4505                	li	a0,1
   19486:	8082                	ret
   19488:	00261793          	sll	a5,a2,0x2
   1948c:	97b6                	add	a5,a5,a3
   1948e:	fee655e3          	bge	a2,a4,19478 <__any_on+0x14>
   19492:	89fd                	and	a1,a1,31
   19494:	d1f5                	beqz	a1,19478 <__any_on+0x14>
   19496:	4390                	lw	a2,0(a5)
   19498:	4505                	li	a0,1
   1949a:	00b65733          	srl	a4,a2,a1
   1949e:	00b71733          	sll	a4,a4,a1
   194a2:	fce60be3          	beq	a2,a4,19478 <__any_on+0x14>
   194a6:	8082                	ret
   194a8:	4501                	li	a0,0
   194aa:	8082                	ret

000194ac <_realloc_r>:
   194ac:	7179                	add	sp,sp,-48
   194ae:	d226                	sw	s1,36(sp)
   194b0:	d606                	sw	ra,44(sp)
   194b2:	84b2                	mv	s1,a2
   194b4:	14058e63          	beqz	a1,19610 <_realloc_r+0x164>
   194b8:	d422                	sw	s0,40(sp)
   194ba:	d04a                	sw	s2,32(sp)
   194bc:	842e                	mv	s0,a1
   194be:	ce4e                	sw	s3,28(sp)
   194c0:	ca56                	sw	s5,20(sp)
   194c2:	cc52                	sw	s4,24(sp)
   194c4:	892a                	mv	s2,a0
   194c6:	f5ff80ef          	jal	12424 <__malloc_lock>
   194ca:	ffc42703          	lw	a4,-4(s0)
   194ce:	00b48793          	add	a5,s1,11
   194d2:	46d9                	li	a3,22
   194d4:	ff840a93          	add	s5,s0,-8
   194d8:	ffc77993          	and	s3,a4,-4
   194dc:	0cf6f063          	bgeu	a3,a5,1959c <_realloc_r+0xf0>
   194e0:	ff87fa13          	and	s4,a5,-8
   194e4:	0a07cf63          	bltz	a5,195a2 <_realloc_r+0xf6>
   194e8:	0a9a6d63          	bltu	s4,s1,195a2 <_realloc_r+0xf6>
   194ec:	0d49d663          	bge	s3,s4,195b8 <_realloc_r+0x10c>
   194f0:	c462                	sw	s8,8(sp)
   194f2:	00005c17          	auipc	s8,0x5
   194f6:	c7ec0c13          	add	s8,s8,-898 # 1e170 <__malloc_av_>
   194fa:	008c2603          	lw	a2,8(s8)
   194fe:	013a86b3          	add	a3,s5,s3
   19502:	42dc                	lw	a5,4(a3)
   19504:	12d60e63          	beq	a2,a3,19640 <_realloc_r+0x194>
   19508:	ffe7f613          	and	a2,a5,-2
   1950c:	9636                	add	a2,a2,a3
   1950e:	4250                	lw	a2,4(a2)
   19510:	8a05                	and	a2,a2,1
   19512:	e27d                	bnez	a2,195f8 <_realloc_r+0x14c>
   19514:	9bf1                	and	a5,a5,-4
   19516:	00f98633          	add	a2,s3,a5
   1951a:	09465963          	bge	a2,s4,195ac <_realloc_r+0x100>
   1951e:	8b05                	and	a4,a4,1
   19520:	e70d                	bnez	a4,1954a <_realloc_r+0x9e>
   19522:	c65e                	sw	s7,12(sp)
   19524:	ff842b83          	lw	s7,-8(s0)
   19528:	c85a                	sw	s6,16(sp)
   1952a:	417a8bb3          	sub	s7,s5,s7
   1952e:	004ba703          	lw	a4,4(s7)
   19532:	9b71                	and	a4,a4,-4
   19534:	97ba                	add	a5,a5,a4
   19536:	01378b33          	add	s6,a5,s3
   1953a:	234b5f63          	bge	s6,s4,19778 <_realloc_r+0x2cc>
   1953e:	00e98b33          	add	s6,s3,a4
   19542:	1d4b5463          	bge	s6,s4,1970a <_realloc_r+0x25e>
   19546:	4b42                	lw	s6,16(sp)
   19548:	4bb2                	lw	s7,12(sp)
   1954a:	85a6                	mv	a1,s1
   1954c:	854a                	mv	a0,s2
   1954e:	929f80ef          	jal	11e76 <_malloc_r>
   19552:	84aa                	mv	s1,a0
   19554:	2e050063          	beqz	a0,19834 <_realloc_r+0x388>
   19558:	ffc42783          	lw	a5,-4(s0)
   1955c:	ff850713          	add	a4,a0,-8
   19560:	9bf9                	and	a5,a5,-2
   19562:	97d6                	add	a5,a5,s5
   19564:	18e78d63          	beq	a5,a4,196fe <_realloc_r+0x252>
   19568:	ffc98613          	add	a2,s3,-4
   1956c:	02400793          	li	a5,36
   19570:	20c7e063          	bltu	a5,a2,19770 <_realloc_r+0x2c4>
   19574:	474d                	li	a4,19
   19576:	16c76863          	bltu	a4,a2,196e6 <_realloc_r+0x23a>
   1957a:	87aa                	mv	a5,a0
   1957c:	8722                	mv	a4,s0
   1957e:	4314                	lw	a3,0(a4)
   19580:	c394                	sw	a3,0(a5)
   19582:	4354                	lw	a3,4(a4)
   19584:	c3d4                	sw	a3,4(a5)
   19586:	4718                	lw	a4,8(a4)
   19588:	c798                	sw	a4,8(a5)
   1958a:	85a2                	mv	a1,s0
   1958c:	854a                	mv	a0,s2
   1958e:	ec0f80ef          	jal	11c4e <_free_r>
   19592:	854a                	mv	a0,s2
   19594:	e99f80ef          	jal	1242c <__malloc_unlock>
   19598:	4c22                	lw	s8,8(sp)
   1959a:	a0a9                	j	195e4 <_realloc_r+0x138>
   1959c:	4a41                	li	s4,16
   1959e:	f49a77e3          	bgeu	s4,s1,194ec <_realloc_r+0x40>
   195a2:	47b1                	li	a5,12
   195a4:	00f92023          	sw	a5,0(s2)
   195a8:	4481                	li	s1,0
   195aa:	a82d                	j	195e4 <_realloc_r+0x138>
   195ac:	46dc                	lw	a5,12(a3)
   195ae:	4698                	lw	a4,8(a3)
   195b0:	4c22                	lw	s8,8(sp)
   195b2:	89b2                	mv	s3,a2
   195b4:	c75c                	sw	a5,12(a4)
   195b6:	c798                	sw	a4,8(a5)
   195b8:	004aa783          	lw	a5,4(s5)
   195bc:	414986b3          	sub	a3,s3,s4
   195c0:	463d                	li	a2,15
   195c2:	8b85                	and	a5,a5,1
   195c4:	013a8733          	add	a4,s5,s3
   195c8:	04d66a63          	bltu	a2,a3,1961c <_realloc_r+0x170>
   195cc:	0137e7b3          	or	a5,a5,s3
   195d0:	00faa223          	sw	a5,4(s5)
   195d4:	435c                	lw	a5,4(a4)
   195d6:	0017e793          	or	a5,a5,1
   195da:	c35c                	sw	a5,4(a4)
   195dc:	854a                	mv	a0,s2
   195de:	e4ff80ef          	jal	1242c <__malloc_unlock>
   195e2:	84a2                	mv	s1,s0
   195e4:	5422                	lw	s0,40(sp)
   195e6:	50b2                	lw	ra,44(sp)
   195e8:	5902                	lw	s2,32(sp)
   195ea:	49f2                	lw	s3,28(sp)
   195ec:	4a62                	lw	s4,24(sp)
   195ee:	4ad2                	lw	s5,20(sp)
   195f0:	8526                	mv	a0,s1
   195f2:	5492                	lw	s1,36(sp)
   195f4:	6145                	add	sp,sp,48
   195f6:	8082                	ret
   195f8:	8b05                	and	a4,a4,1
   195fa:	fb21                	bnez	a4,1954a <_realloc_r+0x9e>
   195fc:	c65e                	sw	s7,12(sp)
   195fe:	ff842b83          	lw	s7,-8(s0)
   19602:	c85a                	sw	s6,16(sp)
   19604:	417a8bb3          	sub	s7,s5,s7
   19608:	004ba703          	lw	a4,4(s7)
   1960c:	9b71                	and	a4,a4,-4
   1960e:	bf05                	j	1953e <_realloc_r+0x92>
   19610:	50b2                	lw	ra,44(sp)
   19612:	5492                	lw	s1,36(sp)
   19614:	85b2                	mv	a1,a2
   19616:	6145                	add	sp,sp,48
   19618:	85ff806f          	j	11e76 <_malloc_r>
   1961c:	0147e7b3          	or	a5,a5,s4
   19620:	00faa223          	sw	a5,4(s5)
   19624:	014a85b3          	add	a1,s5,s4
   19628:	0016e693          	or	a3,a3,1
   1962c:	c1d4                	sw	a3,4(a1)
   1962e:	435c                	lw	a5,4(a4)
   19630:	05a1                	add	a1,a1,8
   19632:	854a                	mv	a0,s2
   19634:	0017e793          	or	a5,a5,1
   19638:	c35c                	sw	a5,4(a4)
   1963a:	e14f80ef          	jal	11c4e <_free_r>
   1963e:	bf79                	j	195dc <_realloc_r+0x130>
   19640:	9bf1                	and	a5,a5,-4
   19642:	013786b3          	add	a3,a5,s3
   19646:	010a0613          	add	a2,s4,16
   1964a:	1ac6db63          	bge	a3,a2,19800 <_realloc_r+0x354>
   1964e:	8b05                	and	a4,a4,1
   19650:	ee071de3          	bnez	a4,1954a <_realloc_r+0x9e>
   19654:	c65e                	sw	s7,12(sp)
   19656:	ff842b83          	lw	s7,-8(s0)
   1965a:	c85a                	sw	s6,16(sp)
   1965c:	417a8bb3          	sub	s7,s5,s7
   19660:	004ba703          	lw	a4,4(s7)
   19664:	9b71                	and	a4,a4,-4
   19666:	97ba                	add	a5,a5,a4
   19668:	01378b33          	add	s6,a5,s3
   1966c:	eccb49e3          	blt	s6,a2,1953e <_realloc_r+0x92>
   19670:	00cba783          	lw	a5,12(s7)
   19674:	008ba703          	lw	a4,8(s7)
   19678:	ffc98613          	add	a2,s3,-4
   1967c:	02400693          	li	a3,36
   19680:	c75c                	sw	a5,12(a4)
   19682:	c798                	sw	a4,8(a5)
   19684:	008b8493          	add	s1,s7,8
   19688:	1cc6e563          	bltu	a3,a2,19852 <_realloc_r+0x3a6>
   1968c:	474d                	li	a4,19
   1968e:	87a6                	mv	a5,s1
   19690:	00c77e63          	bgeu	a4,a2,196ac <_realloc_r+0x200>
   19694:	4018                	lw	a4,0(s0)
   19696:	47ed                	li	a5,27
   19698:	00eba423          	sw	a4,8(s7)
   1969c:	4058                	lw	a4,4(s0)
   1969e:	00eba623          	sw	a4,12(s7)
   196a2:	1ac7ed63          	bltu	a5,a2,1985c <_realloc_r+0x3b0>
   196a6:	0421                	add	s0,s0,8
   196a8:	010b8793          	add	a5,s7,16
   196ac:	4018                	lw	a4,0(s0)
   196ae:	c398                	sw	a4,0(a5)
   196b0:	4058                	lw	a4,4(s0)
   196b2:	c3d8                	sw	a4,4(a5)
   196b4:	4418                	lw	a4,8(s0)
   196b6:	c798                	sw	a4,8(a5)
   196b8:	014b8733          	add	a4,s7,s4
   196bc:	414b07b3          	sub	a5,s6,s4
   196c0:	00ec2423          	sw	a4,8(s8)
   196c4:	0017e793          	or	a5,a5,1
   196c8:	c35c                	sw	a5,4(a4)
   196ca:	004ba783          	lw	a5,4(s7)
   196ce:	854a                	mv	a0,s2
   196d0:	8b85                	and	a5,a5,1
   196d2:	0147e7b3          	or	a5,a5,s4
   196d6:	00fba223          	sw	a5,4(s7)
   196da:	d53f80ef          	jal	1242c <__malloc_unlock>
   196de:	4b42                	lw	s6,16(sp)
   196e0:	4bb2                	lw	s7,12(sp)
   196e2:	4c22                	lw	s8,8(sp)
   196e4:	b701                	j	195e4 <_realloc_r+0x138>
   196e6:	4014                	lw	a3,0(s0)
   196e8:	476d                	li	a4,27
   196ea:	c114                	sw	a3,0(a0)
   196ec:	4054                	lw	a3,4(s0)
   196ee:	c154                	sw	a3,4(a0)
   196f0:	0ec76d63          	bltu	a4,a2,197ea <_realloc_r+0x33e>
   196f4:	00840713          	add	a4,s0,8
   196f8:	00850793          	add	a5,a0,8
   196fc:	b549                	j	1957e <_realloc_r+0xd2>
   196fe:	ffc52783          	lw	a5,-4(a0)
   19702:	4c22                	lw	s8,8(sp)
   19704:	9bf1                	and	a5,a5,-4
   19706:	99be                	add	s3,s3,a5
   19708:	bd45                	j	195b8 <_realloc_r+0x10c>
   1970a:	00cba783          	lw	a5,12(s7)
   1970e:	008ba703          	lw	a4,8(s7)
   19712:	ffc98613          	add	a2,s3,-4
   19716:	02400693          	li	a3,36
   1971a:	c75c                	sw	a5,12(a4)
   1971c:	c798                	sw	a4,8(a5)
   1971e:	008b8493          	add	s1,s7,8
   19722:	0ac6ef63          	bltu	a3,a2,197e0 <_realloc_r+0x334>
   19726:	474d                	li	a4,19
   19728:	87a6                	mv	a5,s1
   1972a:	02c77663          	bgeu	a4,a2,19756 <_realloc_r+0x2aa>
   1972e:	4018                	lw	a4,0(s0)
   19730:	47ed                	li	a5,27
   19732:	00eba423          	sw	a4,8(s7)
   19736:	4058                	lw	a4,4(s0)
   19738:	00eba623          	sw	a4,12(s7)
   1973c:	0ec7f863          	bgeu	a5,a2,1982c <_realloc_r+0x380>
   19740:	441c                	lw	a5,8(s0)
   19742:	00fba823          	sw	a5,16(s7)
   19746:	445c                	lw	a5,12(s0)
   19748:	00fbaa23          	sw	a5,20(s7)
   1974c:	06d60f63          	beq	a2,a3,197ca <_realloc_r+0x31e>
   19750:	0441                	add	s0,s0,16
   19752:	018b8793          	add	a5,s7,24
   19756:	4018                	lw	a4,0(s0)
   19758:	c398                	sw	a4,0(a5)
   1975a:	4058                	lw	a4,4(s0)
   1975c:	c3d8                	sw	a4,4(a5)
   1975e:	4418                	lw	a4,8(s0)
   19760:	c798                	sw	a4,8(a5)
   19762:	89da                	mv	s3,s6
   19764:	8ade                	mv	s5,s7
   19766:	4b42                	lw	s6,16(sp)
   19768:	4bb2                	lw	s7,12(sp)
   1976a:	4c22                	lw	s8,8(sp)
   1976c:	8426                	mv	s0,s1
   1976e:	b5a9                	j	195b8 <_realloc_r+0x10c>
   19770:	85a2                	mv	a1,s0
   19772:	c96fd0ef          	jal	16c08 <memmove>
   19776:	bd11                	j	1958a <_realloc_r+0xde>
   19778:	46dc                	lw	a5,12(a3)
   1977a:	4698                	lw	a4,8(a3)
   1977c:	ffc98613          	add	a2,s3,-4
   19780:	02400693          	li	a3,36
   19784:	c75c                	sw	a5,12(a4)
   19786:	c798                	sw	a4,8(a5)
   19788:	008ba703          	lw	a4,8(s7)
   1978c:	00cba783          	lw	a5,12(s7)
   19790:	008b8493          	add	s1,s7,8
   19794:	c75c                	sw	a5,12(a4)
   19796:	c798                	sw	a4,8(a5)
   19798:	04c6e463          	bltu	a3,a2,197e0 <_realloc_r+0x334>
   1979c:	474d                	li	a4,19
   1979e:	87a6                	mv	a5,s1
   197a0:	fac77be3          	bgeu	a4,a2,19756 <_realloc_r+0x2aa>
   197a4:	4018                	lw	a4,0(s0)
   197a6:	47ed                	li	a5,27
   197a8:	00eba423          	sw	a4,8(s7)
   197ac:	4058                	lw	a4,4(s0)
   197ae:	00eba623          	sw	a4,12(s7)
   197b2:	06c7fd63          	bgeu	a5,a2,1982c <_realloc_r+0x380>
   197b6:	4418                	lw	a4,8(s0)
   197b8:	02400793          	li	a5,36
   197bc:	00eba823          	sw	a4,16(s7)
   197c0:	4458                	lw	a4,12(s0)
   197c2:	00ebaa23          	sw	a4,20(s7)
   197c6:	f8f615e3          	bne	a2,a5,19750 <_realloc_r+0x2a4>
   197ca:	4818                	lw	a4,16(s0)
   197cc:	020b8793          	add	a5,s7,32
   197d0:	0461                	add	s0,s0,24
   197d2:	00ebac23          	sw	a4,24(s7)
   197d6:	ffc42703          	lw	a4,-4(s0)
   197da:	00ebae23          	sw	a4,28(s7)
   197de:	bfa5                	j	19756 <_realloc_r+0x2aa>
   197e0:	85a2                	mv	a1,s0
   197e2:	8526                	mv	a0,s1
   197e4:	c24fd0ef          	jal	16c08 <memmove>
   197e8:	bfad                	j	19762 <_realloc_r+0x2b6>
   197ea:	4418                	lw	a4,8(s0)
   197ec:	c518                	sw	a4,8(a0)
   197ee:	4458                	lw	a4,12(s0)
   197f0:	c558                	sw	a4,12(a0)
   197f2:	04f60763          	beq	a2,a5,19840 <_realloc_r+0x394>
   197f6:	01040713          	add	a4,s0,16
   197fa:	01050793          	add	a5,a0,16
   197fe:	b341                	j	1957e <_realloc_r+0xd2>
   19800:	9ad2                	add	s5,s5,s4
   19802:	414687b3          	sub	a5,a3,s4
   19806:	015c2423          	sw	s5,8(s8)
   1980a:	0017e793          	or	a5,a5,1
   1980e:	00faa223          	sw	a5,4(s5)
   19812:	ffc42783          	lw	a5,-4(s0)
   19816:	854a                	mv	a0,s2
   19818:	84a2                	mv	s1,s0
   1981a:	8b85                	and	a5,a5,1
   1981c:	0147e7b3          	or	a5,a5,s4
   19820:	fef42e23          	sw	a5,-4(s0)
   19824:	c09f80ef          	jal	1242c <__malloc_unlock>
   19828:	4c22                	lw	s8,8(sp)
   1982a:	bb6d                	j	195e4 <_realloc_r+0x138>
   1982c:	0421                	add	s0,s0,8
   1982e:	010b8793          	add	a5,s7,16
   19832:	b715                	j	19756 <_realloc_r+0x2aa>
   19834:	854a                	mv	a0,s2
   19836:	bf7f80ef          	jal	1242c <__malloc_unlock>
   1983a:	4481                	li	s1,0
   1983c:	4c22                	lw	s8,8(sp)
   1983e:	b35d                	j	195e4 <_realloc_r+0x138>
   19840:	4814                	lw	a3,16(s0)
   19842:	01840713          	add	a4,s0,24
   19846:	01850793          	add	a5,a0,24
   1984a:	c914                	sw	a3,16(a0)
   1984c:	4854                	lw	a3,20(s0)
   1984e:	c954                	sw	a3,20(a0)
   19850:	b33d                	j	1957e <_realloc_r+0xd2>
   19852:	85a2                	mv	a1,s0
   19854:	8526                	mv	a0,s1
   19856:	bb2fd0ef          	jal	16c08 <memmove>
   1985a:	bdb9                	j	196b8 <_realloc_r+0x20c>
   1985c:	441c                	lw	a5,8(s0)
   1985e:	00fba823          	sw	a5,16(s7)
   19862:	445c                	lw	a5,12(s0)
   19864:	00fbaa23          	sw	a5,20(s7)
   19868:	00d60663          	beq	a2,a3,19874 <_realloc_r+0x3c8>
   1986c:	0441                	add	s0,s0,16
   1986e:	018b8793          	add	a5,s7,24
   19872:	bd2d                	j	196ac <_realloc_r+0x200>
   19874:	4818                	lw	a4,16(s0)
   19876:	020b8793          	add	a5,s7,32
   1987a:	00ebac23          	sw	a4,24(s7)
   1987e:	4858                	lw	a4,20(s0)
   19880:	0461                	add	s0,s0,24
   19882:	00ebae23          	sw	a4,28(s7)
   19886:	b51d                	j	196ac <_realloc_r+0x200>

00019888 <_strtol_l.isra.0>:
   19888:	1141                	add	sp,sp,-16
   1988a:	c606                	sw	ra,12(sp)
   1988c:	02400793          	li	a5,36
   19890:	08d7ee63          	bltu	a5,a3,1992c <_strtol_l.isra.0+0xa4>
   19894:	4705                	li	a4,1
   19896:	82b6                	mv	t0,a3
   19898:	87ae                	mv	a5,a1
   1989a:	00004897          	auipc	a7,0x4
   1989e:	ebf88893          	add	a7,a7,-321 # 1d759 <_ctype_+0x1>
   198a2:	08e68563          	beq	a3,a4,1992c <_strtol_l.isra.0+0xa4>
   198a6:	c422                	sw	s0,8(sp)
   198a8:	c226                	sw	s1,4(sp)
   198aa:	0007c803          	lbu	a6,0(a5)
   198ae:	833e                	mv	t1,a5
   198b0:	0785                	add	a5,a5,1
   198b2:	01088733          	add	a4,a7,a6
   198b6:	00074703          	lbu	a4,0(a4)
   198ba:	8b21                	and	a4,a4,8
   198bc:	f77d                	bnez	a4,198aa <_strtol_l.isra.0+0x22>
   198be:	02d00713          	li	a4,45
   198c2:	10e80063          	beq	a6,a4,199c2 <_strtol_l.isra.0+0x13a>
   198c6:	02b00713          	li	a4,43
   198ca:	06e80963          	beq	a6,a4,1993c <_strtol_l.isra.0+0xb4>
   198ce:	800003b7          	lui	t2,0x80000
   198d2:	13fd                	add	t2,t2,-1 # 7fffffff <__BSS_END__+0x7ffe127b>
   198d4:	4481                	li	s1,0
   198d6:	eea5                	bnez	a3,1994e <_strtol_l.isra.0+0xc6>
   198d8:	03000713          	li	a4,48
   198dc:	0ee80b63          	beq	a6,a4,199d2 <_strtol_l.isra.0+0x14a>
   198e0:	42a9                	li	t0,10
   198e2:	46a9                	li	a3,10
   198e4:	0253f433          	remu	s0,t2,t0
   198e8:	4301                	li	t1,0
   198ea:	4881                	li	a7,0
   198ec:	4e25                	li	t3,9
   198ee:	4fe5                	li	t6,25
   198f0:	5efd                	li	t4,-1
   198f2:	0253df33          	divu	t5,t2,t0
   198f6:	fd080713          	add	a4,a6,-48
   198fa:	00ee7863          	bgeu	t3,a4,1990a <_strtol_l.isra.0+0x82>
   198fe:	fbf80713          	add	a4,a6,-65
   19902:	06efec63          	bltu	t6,a4,1997a <_strtol_l.isra.0+0xf2>
   19906:	fc980713          	add	a4,a6,-55
   1990a:	08d75063          	bge	a4,a3,1998a <_strtol_l.isra.0+0x102>
   1990e:	01d30b63          	beq	t1,t4,19924 <_strtol_l.isra.0+0x9c>
   19912:	537d                	li	t1,-1
   19914:	011f6863          	bltu	t5,a7,19924 <_strtol_l.isra.0+0x9c>
   19918:	091f0963          	beq	t5,a7,199aa <_strtol_l.isra.0+0x122>
   1991c:	4305                	li	t1,1
   1991e:	025888b3          	mul	a7,a7,t0
   19922:	98ba                	add	a7,a7,a4
   19924:	0785                	add	a5,a5,1
   19926:	fff7c803          	lbu	a6,-1(a5)
   1992a:	b7f1                	j	198f6 <_strtol_l.isra.0+0x6e>
   1992c:	1f9000ef          	jal	1a324 <__errno>
   19930:	40b2                	lw	ra,12(sp)
   19932:	47d9                	li	a5,22
   19934:	c11c                	sw	a5,0(a0)
   19936:	4501                	li	a0,0
   19938:	0141                	add	sp,sp,16
   1993a:	8082                	ret
   1993c:	800003b7          	lui	t2,0x80000
   19940:	0007c803          	lbu	a6,0(a5)
   19944:	13fd                	add	t2,t2,-1 # 7fffffff <__BSS_END__+0x7ffe127b>
   19946:	00230793          	add	a5,t1,2
   1994a:	4481                	li	s1,0
   1994c:	d6d1                	beqz	a3,198d8 <_strtol_l.isra.0+0x50>
   1994e:	4741                	li	a4,16
   19950:	f8e69ae3          	bne	a3,a4,198e4 <_strtol_l.isra.0+0x5c>
   19954:	03000713          	li	a4,48
   19958:	42c1                	li	t0,16
   1995a:	f8e815e3          	bne	a6,a4,198e4 <_strtol_l.isra.0+0x5c>
   1995e:	0007c703          	lbu	a4,0(a5)
   19962:	05800893          	li	a7,88
   19966:	0df77713          	and	a4,a4,223
   1996a:	f7171de3          	bne	a4,a7,198e4 <_strtol_l.isra.0+0x5c>
   1996e:	0017c803          	lbu	a6,1(a5)
   19972:	42c1                	li	t0,16
   19974:	0789                	add	a5,a5,2
   19976:	46c1                	li	a3,16
   19978:	b7b5                	j	198e4 <_strtol_l.isra.0+0x5c>
   1997a:	f9f80713          	add	a4,a6,-97
   1997e:	00efe663          	bltu	t6,a4,1998a <_strtol_l.isra.0+0x102>
   19982:	fa980713          	add	a4,a6,-87
   19986:	f8d744e3          	blt	a4,a3,1990e <_strtol_l.isra.0+0x86>
   1998a:	577d                	li	a4,-1
   1998c:	02e30263          	beq	t1,a4,199b0 <_strtol_l.isra.0+0x128>
   19990:	c099                	beqz	s1,19996 <_strtol_l.isra.0+0x10e>
   19992:	411008b3          	neg	a7,a7
   19996:	c601                	beqz	a2,1999e <_strtol_l.isra.0+0x116>
   19998:	04031863          	bnez	t1,199e8 <_strtol_l.isra.0+0x160>
   1999c:	c20c                	sw	a1,0(a2)
   1999e:	4422                	lw	s0,8(sp)
   199a0:	40b2                	lw	ra,12(sp)
   199a2:	4492                	lw	s1,4(sp)
   199a4:	8546                	mv	a0,a7
   199a6:	0141                	add	sp,sp,16
   199a8:	8082                	ret
   199aa:	f6e44de3          	blt	s0,a4,19924 <_strtol_l.isra.0+0x9c>
   199ae:	b7bd                	j	1991c <_strtol_l.isra.0+0x94>
   199b0:	02200713          	li	a4,34
   199b4:	c118                	sw	a4,0(a0)
   199b6:	889e                	mv	a7,t2
   199b8:	d27d                	beqz	a2,1999e <_strtol_l.isra.0+0x116>
   199ba:	fff78593          	add	a1,a5,-1
   199be:	889e                	mv	a7,t2
   199c0:	bff1                	j	1999c <_strtol_l.isra.0+0x114>
   199c2:	0007c803          	lbu	a6,0(a5)
   199c6:	800003b7          	lui	t2,0x80000
   199ca:	00230793          	add	a5,t1,2
   199ce:	4485                	li	s1,1
   199d0:	b719                	j	198d6 <_strtol_l.isra.0+0x4e>
   199d2:	0007c703          	lbu	a4,0(a5)
   199d6:	05800893          	li	a7,88
   199da:	42a1                	li	t0,8
   199dc:	0df77713          	and	a4,a4,223
   199e0:	46a1                	li	a3,8
   199e2:	f11711e3          	bne	a4,a7,198e4 <_strtol_l.isra.0+0x5c>
   199e6:	b761                	j	1996e <_strtol_l.isra.0+0xe6>
   199e8:	83c6                	mv	t2,a7
   199ea:	bfc1                	j	199ba <_strtol_l.isra.0+0x132>

000199ec <_strtol_r>:
   199ec:	e9dff06f          	j	19888 <_strtol_l.isra.0>

000199f0 <strtol_l>:
   199f0:	86b2                	mv	a3,a2
   199f2:	862e                	mv	a2,a1
   199f4:	85aa                	mv	a1,a0
   199f6:	f681a503          	lw	a0,-152(gp) # 1e778 <_impure_ptr>
   199fa:	e8fff06f          	j	19888 <_strtol_l.isra.0>

000199fe <strtol>:
   199fe:	86b2                	mv	a3,a2
   19a00:	862e                	mv	a2,a1
   19a02:	85aa                	mv	a1,a0
   19a04:	f681a503          	lw	a0,-152(gp) # 1e778 <_impure_ptr>
   19a08:	e81ff06f          	j	19888 <_strtol_l.isra.0>

00019a0c <_wctomb_r>:
   19a0c:	e481a783          	lw	a5,-440(gp) # 1e658 <__global_locale+0xe0>
   19a10:	8782                	jr	a5

00019a12 <__ascii_wctomb>:
   19a12:	cd91                	beqz	a1,19a2e <__ascii_wctomb+0x1c>
   19a14:	0ff00793          	li	a5,255
   19a18:	00c7e663          	bltu	a5,a2,19a24 <__ascii_wctomb+0x12>
   19a1c:	00c58023          	sb	a2,0(a1)
   19a20:	4505                	li	a0,1
   19a22:	8082                	ret
   19a24:	08a00793          	li	a5,138
   19a28:	c11c                	sw	a5,0(a0)
   19a2a:	557d                	li	a0,-1
   19a2c:	8082                	ret
   19a2e:	4501                	li	a0,0
   19a30:	8082                	ret

00019a32 <__utf8_wctomb>:
   19a32:	c9c1                	beqz	a1,19ac2 <__utf8_wctomb+0x90>
   19a34:	07f00793          	li	a5,127
   19a38:	06c7f363          	bgeu	a5,a2,19a9e <__utf8_wctomb+0x6c>
   19a3c:	f8060793          	add	a5,a2,-128
   19a40:	77f00713          	li	a4,1919
   19a44:	06f77163          	bgeu	a4,a5,19aa6 <__utf8_wctomb+0x74>
   19a48:	67bd                	lui	a5,0xf
   19a4a:	80060713          	add	a4,a2,-2048
   19a4e:	7ff78793          	add	a5,a5,2047 # f7ff <exit-0x895>
   19a52:	06e7fa63          	bgeu	a5,a4,19ac6 <__utf8_wctomb+0x94>
   19a56:	77c1                	lui	a5,0xffff0
   19a58:	97b2                	add	a5,a5,a2
   19a5a:	00100737          	lui	a4,0x100
   19a5e:	08e7fa63          	bgeu	a5,a4,19af2 <__utf8_wctomb+0xc0>
   19a62:	00c65713          	srl	a4,a2,0xc
   19a66:	00665793          	srl	a5,a2,0x6
   19a6a:	01265693          	srl	a3,a2,0x12
   19a6e:	03f77713          	and	a4,a4,63
   19a72:	03f7f793          	and	a5,a5,63
   19a76:	03f67613          	and	a2,a2,63
   19a7a:	ff06e693          	or	a3,a3,-16
   19a7e:	f8076713          	or	a4,a4,-128
   19a82:	f807e793          	or	a5,a5,-128
   19a86:	f8066613          	or	a2,a2,-128
   19a8a:	00d58023          	sb	a3,0(a1)
   19a8e:	00e580a3          	sb	a4,1(a1)
   19a92:	00f58123          	sb	a5,2(a1)
   19a96:	00c581a3          	sb	a2,3(a1)
   19a9a:	4511                	li	a0,4
   19a9c:	8082                	ret
   19a9e:	00c58023          	sb	a2,0(a1)
   19aa2:	4505                	li	a0,1
   19aa4:	8082                	ret
   19aa6:	00665793          	srl	a5,a2,0x6
   19aaa:	03f67613          	and	a2,a2,63
   19aae:	fc07e793          	or	a5,a5,-64
   19ab2:	f8066613          	or	a2,a2,-128
   19ab6:	00f58023          	sb	a5,0(a1)
   19aba:	00c580a3          	sb	a2,1(a1)
   19abe:	4509                	li	a0,2
   19ac0:	8082                	ret
   19ac2:	4501                	li	a0,0
   19ac4:	8082                	ret
   19ac6:	00665793          	srl	a5,a2,0x6
   19aca:	00c65713          	srl	a4,a2,0xc
   19ace:	03f7f793          	and	a5,a5,63
   19ad2:	03f67613          	and	a2,a2,63
   19ad6:	fe076713          	or	a4,a4,-32
   19ada:	f807e793          	or	a5,a5,-128
   19ade:	f8066613          	or	a2,a2,-128
   19ae2:	00e58023          	sb	a4,0(a1)
   19ae6:	00f580a3          	sb	a5,1(a1)
   19aea:	00c58123          	sb	a2,2(a1)
   19aee:	450d                	li	a0,3
   19af0:	8082                	ret
   19af2:	08a00793          	li	a5,138
   19af6:	c11c                	sw	a5,0(a0)
   19af8:	557d                	li	a0,-1
   19afa:	8082                	ret

00019afc <__sjis_wctomb>:
   19afc:	00865793          	srl	a5,a2,0x8
   19b00:	0ff7f793          	zext.b	a5,a5
   19b04:	0ff67613          	zext.b	a2,a2
   19b08:	c9a1                	beqz	a1,19b58 <__sjis_wctomb+0x5c>
   19b0a:	c3b9                	beqz	a5,19b50 <__sjis_wctomb+0x54>
   19b0c:	07f78713          	add	a4,a5,127 # ffff007f <__BSS_END__+0xfffd12fb>
   19b10:	0ff77713          	zext.b	a4,a4
   19b14:	46f9                	li	a3,30
   19b16:	00e6f963          	bgeu	a3,a4,19b28 <__sjis_wctomb+0x2c>
   19b1a:	02078713          	add	a4,a5,32
   19b1e:	0ff77713          	zext.b	a4,a4
   19b22:	46bd                	li	a3,15
   19b24:	02e6ec63          	bltu	a3,a4,19b5c <__sjis_wctomb+0x60>
   19b28:	fc060713          	add	a4,a2,-64
   19b2c:	0ff77713          	zext.b	a4,a4
   19b30:	03e00693          	li	a3,62
   19b34:	00e6f863          	bgeu	a3,a4,19b44 <__sjis_wctomb+0x48>
   19b38:	08064713          	xor	a4,a2,128
   19b3c:	07c00693          	li	a3,124
   19b40:	00e6ee63          	bltu	a3,a4,19b5c <__sjis_wctomb+0x60>
   19b44:	00f58023          	sb	a5,0(a1)
   19b48:	00c580a3          	sb	a2,1(a1)
   19b4c:	4509                	li	a0,2
   19b4e:	8082                	ret
   19b50:	00c58023          	sb	a2,0(a1)
   19b54:	4505                	li	a0,1
   19b56:	8082                	ret
   19b58:	4501                	li	a0,0
   19b5a:	8082                	ret
   19b5c:	08a00793          	li	a5,138
   19b60:	c11c                	sw	a5,0(a0)
   19b62:	557d                	li	a0,-1
   19b64:	8082                	ret

00019b66 <__eucjp_wctomb>:
   19b66:	00865793          	srl	a5,a2,0x8
   19b6a:	0ff7f793          	zext.b	a5,a5
   19b6e:	0ff67613          	zext.b	a2,a2
   19b72:	c1bd                	beqz	a1,19bd8 <__eucjp_wctomb+0x72>
   19b74:	cba1                	beqz	a5,19bc4 <__eucjp_wctomb+0x5e>
   19b76:	07278713          	add	a4,a5,114
   19b7a:	0ff77713          	zext.b	a4,a4
   19b7e:	4685                	li	a3,1
   19b80:	04e6fe63          	bgeu	a3,a4,19bdc <__eucjp_wctomb+0x76>
   19b84:	05f78713          	add	a4,a5,95
   19b88:	0ff77713          	zext.b	a4,a4
   19b8c:	05d00693          	li	a3,93
   19b90:	04e6ee63          	bltu	a3,a4,19bec <__eucjp_wctomb+0x86>
   19b94:	05f60713          	add	a4,a2,95
   19b98:	0ff77713          	zext.b	a4,a4
   19b9c:	02e6f863          	bgeu	a3,a4,19bcc <__eucjp_wctomb+0x66>
   19ba0:	08066613          	or	a2,a2,128
   19ba4:	05f60713          	add	a4,a2,95
   19ba8:	0ff77713          	zext.b	a4,a4
   19bac:	04e6e063          	bltu	a3,a4,19bec <__eucjp_wctomb+0x86>
   19bb0:	f8f00713          	li	a4,-113
   19bb4:	00e58023          	sb	a4,0(a1)
   19bb8:	00f580a3          	sb	a5,1(a1)
   19bbc:	00c58123          	sb	a2,2(a1)
   19bc0:	450d                	li	a0,3
   19bc2:	8082                	ret
   19bc4:	00c58023          	sb	a2,0(a1)
   19bc8:	4505                	li	a0,1
   19bca:	8082                	ret
   19bcc:	00f58023          	sb	a5,0(a1)
   19bd0:	00c580a3          	sb	a2,1(a1)
   19bd4:	4509                	li	a0,2
   19bd6:	8082                	ret
   19bd8:	4501                	li	a0,0
   19bda:	8082                	ret
   19bdc:	05f60713          	add	a4,a2,95
   19be0:	0ff77713          	zext.b	a4,a4
   19be4:	05d00693          	li	a3,93
   19be8:	fee6f2e3          	bgeu	a3,a4,19bcc <__eucjp_wctomb+0x66>
   19bec:	08a00793          	li	a5,138
   19bf0:	c11c                	sw	a5,0(a0)
   19bf2:	557d                	li	a0,-1
   19bf4:	8082                	ret

00019bf6 <__jis_wctomb>:
   19bf6:	00865793          	srl	a5,a2,0x8
   19bfa:	0ff7f793          	zext.b	a5,a5
   19bfe:	0ff67613          	zext.b	a2,a2
   19c02:	cda5                	beqz	a1,19c7a <__jis_wctomb+0x84>
   19c04:	c7b1                	beqz	a5,19c50 <__jis_wctomb+0x5a>
   19c06:	fdf78713          	add	a4,a5,-33
   19c0a:	0ff77713          	zext.b	a4,a4
   19c0e:	05d00813          	li	a6,93
   19c12:	06e86663          	bltu	a6,a4,19c7e <__jis_wctomb+0x88>
   19c16:	fdf60713          	add	a4,a2,-33
   19c1a:	0ff77713          	zext.b	a4,a4
   19c1e:	06e86063          	bltu	a6,a4,19c7e <__jis_wctomb+0x88>
   19c22:	4298                	lw	a4,0(a3)
   19c24:	4509                	li	a0,2
   19c26:	e305                	bnez	a4,19c46 <__jis_wctomb+0x50>
   19c28:	4705                	li	a4,1
   19c2a:	c298                	sw	a4,0(a3)
   19c2c:	476d                	li	a4,27
   19c2e:	00e58023          	sb	a4,0(a1)
   19c32:	02400713          	li	a4,36
   19c36:	00e580a3          	sb	a4,1(a1)
   19c3a:	04200713          	li	a4,66
   19c3e:	00e58123          	sb	a4,2(a1)
   19c42:	4515                	li	a0,5
   19c44:	058d                	add	a1,a1,3
   19c46:	00f58023          	sb	a5,0(a1)
   19c4a:	00c580a3          	sb	a2,1(a1)
   19c4e:	8082                	ret
   19c50:	429c                	lw	a5,0(a3)
   19c52:	4505                	li	a0,1
   19c54:	c385                	beqz	a5,19c74 <__jis_wctomb+0x7e>
   19c56:	0006a023          	sw	zero,0(a3)
   19c5a:	47ed                	li	a5,27
   19c5c:	00f58023          	sb	a5,0(a1)
   19c60:	02800793          	li	a5,40
   19c64:	00f580a3          	sb	a5,1(a1)
   19c68:	04200793          	li	a5,66
   19c6c:	00f58123          	sb	a5,2(a1)
   19c70:	4511                	li	a0,4
   19c72:	058d                	add	a1,a1,3
   19c74:	00c58023          	sb	a2,0(a1)
   19c78:	8082                	ret
   19c7a:	4505                	li	a0,1
   19c7c:	8082                	ret
   19c7e:	08a00793          	li	a5,138
   19c82:	c11c                	sw	a5,0(a0)
   19c84:	557d                	li	a0,-1
   19c86:	8082                	ret

00019c88 <_wcrtomb_r>:
   19c88:	1101                	add	sp,sp,-32
   19c8a:	cc22                	sw	s0,24(sp)
   19c8c:	ca26                	sw	s1,20(sp)
   19c8e:	ce06                	sw	ra,28(sp)
   19c90:	84aa                	mv	s1,a0
   19c92:	10450413          	add	s0,a0,260
   19c96:	c291                	beqz	a3,19c9a <_wcrtomb_r+0x12>
   19c98:	8436                	mv	s0,a3
   19c9a:	e481a783          	lw	a5,-440(gp) # 1e658 <__global_locale+0xe0>
   19c9e:	86a2                	mv	a3,s0
   19ca0:	c999                	beqz	a1,19cb6 <_wcrtomb_r+0x2e>
   19ca2:	8526                	mv	a0,s1
   19ca4:	9782                	jalr	a5
   19ca6:	57fd                	li	a5,-1
   19ca8:	00f50e63          	beq	a0,a5,19cc4 <_wcrtomb_r+0x3c>
   19cac:	40f2                	lw	ra,28(sp)
   19cae:	4462                	lw	s0,24(sp)
   19cb0:	44d2                	lw	s1,20(sp)
   19cb2:	6105                	add	sp,sp,32
   19cb4:	8082                	ret
   19cb6:	4601                	li	a2,0
   19cb8:	004c                	add	a1,sp,4
   19cba:	8526                	mv	a0,s1
   19cbc:	9782                	jalr	a5
   19cbe:	57fd                	li	a5,-1
   19cc0:	fef516e3          	bne	a0,a5,19cac <_wcrtomb_r+0x24>
   19cc4:	00042023          	sw	zero,0(s0)
   19cc8:	40f2                	lw	ra,28(sp)
   19cca:	4462                	lw	s0,24(sp)
   19ccc:	08a00793          	li	a5,138
   19cd0:	c09c                	sw	a5,0(s1)
   19cd2:	44d2                	lw	s1,20(sp)
   19cd4:	6105                	add	sp,sp,32
   19cd6:	8082                	ret

00019cd8 <wcrtomb>:
   19cd8:	1101                	add	sp,sp,-32
   19cda:	cc22                	sw	s0,24(sp)
   19cdc:	ca26                	sw	s1,20(sp)
   19cde:	8432                	mv	s0,a2
   19ce0:	ce06                	sw	ra,28(sp)
   19ce2:	862e                	mv	a2,a1
   19ce4:	f681a483          	lw	s1,-152(gp) # 1e778 <_impure_ptr>
   19ce8:	c005                	beqz	s0,19d08 <wcrtomb+0x30>
   19cea:	e481a783          	lw	a5,-440(gp) # 1e658 <__global_locale+0xe0>
   19cee:	86a2                	mv	a3,s0
   19cf0:	c115                	beqz	a0,19d14 <wcrtomb+0x3c>
   19cf2:	85aa                	mv	a1,a0
   19cf4:	8526                	mv	a0,s1
   19cf6:	9782                	jalr	a5
   19cf8:	57fd                	li	a5,-1
   19cfa:	02f50463          	beq	a0,a5,19d22 <wcrtomb+0x4a>
   19cfe:	40f2                	lw	ra,28(sp)
   19d00:	4462                	lw	s0,24(sp)
   19d02:	44d2                	lw	s1,20(sp)
   19d04:	6105                	add	sp,sp,32
   19d06:	8082                	ret
   19d08:	10448413          	add	s0,s1,260
   19d0c:	e481a783          	lw	a5,-440(gp) # 1e658 <__global_locale+0xe0>
   19d10:	86a2                	mv	a3,s0
   19d12:	f165                	bnez	a0,19cf2 <wcrtomb+0x1a>
   19d14:	4601                	li	a2,0
   19d16:	004c                	add	a1,sp,4
   19d18:	8526                	mv	a0,s1
   19d1a:	9782                	jalr	a5
   19d1c:	57fd                	li	a5,-1
   19d1e:	fef510e3          	bne	a0,a5,19cfe <wcrtomb+0x26>
   19d22:	00042023          	sw	zero,0(s0)
   19d26:	40f2                	lw	ra,28(sp)
   19d28:	4462                	lw	s0,24(sp)
   19d2a:	08a00793          	li	a5,138
   19d2e:	c09c                	sw	a5,0(s1)
   19d30:	44d2                	lw	s1,20(sp)
   19d32:	6105                	add	sp,sp,32
   19d34:	8082                	ret

00019d36 <_wcsrtombs_r>:
   19d36:	87ba                	mv	a5,a4
   19d38:	8736                	mv	a4,a3
   19d3a:	56fd                	li	a3,-1
   19d3c:	0170006f          	j	1a552 <_wcsnrtombs_r>

00019d40 <wcsrtombs>:
   19d40:	8732                	mv	a4,a2
   19d42:	87b6                	mv	a5,a3
   19d44:	862e                	mv	a2,a1
   19d46:	56fd                	li	a3,-1
   19d48:	85aa                	mv	a1,a0
   19d4a:	f681a503          	lw	a0,-152(gp) # 1e778 <_impure_ptr>
   19d4e:	0050006f          	j	1a552 <_wcsnrtombs_r>

00019d52 <__set_ctype>:
   19d52:	00004797          	auipc	a5,0x4
   19d56:	a0678793          	add	a5,a5,-1530 # 1d758 <_ctype_>
   19d5a:	0ef52623          	sw	a5,236(a0)
   19d5e:	8082                	ret

00019d60 <__smakebuf_r>:
   19d60:	00c59783          	lh	a5,12(a1)
   19d64:	7119                	add	sp,sp,-128
   19d66:	dca2                	sw	s0,120(sp)
   19d68:	de86                	sw	ra,124(sp)
   19d6a:	0027f713          	and	a4,a5,2
   19d6e:	842e                	mv	s0,a1
   19d70:	cb19                	beqz	a4,19d86 <__smakebuf_r+0x26>
   19d72:	04358793          	add	a5,a1,67
   19d76:	c19c                	sw	a5,0(a1)
   19d78:	c99c                	sw	a5,16(a1)
   19d7a:	4785                	li	a5,1
   19d7c:	c9dc                	sw	a5,20(a1)
   19d7e:	50f6                	lw	ra,124(sp)
   19d80:	5466                	lw	s0,120(sp)
   19d82:	6109                	add	sp,sp,128
   19d84:	8082                	ret
   19d86:	00e59583          	lh	a1,14(a1)
   19d8a:	daa6                	sw	s1,116(sp)
   19d8c:	d8ca                	sw	s2,112(sp)
   19d8e:	d6ce                	sw	s3,108(sp)
   19d90:	d4d2                	sw	s4,104(sp)
   19d92:	84aa                	mv	s1,a0
   19d94:	0605c263          	bltz	a1,19df8 <__smakebuf_r+0x98>
   19d98:	0030                	add	a2,sp,8
   19d9a:	232d                	jal	1a2c4 <_fstat_r>
   19d9c:	04054c63          	bltz	a0,19df4 <__smakebuf_r+0x94>
   19da0:	47b2                	lw	a5,12(sp)
   19da2:	693d                	lui	s2,0xf
   19da4:	6985                	lui	s3,0x1
   19da6:	00f97933          	and	s2,s2,a5
   19daa:	77f9                	lui	a5,0xffffe
   19dac:	993e                	add	s2,s2,a5
   19dae:	00193913          	seqz	s2,s2
   19db2:	40000a13          	li	s4,1024
   19db6:	80098993          	add	s3,s3,-2048 # 800 <exit-0xf894>
   19dba:	85d2                	mv	a1,s4
   19dbc:	8526                	mv	a0,s1
   19dbe:	8b8f80ef          	jal	11e76 <_malloc_r>
   19dc2:	00c41783          	lh	a5,12(s0)
   19dc6:	c539                	beqz	a0,19e14 <__smakebuf_r+0xb4>
   19dc8:	0807e793          	or	a5,a5,128
   19dcc:	c008                	sw	a0,0(s0)
   19dce:	c808                	sw	a0,16(s0)
   19dd0:	00f41623          	sh	a5,12(s0)
   19dd4:	01442a23          	sw	s4,20(s0)
   19dd8:	06091563          	bnez	s2,19e42 <__smakebuf_r+0xe2>
   19ddc:	0137e7b3          	or	a5,a5,s3
   19de0:	50f6                	lw	ra,124(sp)
   19de2:	00f41623          	sh	a5,12(s0)
   19de6:	5466                	lw	s0,120(sp)
   19de8:	54d6                	lw	s1,116(sp)
   19dea:	5946                	lw	s2,112(sp)
   19dec:	59b6                	lw	s3,108(sp)
   19dee:	5a26                	lw	s4,104(sp)
   19df0:	6109                	add	sp,sp,128
   19df2:	8082                	ret
   19df4:	00c41783          	lh	a5,12(s0)
   19df8:	0807f793          	and	a5,a5,128
   19dfc:	4901                	li	s2,0
   19dfe:	cf95                	beqz	a5,19e3a <__smakebuf_r+0xda>
   19e00:	04000a13          	li	s4,64
   19e04:	85d2                	mv	a1,s4
   19e06:	8526                	mv	a0,s1
   19e08:	86ef80ef          	jal	11e76 <_malloc_r>
   19e0c:	00c41783          	lh	a5,12(s0)
   19e10:	4981                	li	s3,0
   19e12:	f95d                	bnez	a0,19dc8 <__smakebuf_r+0x68>
   19e14:	2007f713          	and	a4,a5,512
   19e18:	ef0d                	bnez	a4,19e52 <__smakebuf_r+0xf2>
   19e1a:	9bf1                	and	a5,a5,-4
   19e1c:	0027e793          	or	a5,a5,2
   19e20:	04340713          	add	a4,s0,67
   19e24:	00f41623          	sh	a5,12(s0)
   19e28:	4785                	li	a5,1
   19e2a:	54d6                	lw	s1,116(sp)
   19e2c:	5946                	lw	s2,112(sp)
   19e2e:	59b6                	lw	s3,108(sp)
   19e30:	5a26                	lw	s4,104(sp)
   19e32:	c018                	sw	a4,0(s0)
   19e34:	c818                	sw	a4,16(s0)
   19e36:	c85c                	sw	a5,20(s0)
   19e38:	b799                	j	19d7e <__smakebuf_r+0x1e>
   19e3a:	40000a13          	li	s4,1024
   19e3e:	4981                	li	s3,0
   19e40:	bfad                	j	19dba <__smakebuf_r+0x5a>
   19e42:	00e41583          	lh	a1,14(s0)
   19e46:	8526                	mv	a0,s1
   19e48:	217d                	jal	1a2f6 <_isatty_r>
   19e4a:	e909                	bnez	a0,19e5c <__smakebuf_r+0xfc>
   19e4c:	00c41783          	lh	a5,12(s0)
   19e50:	b771                	j	19ddc <__smakebuf_r+0x7c>
   19e52:	54d6                	lw	s1,116(sp)
   19e54:	5946                	lw	s2,112(sp)
   19e56:	59b6                	lw	s3,108(sp)
   19e58:	5a26                	lw	s4,104(sp)
   19e5a:	b715                	j	19d7e <__smakebuf_r+0x1e>
   19e5c:	00c45783          	lhu	a5,12(s0)
   19e60:	9bf1                	and	a5,a5,-4
   19e62:	0017e793          	or	a5,a5,1
   19e66:	07c2                	sll	a5,a5,0x10
   19e68:	87c1                	sra	a5,a5,0x10
   19e6a:	bf8d                	j	19ddc <__smakebuf_r+0x7c>

00019e6c <__swhatbuf_r>:
   19e6c:	7159                	add	sp,sp,-112
   19e6e:	d4a2                	sw	s0,104(sp)
   19e70:	842e                	mv	s0,a1
   19e72:	00e59583          	lh	a1,14(a1)
   19e76:	d2a6                	sw	s1,100(sp)
   19e78:	d0ca                	sw	s2,96(sp)
   19e7a:	d686                	sw	ra,108(sp)
   19e7c:	84b2                	mv	s1,a2
   19e7e:	8936                	mv	s2,a3
   19e80:	0205cb63          	bltz	a1,19eb6 <__swhatbuf_r+0x4a>
   19e84:	0030                	add	a2,sp,8
   19e86:	293d                	jal	1a2c4 <_fstat_r>
   19e88:	02054763          	bltz	a0,19eb6 <__swhatbuf_r+0x4a>
   19e8c:	4732                	lw	a4,12(sp)
   19e8e:	67bd                	lui	a5,0xf
   19e90:	50b6                	lw	ra,108(sp)
   19e92:	8ff9                	and	a5,a5,a4
   19e94:	7779                	lui	a4,0xffffe
   19e96:	97ba                	add	a5,a5,a4
   19e98:	5426                	lw	s0,104(sp)
   19e9a:	0017b793          	seqz	a5,a5
   19e9e:	00f92023          	sw	a5,0(s2) # f000 <exit-0x1094>
   19ea2:	40000713          	li	a4,1024
   19ea6:	c098                	sw	a4,0(s1)
   19ea8:	6505                	lui	a0,0x1
   19eaa:	5496                	lw	s1,100(sp)
   19eac:	5906                	lw	s2,96(sp)
   19eae:	80050513          	add	a0,a0,-2048 # 800 <exit-0xf894>
   19eb2:	6165                	add	sp,sp,112
   19eb4:	8082                	ret
   19eb6:	00c45783          	lhu	a5,12(s0)
   19eba:	0807f793          	and	a5,a5,128
   19ebe:	cf91                	beqz	a5,19eda <__swhatbuf_r+0x6e>
   19ec0:	50b6                	lw	ra,108(sp)
   19ec2:	5426                	lw	s0,104(sp)
   19ec4:	4781                	li	a5,0
   19ec6:	00f92023          	sw	a5,0(s2)
   19eca:	04000713          	li	a4,64
   19ece:	c098                	sw	a4,0(s1)
   19ed0:	5906                	lw	s2,96(sp)
   19ed2:	5496                	lw	s1,100(sp)
   19ed4:	4501                	li	a0,0
   19ed6:	6165                	add	sp,sp,112
   19ed8:	8082                	ret
   19eda:	50b6                	lw	ra,108(sp)
   19edc:	5426                	lw	s0,104(sp)
   19ede:	00f92023          	sw	a5,0(s2)
   19ee2:	40000713          	li	a4,1024
   19ee6:	c098                	sw	a4,0(s1)
   19ee8:	5906                	lw	s2,96(sp)
   19eea:	5496                	lw	s1,100(sp)
   19eec:	4501                	li	a0,0
   19eee:	6165                	add	sp,sp,112
   19ef0:	8082                	ret

00019ef2 <__swbuf_r>:
   19ef2:	1101                	add	sp,sp,-32
   19ef4:	cc22                	sw	s0,24(sp)
   19ef6:	ca26                	sw	s1,20(sp)
   19ef8:	c84a                	sw	s2,16(sp)
   19efa:	ce06                	sw	ra,28(sp)
   19efc:	892a                	mv	s2,a0
   19efe:	84ae                	mv	s1,a1
   19f00:	8432                	mv	s0,a2
   19f02:	c119                	beqz	a0,19f08 <__swbuf_r+0x16>
   19f04:	595c                	lw	a5,52(a0)
   19f06:	c7e5                	beqz	a5,19fee <__swbuf_r+0xfc>
   19f08:	4c1c                	lw	a5,24(s0)
   19f0a:	00c41703          	lh	a4,12(s0)
   19f0e:	c41c                	sw	a5,8(s0)
   19f10:	00877793          	and	a5,a4,8
   19f14:	cbb1                	beqz	a5,19f68 <__swbuf_r+0x76>
   19f16:	481c                	lw	a5,16(s0)
   19f18:	cba1                	beqz	a5,19f68 <__swbuf_r+0x76>
   19f1a:	c64e                	sw	s3,12(sp)
   19f1c:	01271693          	sll	a3,a4,0x12
   19f20:	0ff4f993          	zext.b	s3,s1
   19f24:	0ff4f493          	zext.b	s1,s1
   19f28:	0606d163          	bgez	a3,19f8a <__swbuf_r+0x98>
   19f2c:	4018                	lw	a4,0(s0)
   19f2e:	4854                	lw	a3,20(s0)
   19f30:	40f707b3          	sub	a5,a4,a5
   19f34:	06d7da63          	bge	a5,a3,19fa8 <__swbuf_r+0xb6>
   19f38:	4414                	lw	a3,8(s0)
   19f3a:	00170613          	add	a2,a4,1 # ffffe001 <__BSS_END__+0xfffdf27d>
   19f3e:	c010                	sw	a2,0(s0)
   19f40:	16fd                	add	a3,a3,-1
   19f42:	c414                	sw	a3,8(s0)
   19f44:	01370023          	sb	s3,0(a4)
   19f48:	4858                	lw	a4,20(s0)
   19f4a:	0785                	add	a5,a5,1 # f001 <exit-0x1093>
   19f4c:	08f70063          	beq	a4,a5,19fcc <__swbuf_r+0xda>
   19f50:	00c45783          	lhu	a5,12(s0)
   19f54:	8b85                	and	a5,a5,1
   19f56:	e3d9                	bnez	a5,19fdc <__swbuf_r+0xea>
   19f58:	49b2                	lw	s3,12(sp)
   19f5a:	40f2                	lw	ra,28(sp)
   19f5c:	4462                	lw	s0,24(sp)
   19f5e:	4942                	lw	s2,16(sp)
   19f60:	8526                	mv	a0,s1
   19f62:	44d2                	lw	s1,20(sp)
   19f64:	6105                	add	sp,sp,32
   19f66:	8082                	ret
   19f68:	85a2                	mv	a1,s0
   19f6a:	854a                	mv	a0,s2
   19f6c:	ecbfb0ef          	jal	15e36 <__swsetup_r>
   19f70:	e525                	bnez	a0,19fd8 <__swbuf_r+0xe6>
   19f72:	00c41703          	lh	a4,12(s0)
   19f76:	c64e                	sw	s3,12(sp)
   19f78:	481c                	lw	a5,16(s0)
   19f7a:	01271693          	sll	a3,a4,0x12
   19f7e:	0ff4f993          	zext.b	s3,s1
   19f82:	0ff4f493          	zext.b	s1,s1
   19f86:	fa06c3e3          	bltz	a3,19f2c <__swbuf_r+0x3a>
   19f8a:	5074                	lw	a3,100(s0)
   19f8c:	7679                	lui	a2,0xffffe
   19f8e:	6589                	lui	a1,0x2
   19f90:	8f4d                	or	a4,a4,a1
   19f92:	167d                	add	a2,a2,-1 # ffffdfff <__BSS_END__+0xfffdf27b>
   19f94:	8ef1                	and	a3,a3,a2
   19f96:	00e41623          	sh	a4,12(s0)
   19f9a:	4018                	lw	a4,0(s0)
   19f9c:	d074                	sw	a3,100(s0)
   19f9e:	4854                	lw	a3,20(s0)
   19fa0:	40f707b3          	sub	a5,a4,a5
   19fa4:	f8d7cae3          	blt	a5,a3,19f38 <__swbuf_r+0x46>
   19fa8:	85a2                	mv	a1,s0
   19faa:	854a                	mv	a0,s2
   19fac:	a2dfb0ef          	jal	159d8 <_fflush_r>
   19fb0:	e11d                	bnez	a0,19fd6 <__swbuf_r+0xe4>
   19fb2:	4018                	lw	a4,0(s0)
   19fb4:	4414                	lw	a3,8(s0)
   19fb6:	4785                	li	a5,1
   19fb8:	00170613          	add	a2,a4,1
   19fbc:	16fd                	add	a3,a3,-1
   19fbe:	c010                	sw	a2,0(s0)
   19fc0:	c414                	sw	a3,8(s0)
   19fc2:	01370023          	sb	s3,0(a4)
   19fc6:	4858                	lw	a4,20(s0)
   19fc8:	f8f714e3          	bne	a4,a5,19f50 <__swbuf_r+0x5e>
   19fcc:	85a2                	mv	a1,s0
   19fce:	854a                	mv	a0,s2
   19fd0:	a09fb0ef          	jal	159d8 <_fflush_r>
   19fd4:	d151                	beqz	a0,19f58 <__swbuf_r+0x66>
   19fd6:	49b2                	lw	s3,12(sp)
   19fd8:	54fd                	li	s1,-1
   19fda:	b741                	j	19f5a <__swbuf_r+0x68>
   19fdc:	47a9                	li	a5,10
   19fde:	f6f49de3          	bne	s1,a5,19f58 <__swbuf_r+0x66>
   19fe2:	85a2                	mv	a1,s0
   19fe4:	854a                	mv	a0,s2
   19fe6:	9f3fb0ef          	jal	159d8 <_fflush_r>
   19fea:	d53d                	beqz	a0,19f58 <__swbuf_r+0x66>
   19fec:	b7ed                	j	19fd6 <__swbuf_r+0xe4>
   19fee:	d60f70ef          	jal	1154e <__sinit>
   19ff2:	bf19                	j	19f08 <__swbuf_r+0x16>

00019ff4 <__swbuf>:
   19ff4:	862e                	mv	a2,a1
   19ff6:	85aa                	mv	a1,a0
   19ff8:	f681a503          	lw	a0,-152(gp) # 1e778 <_impure_ptr>
   19ffc:	ef7ff06f          	j	19ef2 <__swbuf_r>

0001a000 <strcasecmp>:
   1a000:	86aa                	mv	a3,a0
   1a002:	00003817          	auipc	a6,0x3
   1a006:	75780813          	add	a6,a6,1879 # 1d759 <_ctype_+0x1>
   1a00a:	4605                	li	a2,1
   1a00c:	0006c783          	lbu	a5,0(a3)
   1a010:	0585                	add	a1,a1,1 # 2001 <exit-0xe093>
   1a012:	0685                	add	a3,a3,1
   1a014:	00f80733          	add	a4,a6,a5
   1a018:	00074703          	lbu	a4,0(a4)
   1a01c:	8b0d                	and	a4,a4,3
   1a01e:	00c71463          	bne	a4,a2,1a026 <strcasecmp+0x26>
   1a022:	02078793          	add	a5,a5,32
   1a026:	fff5c503          	lbu	a0,-1(a1)
   1a02a:	00a80733          	add	a4,a6,a0
   1a02e:	00074703          	lbu	a4,0(a4)
   1a032:	40a788b3          	sub	a7,a5,a0
   1a036:	8b0d                	and	a4,a4,3
   1a038:	00c70663          	beq	a4,a2,1a044 <strcasecmp+0x44>
   1a03c:	00a79b63          	bne	a5,a0,1a052 <strcasecmp+0x52>
   1a040:	f571                	bnez	a0,1a00c <strcasecmp+0xc>
   1a042:	8082                	ret
   1a044:	02050713          	add	a4,a0,32
   1a048:	40e78533          	sub	a0,a5,a4
   1a04c:	fce780e3          	beq	a5,a4,1a00c <strcasecmp+0xc>
   1a050:	8082                	ret
   1a052:	8546                	mv	a0,a7
   1a054:	8082                	ret

0001a056 <strcat>:
   1a056:	1141                	add	sp,sp,-16
   1a058:	c422                	sw	s0,8(sp)
   1a05a:	c606                	sw	ra,12(sp)
   1a05c:	00357793          	and	a5,a0,3
   1a060:	842a                	mv	s0,a0
   1a062:	eb95                	bnez	a5,1a096 <strcat+0x40>
   1a064:	4118                	lw	a4,0(a0)
   1a066:	feff0637          	lui	a2,0xfeff0
   1a06a:	eff60613          	add	a2,a2,-257 # fefefeff <__BSS_END__+0xfefd117b>
   1a06e:	00c707b3          	add	a5,a4,a2
   1a072:	808086b7          	lui	a3,0x80808
   1a076:	fff74713          	not	a4,a4
   1a07a:	8ff9                	and	a5,a5,a4
   1a07c:	08068693          	add	a3,a3,128 # 80808080 <__BSS_END__+0x807e92fc>
   1a080:	8ff5                	and	a5,a5,a3
   1a082:	eb91                	bnez	a5,1a096 <strcat+0x40>
   1a084:	4158                	lw	a4,4(a0)
   1a086:	0511                	add	a0,a0,4
   1a088:	00c707b3          	add	a5,a4,a2
   1a08c:	fff74713          	not	a4,a4
   1a090:	8ff9                	and	a5,a5,a4
   1a092:	8ff5                	and	a5,a5,a3
   1a094:	dbe5                	beqz	a5,1a084 <strcat+0x2e>
   1a096:	00054783          	lbu	a5,0(a0)
   1a09a:	c789                	beqz	a5,1a0a4 <strcat+0x4e>
   1a09c:	00154783          	lbu	a5,1(a0)
   1a0a0:	0505                	add	a0,a0,1
   1a0a2:	ffed                	bnez	a5,1a09c <strcat+0x46>
   1a0a4:	ddbfc0ef          	jal	16e7e <strcpy>
   1a0a8:	40b2                	lw	ra,12(sp)
   1a0aa:	8522                	mv	a0,s0
   1a0ac:	4422                	lw	s0,8(sp)
   1a0ae:	0141                	add	sp,sp,16
   1a0b0:	8082                	ret

0001a0b2 <strchr>:
   1a0b2:	0ff5f693          	zext.b	a3,a1
   1a0b6:	00357793          	and	a5,a0,3
   1a0ba:	cad9                	beqz	a3,1a150 <strchr+0x9e>
   1a0bc:	cb91                	beqz	a5,1a0d0 <strchr+0x1e>
   1a0be:	00054783          	lbu	a5,0(a0)
   1a0c2:	c7c9                	beqz	a5,1a14c <strchr+0x9a>
   1a0c4:	08d78563          	beq	a5,a3,1a14e <strchr+0x9c>
   1a0c8:	0505                	add	a0,a0,1
   1a0ca:	00357793          	and	a5,a0,3
   1a0ce:	fbe5                	bnez	a5,1a0be <strchr+0xc>
   1a0d0:	0ff5f593          	zext.b	a1,a1
   1a0d4:	00859893          	sll	a7,a1,0x8
   1a0d8:	4118                	lw	a4,0(a0)
   1a0da:	98ae                	add	a7,a7,a1
   1a0dc:	01089793          	sll	a5,a7,0x10
   1a0e0:	98be                	add	a7,a7,a5
   1a0e2:	feff0837          	lui	a6,0xfeff0
   1a0e6:	00e8c633          	xor	a2,a7,a4
   1a0ea:	eff80813          	add	a6,a6,-257 # fefefeff <__BSS_END__+0xfefd117b>
   1a0ee:	010707b3          	add	a5,a4,a6
   1a0f2:	010605b3          	add	a1,a2,a6
   1a0f6:	fff74713          	not	a4,a4
   1a0fa:	fff64613          	not	a2,a2
   1a0fe:	8ff9                	and	a5,a5,a4
   1a100:	80808337          	lui	t1,0x80808
   1a104:	00c5f733          	and	a4,a1,a2
   1a108:	8fd9                	or	a5,a5,a4
   1a10a:	08030313          	add	t1,t1,128 # 80808080 <__BSS_END__+0x807e92fc>
   1a10e:	0067f7b3          	and	a5,a5,t1
   1a112:	e785                	bnez	a5,1a13a <strchr+0x88>
   1a114:	4158                	lw	a4,4(a0)
   1a116:	0511                	add	a0,a0,4
   1a118:	01174633          	xor	a2,a4,a7
   1a11c:	010707b3          	add	a5,a4,a6
   1a120:	010605b3          	add	a1,a2,a6
   1a124:	fff74713          	not	a4,a4
   1a128:	fff64613          	not	a2,a2
   1a12c:	8ff9                	and	a5,a5,a4
   1a12e:	00c5f733          	and	a4,a1,a2
   1a132:	8fd9                	or	a5,a5,a4
   1a134:	0067f7b3          	and	a5,a5,t1
   1a138:	dff1                	beqz	a5,1a114 <strchr+0x62>
   1a13a:	00054783          	lbu	a5,0(a0)
   1a13e:	c799                	beqz	a5,1a14c <strchr+0x9a>
   1a140:	06f68163          	beq	a3,a5,1a1a2 <strchr+0xf0>
   1a144:	00154783          	lbu	a5,1(a0)
   1a148:	0505                	add	a0,a0,1
   1a14a:	fbfd                	bnez	a5,1a140 <strchr+0x8e>
   1a14c:	4501                	li	a0,0
   1a14e:	8082                	ret
   1a150:	cb81                	beqz	a5,1a160 <strchr+0xae>
   1a152:	00054783          	lbu	a5,0(a0)
   1a156:	dfe5                	beqz	a5,1a14e <strchr+0x9c>
   1a158:	0505                	add	a0,a0,1
   1a15a:	00357793          	and	a5,a0,3
   1a15e:	fbf5                	bnez	a5,1a152 <strchr+0xa0>
   1a160:	4118                	lw	a4,0(a0)
   1a162:	feff0637          	lui	a2,0xfeff0
   1a166:	eff60613          	add	a2,a2,-257 # fefefeff <__BSS_END__+0xfefd117b>
   1a16a:	00c707b3          	add	a5,a4,a2
   1a16e:	808086b7          	lui	a3,0x80808
   1a172:	fff74713          	not	a4,a4
   1a176:	8ff9                	and	a5,a5,a4
   1a178:	08068693          	add	a3,a3,128 # 80808080 <__BSS_END__+0x807e92fc>
   1a17c:	8ff5                	and	a5,a5,a3
   1a17e:	eb91                	bnez	a5,1a192 <strchr+0xe0>
   1a180:	4158                	lw	a4,4(a0)
   1a182:	0511                	add	a0,a0,4
   1a184:	00c707b3          	add	a5,a4,a2
   1a188:	fff74713          	not	a4,a4
   1a18c:	8ff9                	and	a5,a5,a4
   1a18e:	8ff5                	and	a5,a5,a3
   1a190:	dbe5                	beqz	a5,1a180 <strchr+0xce>
   1a192:	00054783          	lbu	a5,0(a0)
   1a196:	dfc5                	beqz	a5,1a14e <strchr+0x9c>
   1a198:	00154783          	lbu	a5,1(a0)
   1a19c:	0505                	add	a0,a0,1
   1a19e:	ffed                	bnez	a5,1a198 <strchr+0xe6>
   1a1a0:	8082                	ret
   1a1a2:	8082                	ret

0001a1a4 <strlcpy>:
   1a1a4:	87ae                	mv	a5,a1
   1a1a6:	ea09                	bnez	a2,1a1b8 <strlcpy+0x14>
   1a1a8:	a821                	j	1a1c0 <strlcpy+0x1c>
   1a1aa:	0007c703          	lbu	a4,0(a5)
   1a1ae:	0505                	add	a0,a0,1
   1a1b0:	0785                	add	a5,a5,1
   1a1b2:	fee50fa3          	sb	a4,-1(a0)
   1a1b6:	cb09                	beqz	a4,1a1c8 <strlcpy+0x24>
   1a1b8:	167d                	add	a2,a2,-1
   1a1ba:	fa65                	bnez	a2,1a1aa <strlcpy+0x6>
   1a1bc:	00050023          	sb	zero,0(a0)
   1a1c0:	0007c703          	lbu	a4,0(a5)
   1a1c4:	0785                	add	a5,a5,1
   1a1c6:	ff6d                	bnez	a4,1a1c0 <strlcpy+0x1c>
   1a1c8:	40b78533          	sub	a0,a5,a1
   1a1cc:	157d                	add	a0,a0,-1
   1a1ce:	8082                	ret

0001a1d0 <strncasecmp>:
   1a1d0:	86aa                	mv	a3,a0
   1a1d2:	c621                	beqz	a2,1a21a <strncasecmp+0x4a>
   1a1d4:	962e                	add	a2,a2,a1
   1a1d6:	00003897          	auipc	a7,0x3
   1a1da:	58388893          	add	a7,a7,1411 # 1d759 <_ctype_+0x1>
   1a1de:	4805                	li	a6,1
   1a1e0:	0006c783          	lbu	a5,0(a3)
   1a1e4:	0585                	add	a1,a1,1
   1a1e6:	0685                	add	a3,a3,1
   1a1e8:	00f88733          	add	a4,a7,a5
   1a1ec:	00074703          	lbu	a4,0(a4)
   1a1f0:	8b0d                	and	a4,a4,3
   1a1f2:	01071463          	bne	a4,a6,1a1fa <strncasecmp+0x2a>
   1a1f6:	02078793          	add	a5,a5,32
   1a1fa:	fff5c503          	lbu	a0,-1(a1)
   1a1fe:	00a88733          	add	a4,a7,a0
   1a202:	00074703          	lbu	a4,0(a4)
   1a206:	40a78333          	sub	t1,a5,a0
   1a20a:	8b0d                	and	a4,a4,3
   1a20c:	01070b63          	beq	a4,a6,1a222 <strncasecmp+0x52>
   1a210:	00a79763          	bne	a5,a0,1a21e <strncasecmp+0x4e>
   1a214:	c511                	beqz	a0,1a220 <strncasecmp+0x50>
   1a216:	fcc595e3          	bne	a1,a2,1a1e0 <strncasecmp+0x10>
   1a21a:	4501                	li	a0,0
   1a21c:	8082                	ret
   1a21e:	851a                	mv	a0,t1
   1a220:	8082                	ret
   1a222:	02050713          	add	a4,a0,32
   1a226:	40e78533          	sub	a0,a5,a4
   1a22a:	fee786e3          	beq	a5,a4,1a216 <strncasecmp+0x46>
   1a22e:	8082                	ret

0001a230 <strncmp>:
   1a230:	ce15                	beqz	a2,1a26c <strncmp+0x3c>
   1a232:	00b567b3          	or	a5,a0,a1
   1a236:	8b8d                	and	a5,a5,3
   1a238:	cf85                	beqz	a5,1a270 <strncmp+0x40>
   1a23a:	00054703          	lbu	a4,0(a0)
   1a23e:	0005c683          	lbu	a3,0(a1)
   1a242:	06d71e63          	bne	a4,a3,1a2be <strncmp+0x8e>
   1a246:	4785                	li	a5,1
   1a248:	02f60263          	beq	a2,a5,1a26c <strncmp+0x3c>
   1a24c:	882a                	mv	a6,a0
   1a24e:	a801                	j	1a25e <strncmp+0x2e>
   1a250:	00054703          	lbu	a4,0(a0)
   1a254:	0005c683          	lbu	a3,0(a1)
   1a258:	06d71363          	bne	a4,a3,1a2be <strncmp+0x8e>
   1a25c:	cb81                	beqz	a5,1a26c <strncmp+0x3c>
   1a25e:	0505                	add	a0,a0,1
   1a260:	40a607b3          	sub	a5,a2,a0
   1a264:	17fd                	add	a5,a5,-1
   1a266:	0585                	add	a1,a1,1
   1a268:	97c2                	add	a5,a5,a6
   1a26a:	f37d                	bnez	a4,1a250 <strncmp+0x20>
   1a26c:	4501                	li	a0,0
   1a26e:	8082                	ret
   1a270:	feff0337          	lui	t1,0xfeff0
   1a274:	808088b7          	lui	a7,0x80808
   1a278:	478d                	li	a5,3
   1a27a:	eff30313          	add	t1,t1,-257 # fefefeff <__BSS_END__+0xfefd117b>
   1a27e:	08088893          	add	a7,a7,128 # 80808080 <__BSS_END__+0x807e92fc>
   1a282:	4e0d                	li	t3,3
   1a284:	00c7ea63          	bltu	a5,a2,1a298 <strncmp+0x68>
   1a288:	bf4d                	j	1a23a <strncmp+0xa>
   1a28a:	1671                	add	a2,a2,-4
   1a28c:	d265                	beqz	a2,1a26c <strncmp+0x3c>
   1a28e:	fff9                	bnez	a5,1a26c <strncmp+0x3c>
   1a290:	0511                	add	a0,a0,4
   1a292:	0591                	add	a1,a1,4
   1a294:	face73e3          	bgeu	t3,a2,1a23a <strncmp+0xa>
   1a298:	4118                	lw	a4,0(a0)
   1a29a:	4194                	lw	a3,0(a1)
   1a29c:	006707b3          	add	a5,a4,t1
   1a2a0:	fff74813          	not	a6,a4
   1a2a4:	0107f7b3          	and	a5,a5,a6
   1a2a8:	0117f7b3          	and	a5,a5,a7
   1a2ac:	fcd70fe3          	beq	a4,a3,1a28a <strncmp+0x5a>
   1a2b0:	00054703          	lbu	a4,0(a0)
   1a2b4:	0005c683          	lbu	a3,0(a1)
   1a2b8:	882a                	mv	a6,a0
   1a2ba:	fad702e3          	beq	a4,a3,1a25e <strncmp+0x2e>
   1a2be:	40d70533          	sub	a0,a4,a3
   1a2c2:	8082                	ret

0001a2c4 <_fstat_r>:
   1a2c4:	1141                	add	sp,sp,-16
   1a2c6:	872e                	mv	a4,a1
   1a2c8:	c422                	sw	s0,8(sp)
   1a2ca:	85b2                	mv	a1,a2
   1a2cc:	842a                	mv	s0,a0
   1a2ce:	853a                	mv	a0,a4
   1a2d0:	f801a223          	sw	zero,-124(gp) # 1e794 <errno>
   1a2d4:	c606                	sw	ra,12(sp)
   1a2d6:	255d                	jal	1a97c <_fstat>
   1a2d8:	57fd                	li	a5,-1
   1a2da:	00f50663          	beq	a0,a5,1a2e6 <_fstat_r+0x22>
   1a2de:	40b2                	lw	ra,12(sp)
   1a2e0:	4422                	lw	s0,8(sp)
   1a2e2:	0141                	add	sp,sp,16
   1a2e4:	8082                	ret
   1a2e6:	f841a783          	lw	a5,-124(gp) # 1e794 <errno>
   1a2ea:	dbf5                	beqz	a5,1a2de <_fstat_r+0x1a>
   1a2ec:	40b2                	lw	ra,12(sp)
   1a2ee:	c01c                	sw	a5,0(s0)
   1a2f0:	4422                	lw	s0,8(sp)
   1a2f2:	0141                	add	sp,sp,16
   1a2f4:	8082                	ret

0001a2f6 <_isatty_r>:
   1a2f6:	1141                	add	sp,sp,-16
   1a2f8:	c422                	sw	s0,8(sp)
   1a2fa:	842a                	mv	s0,a0
   1a2fc:	852e                	mv	a0,a1
   1a2fe:	f801a223          	sw	zero,-124(gp) # 1e794 <errno>
   1a302:	c606                	sw	ra,12(sp)
   1a304:	2d5d                	jal	1a9ba <_isatty>
   1a306:	57fd                	li	a5,-1
   1a308:	00f50663          	beq	a0,a5,1a314 <_isatty_r+0x1e>
   1a30c:	40b2                	lw	ra,12(sp)
   1a30e:	4422                	lw	s0,8(sp)
   1a310:	0141                	add	sp,sp,16
   1a312:	8082                	ret
   1a314:	f841a783          	lw	a5,-124(gp) # 1e794 <errno>
   1a318:	dbf5                	beqz	a5,1a30c <_isatty_r+0x16>
   1a31a:	40b2                	lw	ra,12(sp)
   1a31c:	c01c                	sw	a5,0(s0)
   1a31e:	4422                	lw	s0,8(sp)
   1a320:	0141                	add	sp,sp,16
   1a322:	8082                	ret

0001a324 <__errno>:
   1a324:	f681a503          	lw	a0,-152(gp) # 1e778 <_impure_ptr>
   1a328:	8082                	ret

0001a32a <__assert_func>:
   1a32a:	1141                	add	sp,sp,-16
   1a32c:	87b6                	mv	a5,a3
   1a32e:	f681a703          	lw	a4,-152(gp) # 1e778 <_impure_ptr>
   1a332:	8832                	mv	a6,a2
   1a334:	c606                	sw	ra,12(sp)
   1a336:	00c72883          	lw	a7,12(a4)
   1a33a:	863e                	mv	a2,a5
   1a33c:	86aa                	mv	a3,a0
   1a33e:	872e                	mv	a4,a1
   1a340:	00003797          	auipc	a5,0x3
   1a344:	a2878793          	add	a5,a5,-1496 # 1cd68 <__trunctfdf2+0x56a>
   1a348:	00080963          	beqz	a6,1a35a <__assert_func+0x30>
   1a34c:	00003597          	auipc	a1,0x3
   1a350:	a2c58593          	add	a1,a1,-1492 # 1cd78 <__trunctfdf2+0x57a>
   1a354:	8546                	mv	a0,a7
   1a356:	2c3d                	jal	1a594 <fiprintf>
   1a358:	249d                	jal	1a5be <abort>
   1a35a:	00002797          	auipc	a5,0x2
   1a35e:	75e78793          	add	a5,a5,1886 # 1cab8 <__trunctfdf2+0x2ba>
   1a362:	883e                	mv	a6,a5
   1a364:	b7e5                	j	1a34c <__assert_func+0x22>

0001a366 <__assert>:
   1a366:	1141                	add	sp,sp,-16
   1a368:	86b2                	mv	a3,a2
   1a36a:	4601                	li	a2,0
   1a36c:	c606                	sw	ra,12(sp)
   1a36e:	fbdff0ef          	jal	1a32a <__assert_func>

0001a372 <_calloc_r>:
   1a372:	02c5b7b3          	mulhu	a5,a1,a2
   1a376:	1141                	add	sp,sp,-16
   1a378:	c606                	sw	ra,12(sp)
   1a37a:	c422                	sw	s0,8(sp)
   1a37c:	02c585b3          	mul	a1,a1,a2
   1a380:	efa5                	bnez	a5,1a3f8 <_calloc_r+0x86>
   1a382:	af5f70ef          	jal	11e76 <_malloc_r>
   1a386:	842a                	mv	s0,a0
   1a388:	cd25                	beqz	a0,1a400 <_calloc_r+0x8e>
   1a38a:	ffc52603          	lw	a2,-4(a0)
   1a38e:	02400713          	li	a4,36
   1a392:	9a71                	and	a2,a2,-4
   1a394:	1671                	add	a2,a2,-4
   1a396:	04c76063          	bltu	a4,a2,1a3d6 <_calloc_r+0x64>
   1a39a:	46cd                	li	a3,19
   1a39c:	87aa                	mv	a5,a0
   1a39e:	02c6f163          	bgeu	a3,a2,1a3c0 <_calloc_r+0x4e>
   1a3a2:	00052023          	sw	zero,0(a0)
   1a3a6:	00052223          	sw	zero,4(a0)
   1a3aa:	47ed                	li	a5,27
   1a3ac:	02c7fd63          	bgeu	a5,a2,1a3e6 <_calloc_r+0x74>
   1a3b0:	00052423          	sw	zero,8(a0)
   1a3b4:	00052623          	sw	zero,12(a0)
   1a3b8:	01050793          	add	a5,a0,16
   1a3bc:	04e60863          	beq	a2,a4,1a40c <_calloc_r+0x9a>
   1a3c0:	0007a023          	sw	zero,0(a5)
   1a3c4:	0007a223          	sw	zero,4(a5)
   1a3c8:	0007a423          	sw	zero,8(a5)
   1a3cc:	40b2                	lw	ra,12(sp)
   1a3ce:	8522                	mv	a0,s0
   1a3d0:	4422                	lw	s0,8(sp)
   1a3d2:	0141                	add	sp,sp,16
   1a3d4:	8082                	ret
   1a3d6:	4581                	li	a1,0
   1a3d8:	d8af70ef          	jal	11962 <memset>
   1a3dc:	40b2                	lw	ra,12(sp)
   1a3de:	8522                	mv	a0,s0
   1a3e0:	4422                	lw	s0,8(sp)
   1a3e2:	0141                	add	sp,sp,16
   1a3e4:	8082                	ret
   1a3e6:	00850793          	add	a5,a0,8
   1a3ea:	0007a023          	sw	zero,0(a5)
   1a3ee:	0007a223          	sw	zero,4(a5)
   1a3f2:	0007a423          	sw	zero,8(a5)
   1a3f6:	bfd9                	j	1a3cc <_calloc_r+0x5a>
   1a3f8:	f2dff0ef          	jal	1a324 <__errno>
   1a3fc:	47b1                	li	a5,12
   1a3fe:	c11c                	sw	a5,0(a0)
   1a400:	4401                	li	s0,0
   1a402:	40b2                	lw	ra,12(sp)
   1a404:	8522                	mv	a0,s0
   1a406:	4422                	lw	s0,8(sp)
   1a408:	0141                	add	sp,sp,16
   1a40a:	8082                	ret
   1a40c:	00052823          	sw	zero,16(a0)
   1a410:	01850793          	add	a5,a0,24
   1a414:	00052a23          	sw	zero,20(a0)
   1a418:	b765                	j	1a3c0 <_calloc_r+0x4e>

0001a41a <__env_lock>:
   1a41a:	f9418513          	add	a0,gp,-108 # 1e7a4 <__lock___env_recursive_mutex>
   1a41e:	d36f706f          	j	11954 <__retarget_lock_acquire_recursive>

0001a422 <__env_unlock>:
   1a422:	f9418513          	add	a0,gp,-108 # 1e7a4 <__lock___env_recursive_mutex>
   1a426:	d3af706f          	j	11960 <__retarget_lock_release_recursive>

0001a42a <_wcsnrtombs_l>:
   1a42a:	711d                	add	sp,sp,-96
   1a42c:	caa6                	sw	s1,84(sp)
   1a42e:	c8ca                	sw	s2,80(sp)
   1a430:	c6ce                	sw	s3,76(sp)
   1a432:	c4d2                	sw	s4,72(sp)
   1a434:	c2d6                	sw	s5,68(sp)
   1a436:	ce86                	sw	ra,92(sp)
   1a438:	da66                	sw	s9,52(sp)
   1a43a:	d86a                	sw	s10,48(sp)
   1a43c:	c62a                	sw	a0,12(sp)
   1a43e:	8a2e                	mv	s4,a1
   1a440:	8ab2                	mv	s5,a2
   1a442:	893a                	mv	s2,a4
   1a444:	89c2                	mv	s3,a6
   1a446:	84be                	mv	s1,a5
   1a448:	c7e9                	beqz	a5,1a512 <_wcsnrtombs_l+0xe8>
   1a44a:	000aac83          	lw	s9,0(s5)
   1a44e:	0c0a0863          	beqz	s4,1a51e <_wcsnrtombs_l+0xf4>
   1a452:	0e090963          	beqz	s2,1a544 <_wcsnrtombs_l+0x11a>
   1a456:	c0da                	sw	s6,64(sp)
   1a458:	fff68b13          	add	s6,a3,-1
   1a45c:	cae5                	beqz	a3,1a54c <_wcsnrtombs_l+0x122>
   1a45e:	cca2                	sw	s0,88(sp)
   1a460:	d66e                	sw	s11,44(sp)
   1a462:	de5e                	sw	s7,60(sp)
   1a464:	dc62                	sw	s8,56(sp)
   1a466:	8452                	mv	s0,s4
   1a468:	4d01                	li	s10,0
   1a46a:	5dfd                	li	s11,-1
   1a46c:	a829                	j	1a486 <_wcsnrtombs_l+0x5c>
   1a46e:	060a1263          	bnez	s4,1a4d2 <_wcsnrtombs_l+0xa8>
   1a472:	000ca783          	lw	a5,0(s9)
   1a476:	0c91                	add	s9,s9,4
   1a478:	c7c1                	beqz	a5,1a500 <_wcsnrtombs_l+0xd6>
   1a47a:	0d26f763          	bgeu	a3,s2,1a548 <_wcsnrtombs_l+0x11e>
   1a47e:	1b7d                	add	s6,s6,-1
   1a480:	8d36                	mv	s10,a3
   1a482:	03bb0863          	beq	s6,s11,1a4b2 <_wcsnrtombs_l+0x88>
   1a486:	0e09a783          	lw	a5,224(s3)
   1a48a:	000ca603          	lw	a2,0(s9)
   1a48e:	4532                	lw	a0,12(sp)
   1a490:	86a6                	mv	a3,s1
   1a492:	084c                	add	a1,sp,20
   1a494:	0004ac03          	lw	s8,0(s1)
   1a498:	0044ab83          	lw	s7,4(s1)
   1a49c:	9782                	jalr	a5
   1a49e:	09b50363          	beq	a0,s11,1a524 <_wcsnrtombs_l+0xfa>
   1a4a2:	01a506b3          	add	a3,a0,s10
   1a4a6:	fcd974e3          	bgeu	s2,a3,1a46e <_wcsnrtombs_l+0x44>
   1a4aa:	0184a023          	sw	s8,0(s1)
   1a4ae:	0174a223          	sw	s7,4(s1)
   1a4b2:	4466                	lw	s0,88(sp)
   1a4b4:	4b06                	lw	s6,64(sp)
   1a4b6:	5bf2                	lw	s7,60(sp)
   1a4b8:	5c62                	lw	s8,56(sp)
   1a4ba:	5db2                	lw	s11,44(sp)
   1a4bc:	40f6                	lw	ra,92(sp)
   1a4be:	44d6                	lw	s1,84(sp)
   1a4c0:	4946                	lw	s2,80(sp)
   1a4c2:	49b6                	lw	s3,76(sp)
   1a4c4:	4a26                	lw	s4,72(sp)
   1a4c6:	4a96                	lw	s5,68(sp)
   1a4c8:	5cd2                	lw	s9,52(sp)
   1a4ca:	856a                	mv	a0,s10
   1a4cc:	5d42                	lw	s10,48(sp)
   1a4ce:	6125                	add	sp,sp,96
   1a4d0:	8082                	ret
   1a4d2:	06a05163          	blez	a0,1a534 <_wcsnrtombs_l+0x10a>
   1a4d6:	01410893          	add	a7,sp,20
   1a4da:	9522                	add	a0,a0,s0
   1a4dc:	0008c783          	lbu	a5,0(a7)
   1a4e0:	0405                	add	s0,s0,1
   1a4e2:	0885                	add	a7,a7,1
   1a4e4:	fef40fa3          	sb	a5,-1(s0)
   1a4e8:	fe851ae3          	bne	a0,s0,1a4dc <_wcsnrtombs_l+0xb2>
   1a4ec:	000aa783          	lw	a5,0(s5)
   1a4f0:	842a                	mv	s0,a0
   1a4f2:	0791                	add	a5,a5,4
   1a4f4:	00faa023          	sw	a5,0(s5)
   1a4f8:	000ca783          	lw	a5,0(s9)
   1a4fc:	0c91                	add	s9,s9,4
   1a4fe:	ffb5                	bnez	a5,1a47a <_wcsnrtombs_l+0x50>
   1a500:	000a0463          	beqz	s4,1a508 <_wcsnrtombs_l+0xde>
   1a504:	000aa023          	sw	zero,0(s5)
   1a508:	0004a023          	sw	zero,0(s1)
   1a50c:	fff68d13          	add	s10,a3,-1
   1a510:	b74d                	j	1a4b2 <_wcsnrtombs_l+0x88>
   1a512:	000aac83          	lw	s9,0(s5)
   1a516:	10c50493          	add	s1,a0,268
   1a51a:	f20a1ce3          	bnez	s4,1a452 <_wcsnrtombs_l+0x28>
   1a51e:	c0da                	sw	s6,64(sp)
   1a520:	597d                	li	s2,-1
   1a522:	bf1d                	j	1a458 <_wcsnrtombs_l+0x2e>
   1a524:	4732                	lw	a4,12(sp)
   1a526:	08a00793          	li	a5,138
   1a52a:	5d7d                	li	s10,-1
   1a52c:	c31c                	sw	a5,0(a4)
   1a52e:	0004a023          	sw	zero,0(s1)
   1a532:	b741                	j	1a4b2 <_wcsnrtombs_l+0x88>
   1a534:	000aa783          	lw	a5,0(s5)
   1a538:	8522                	mv	a0,s0
   1a53a:	842a                	mv	s0,a0
   1a53c:	0791                	add	a5,a5,4
   1a53e:	00faa023          	sw	a5,0(s5)
   1a542:	bf5d                	j	1a4f8 <_wcsnrtombs_l+0xce>
   1a544:	4d01                	li	s10,0
   1a546:	bf9d                	j	1a4bc <_wcsnrtombs_l+0x92>
   1a548:	8d36                	mv	s10,a3
   1a54a:	b7a5                	j	1a4b2 <_wcsnrtombs_l+0x88>
   1a54c:	4b06                	lw	s6,64(sp)
   1a54e:	4d01                	li	s10,0
   1a550:	b7b5                	j	1a4bc <_wcsnrtombs_l+0x92>

0001a552 <_wcsnrtombs_r>:
   1a552:	d6818813          	add	a6,gp,-664 # 1e578 <__global_locale>
   1a556:	f681a503          	lw	a0,-152(gp) # 1e778 <_impure_ptr>
   1a55a:	ed1ff06f          	j	1a42a <_wcsnrtombs_l>

0001a55e <wcsnrtombs>:
   1a55e:	87ba                	mv	a5,a4
   1a560:	d6818813          	add	a6,gp,-664 # 1e578 <__global_locale>
   1a564:	8736                	mv	a4,a3
   1a566:	86b2                	mv	a3,a2
   1a568:	862e                	mv	a2,a1
   1a56a:	85aa                	mv	a1,a0
   1a56c:	f681a503          	lw	a0,-152(gp) # 1e778 <_impure_ptr>
   1a570:	ebbff06f          	j	1a42a <_wcsnrtombs_l>

0001a574 <_fiprintf_r>:
   1a574:	7139                	add	sp,sp,-64
   1a576:	02c10313          	add	t1,sp,44
   1a57a:	d636                	sw	a3,44(sp)
   1a57c:	869a                	mv	a3,t1
   1a57e:	ce06                	sw	ra,28(sp)
   1a580:	d83a                	sw	a4,48(sp)
   1a582:	da3e                	sw	a5,52(sp)
   1a584:	dc42                	sw	a6,56(sp)
   1a586:	de46                	sw	a7,60(sp)
   1a588:	c61a                	sw	t1,12(sp)
   1a58a:	828fa0ef          	jal	145b2 <_vfiprintf_r>
   1a58e:	40f2                	lw	ra,28(sp)
   1a590:	6121                	add	sp,sp,64
   1a592:	8082                	ret

0001a594 <fiprintf>:
   1a594:	7139                	add	sp,sp,-64
   1a596:	02810313          	add	t1,sp,40
   1a59a:	d432                	sw	a2,40(sp)
   1a59c:	d636                	sw	a3,44(sp)
   1a59e:	862e                	mv	a2,a1
   1a5a0:	869a                	mv	a3,t1
   1a5a2:	85aa                	mv	a1,a0
   1a5a4:	f681a503          	lw	a0,-152(gp) # 1e778 <_impure_ptr>
   1a5a8:	ce06                	sw	ra,28(sp)
   1a5aa:	d83a                	sw	a4,48(sp)
   1a5ac:	da3e                	sw	a5,52(sp)
   1a5ae:	dc42                	sw	a6,56(sp)
   1a5b0:	de46                	sw	a7,60(sp)
   1a5b2:	c61a                	sw	t1,12(sp)
   1a5b4:	ffff90ef          	jal	145b2 <_vfiprintf_r>
   1a5b8:	40f2                	lw	ra,28(sp)
   1a5ba:	6121                	add	sp,sp,64
   1a5bc:	8082                	ret

0001a5be <abort>:
   1a5be:	1141                	add	sp,sp,-16
   1a5c0:	4519                	li	a0,6
   1a5c2:	c606                	sw	ra,12(sp)
   1a5c4:	2a59                	jal	1a75a <raise>
   1a5c6:	4505                	li	a0,1
   1a5c8:	2e49                	jal	1a95a <_exit>

0001a5ca <_init_signal_r>:
   1a5ca:	11852783          	lw	a5,280(a0)
   1a5ce:	c399                	beqz	a5,1a5d4 <_init_signal_r+0xa>
   1a5d0:	4501                	li	a0,0
   1a5d2:	8082                	ret
   1a5d4:	1141                	add	sp,sp,-16
   1a5d6:	08000593          	li	a1,128
   1a5da:	c422                	sw	s0,8(sp)
   1a5dc:	c606                	sw	ra,12(sp)
   1a5de:	842a                	mv	s0,a0
   1a5e0:	897f70ef          	jal	11e76 <_malloc_r>
   1a5e4:	10a42c23          	sw	a0,280(s0)
   1a5e8:	cd09                	beqz	a0,1a602 <_init_signal_r+0x38>
   1a5ea:	08050793          	add	a5,a0,128
   1a5ee:	00052023          	sw	zero,0(a0)
   1a5f2:	0511                	add	a0,a0,4
   1a5f4:	fef51de3          	bne	a0,a5,1a5ee <_init_signal_r+0x24>
   1a5f8:	4501                	li	a0,0
   1a5fa:	40b2                	lw	ra,12(sp)
   1a5fc:	4422                	lw	s0,8(sp)
   1a5fe:	0141                	add	sp,sp,16
   1a600:	8082                	ret
   1a602:	557d                	li	a0,-1
   1a604:	bfdd                	j	1a5fa <_init_signal_r+0x30>

0001a606 <_signal_r>:
   1a606:	1101                	add	sp,sp,-32
   1a608:	ca26                	sw	s1,20(sp)
   1a60a:	ce06                	sw	ra,28(sp)
   1a60c:	47fd                	li	a5,31
   1a60e:	84aa                	mv	s1,a0
   1a610:	02b7e063          	bltu	a5,a1,1a630 <_signal_r+0x2a>
   1a614:	11852783          	lw	a5,280(a0)
   1a618:	cc22                	sw	s0,24(sp)
   1a61a:	842e                	mv	s0,a1
   1a61c:	cf91                	beqz	a5,1a638 <_signal_r+0x32>
   1a61e:	040a                	sll	s0,s0,0x2
   1a620:	97a2                	add	a5,a5,s0
   1a622:	4462                	lw	s0,24(sp)
   1a624:	4388                	lw	a0,0(a5)
   1a626:	c390                	sw	a2,0(a5)
   1a628:	40f2                	lw	ra,28(sp)
   1a62a:	44d2                	lw	s1,20(sp)
   1a62c:	6105                	add	sp,sp,32
   1a62e:	8082                	ret
   1a630:	47d9                	li	a5,22
   1a632:	c11c                	sw	a5,0(a0)
   1a634:	557d                	li	a0,-1
   1a636:	bfcd                	j	1a628 <_signal_r+0x22>
   1a638:	08000593          	li	a1,128
   1a63c:	c632                	sw	a2,12(sp)
   1a63e:	839f70ef          	jal	11e76 <_malloc_r>
   1a642:	10a4ac23          	sw	a0,280(s1)
   1a646:	4632                	lw	a2,12(sp)
   1a648:	87aa                	mv	a5,a0
   1a64a:	872a                	mv	a4,a0
   1a64c:	08050693          	add	a3,a0,128
   1a650:	c519                	beqz	a0,1a65e <_signal_r+0x58>
   1a652:	00072023          	sw	zero,0(a4)
   1a656:	0711                	add	a4,a4,4
   1a658:	fed71de3          	bne	a4,a3,1a652 <_signal_r+0x4c>
   1a65c:	b7c9                	j	1a61e <_signal_r+0x18>
   1a65e:	4462                	lw	s0,24(sp)
   1a660:	557d                	li	a0,-1
   1a662:	b7d9                	j	1a628 <_signal_r+0x22>

0001a664 <_raise_r>:
   1a664:	1141                	add	sp,sp,-16
   1a666:	c226                	sw	s1,4(sp)
   1a668:	c606                	sw	ra,12(sp)
   1a66a:	47fd                	li	a5,31
   1a66c:	84aa                	mv	s1,a0
   1a66e:	04b7ee63          	bltu	a5,a1,1a6ca <_raise_r+0x66>
   1a672:	11852783          	lw	a5,280(a0)
   1a676:	c422                	sw	s0,8(sp)
   1a678:	842e                	mv	s0,a1
   1a67a:	c795                	beqz	a5,1a6a6 <_raise_r+0x42>
   1a67c:	00259713          	sll	a4,a1,0x2
   1a680:	97ba                	add	a5,a5,a4
   1a682:	4398                	lw	a4,0(a5)
   1a684:	c30d                	beqz	a4,1a6a6 <_raise_r+0x42>
   1a686:	4685                	li	a3,1
   1a688:	00d70963          	beq	a4,a3,1a69a <_raise_r+0x36>
   1a68c:	56fd                	li	a3,-1
   1a68e:	02d70663          	beq	a4,a3,1a6ba <_raise_r+0x56>
   1a692:	0007a023          	sw	zero,0(a5)
   1a696:	852e                	mv	a0,a1
   1a698:	9702                	jalr	a4
   1a69a:	4422                	lw	s0,8(sp)
   1a69c:	4501                	li	a0,0
   1a69e:	40b2                	lw	ra,12(sp)
   1a6a0:	4492                	lw	s1,4(sp)
   1a6a2:	0141                	add	sp,sp,16
   1a6a4:	8082                	ret
   1a6a6:	8526                	mv	a0,s1
   1a6a8:	2451                	jal	1a92c <_getpid_r>
   1a6aa:	8622                	mv	a2,s0
   1a6ac:	4422                	lw	s0,8(sp)
   1a6ae:	40b2                	lw	ra,12(sp)
   1a6b0:	85aa                	mv	a1,a0
   1a6b2:	8526                	mv	a0,s1
   1a6b4:	4492                	lw	s1,4(sp)
   1a6b6:	0141                	add	sp,sp,16
   1a6b8:	a489                	j	1a8fa <_kill_r>
   1a6ba:	4422                	lw	s0,8(sp)
   1a6bc:	40b2                	lw	ra,12(sp)
   1a6be:	47d9                	li	a5,22
   1a6c0:	c11c                	sw	a5,0(a0)
   1a6c2:	4492                	lw	s1,4(sp)
   1a6c4:	4505                	li	a0,1
   1a6c6:	0141                	add	sp,sp,16
   1a6c8:	8082                	ret
   1a6ca:	47d9                	li	a5,22
   1a6cc:	c11c                	sw	a5,0(a0)
   1a6ce:	557d                	li	a0,-1
   1a6d0:	b7f9                	j	1a69e <_raise_r+0x3a>

0001a6d2 <__sigtramp_r>:
   1a6d2:	47fd                	li	a5,31
   1a6d4:	08b7e163          	bltu	a5,a1,1a756 <__sigtramp_r+0x84>
   1a6d8:	11852783          	lw	a5,280(a0)
   1a6dc:	1141                	add	sp,sp,-16
   1a6de:	c422                	sw	s0,8(sp)
   1a6e0:	c226                	sw	s1,4(sp)
   1a6e2:	c606                	sw	ra,12(sp)
   1a6e4:	842e                	mv	s0,a1
   1a6e6:	84aa                	mv	s1,a0
   1a6e8:	c7a1                	beqz	a5,1a730 <__sigtramp_r+0x5e>
   1a6ea:	00241713          	sll	a4,s0,0x2
   1a6ee:	97ba                	add	a5,a5,a4
   1a6f0:	4398                	lw	a4,0(a5)
   1a6f2:	c30d                	beqz	a4,1a714 <__sigtramp_r+0x42>
   1a6f4:	56fd                	li	a3,-1
   1a6f6:	02d70b63          	beq	a4,a3,1a72c <__sigtramp_r+0x5a>
   1a6fa:	4685                	li	a3,1
   1a6fc:	02d70263          	beq	a4,a3,1a720 <__sigtramp_r+0x4e>
   1a700:	8522                	mv	a0,s0
   1a702:	0007a023          	sw	zero,0(a5)
   1a706:	9702                	jalr	a4
   1a708:	4501                	li	a0,0
   1a70a:	40b2                	lw	ra,12(sp)
   1a70c:	4422                	lw	s0,8(sp)
   1a70e:	4492                	lw	s1,4(sp)
   1a710:	0141                	add	sp,sp,16
   1a712:	8082                	ret
   1a714:	40b2                	lw	ra,12(sp)
   1a716:	4422                	lw	s0,8(sp)
   1a718:	4492                	lw	s1,4(sp)
   1a71a:	4505                	li	a0,1
   1a71c:	0141                	add	sp,sp,16
   1a71e:	8082                	ret
   1a720:	40b2                	lw	ra,12(sp)
   1a722:	4422                	lw	s0,8(sp)
   1a724:	4492                	lw	s1,4(sp)
   1a726:	450d                	li	a0,3
   1a728:	0141                	add	sp,sp,16
   1a72a:	8082                	ret
   1a72c:	4509                	li	a0,2
   1a72e:	bff1                	j	1a70a <__sigtramp_r+0x38>
   1a730:	08000593          	li	a1,128
   1a734:	f42f70ef          	jal	11e76 <_malloc_r>
   1a738:	10a4ac23          	sw	a0,280(s1)
   1a73c:	87aa                	mv	a5,a0
   1a73e:	c911                	beqz	a0,1a752 <__sigtramp_r+0x80>
   1a740:	872a                	mv	a4,a0
   1a742:	08050693          	add	a3,a0,128
   1a746:	00072023          	sw	zero,0(a4)
   1a74a:	0711                	add	a4,a4,4
   1a74c:	fed71de3          	bne	a4,a3,1a746 <__sigtramp_r+0x74>
   1a750:	bf69                	j	1a6ea <__sigtramp_r+0x18>
   1a752:	557d                	li	a0,-1
   1a754:	bf5d                	j	1a70a <__sigtramp_r+0x38>
   1a756:	557d                	li	a0,-1
   1a758:	8082                	ret

0001a75a <raise>:
   1a75a:	1141                	add	sp,sp,-16
   1a75c:	c226                	sw	s1,4(sp)
   1a75e:	c606                	sw	ra,12(sp)
   1a760:	47fd                	li	a5,31
   1a762:	f681a483          	lw	s1,-152(gp) # 1e778 <_impure_ptr>
   1a766:	04a7ed63          	bltu	a5,a0,1a7c0 <raise+0x66>
   1a76a:	1184a783          	lw	a5,280(s1)
   1a76e:	c422                	sw	s0,8(sp)
   1a770:	842a                	mv	s0,a0
   1a772:	c78d                	beqz	a5,1a79c <raise+0x42>
   1a774:	00251713          	sll	a4,a0,0x2
   1a778:	97ba                	add	a5,a5,a4
   1a77a:	4398                	lw	a4,0(a5)
   1a77c:	c305                	beqz	a4,1a79c <raise+0x42>
   1a77e:	4685                	li	a3,1
   1a780:	00d70863          	beq	a4,a3,1a790 <raise+0x36>
   1a784:	56fd                	li	a3,-1
   1a786:	02d70563          	beq	a4,a3,1a7b0 <raise+0x56>
   1a78a:	0007a023          	sw	zero,0(a5)
   1a78e:	9702                	jalr	a4
   1a790:	4422                	lw	s0,8(sp)
   1a792:	4501                	li	a0,0
   1a794:	40b2                	lw	ra,12(sp)
   1a796:	4492                	lw	s1,4(sp)
   1a798:	0141                	add	sp,sp,16
   1a79a:	8082                	ret
   1a79c:	8526                	mv	a0,s1
   1a79e:	2279                	jal	1a92c <_getpid_r>
   1a7a0:	8622                	mv	a2,s0
   1a7a2:	4422                	lw	s0,8(sp)
   1a7a4:	40b2                	lw	ra,12(sp)
   1a7a6:	85aa                	mv	a1,a0
   1a7a8:	8526                	mv	a0,s1
   1a7aa:	4492                	lw	s1,4(sp)
   1a7ac:	0141                	add	sp,sp,16
   1a7ae:	a2b1                	j	1a8fa <_kill_r>
   1a7b0:	4422                	lw	s0,8(sp)
   1a7b2:	40b2                	lw	ra,12(sp)
   1a7b4:	47d9                	li	a5,22
   1a7b6:	c09c                	sw	a5,0(s1)
   1a7b8:	4505                	li	a0,1
   1a7ba:	4492                	lw	s1,4(sp)
   1a7bc:	0141                	add	sp,sp,16
   1a7be:	8082                	ret
   1a7c0:	47d9                	li	a5,22
   1a7c2:	c09c                	sw	a5,0(s1)
   1a7c4:	557d                	li	a0,-1
   1a7c6:	b7f9                	j	1a794 <raise+0x3a>

0001a7c8 <signal>:
   1a7c8:	1141                	add	sp,sp,-16
   1a7ca:	c04a                	sw	s2,0(sp)
   1a7cc:	c606                	sw	ra,12(sp)
   1a7ce:	47fd                	li	a5,31
   1a7d0:	f681a903          	lw	s2,-152(gp) # 1e778 <_impure_ptr>
   1a7d4:	02a7e463          	bltu	a5,a0,1a7fc <signal+0x34>
   1a7d8:	c422                	sw	s0,8(sp)
   1a7da:	842a                	mv	s0,a0
   1a7dc:	11892503          	lw	a0,280(s2)
   1a7e0:	c226                	sw	s1,4(sp)
   1a7e2:	84ae                	mv	s1,a1
   1a7e4:	c10d                	beqz	a0,1a806 <signal+0x3e>
   1a7e6:	040a                	sll	s0,s0,0x2
   1a7e8:	008507b3          	add	a5,a0,s0
   1a7ec:	4388                	lw	a0,0(a5)
   1a7ee:	4422                	lw	s0,8(sp)
   1a7f0:	c384                	sw	s1,0(a5)
   1a7f2:	4492                	lw	s1,4(sp)
   1a7f4:	40b2                	lw	ra,12(sp)
   1a7f6:	4902                	lw	s2,0(sp)
   1a7f8:	0141                	add	sp,sp,16
   1a7fa:	8082                	ret
   1a7fc:	47d9                	li	a5,22
   1a7fe:	00f92023          	sw	a5,0(s2)
   1a802:	557d                	li	a0,-1
   1a804:	bfc5                	j	1a7f4 <signal+0x2c>
   1a806:	08000593          	li	a1,128
   1a80a:	854a                	mv	a0,s2
   1a80c:	e6af70ef          	jal	11e76 <_malloc_r>
   1a810:	10a92c23          	sw	a0,280(s2)
   1a814:	87aa                	mv	a5,a0
   1a816:	08050713          	add	a4,a0,128
   1a81a:	c519                	beqz	a0,1a828 <signal+0x60>
   1a81c:	0007a023          	sw	zero,0(a5)
   1a820:	0791                	add	a5,a5,4
   1a822:	fef71de3          	bne	a4,a5,1a81c <signal+0x54>
   1a826:	b7c1                	j	1a7e6 <signal+0x1e>
   1a828:	4422                	lw	s0,8(sp)
   1a82a:	4492                	lw	s1,4(sp)
   1a82c:	557d                	li	a0,-1
   1a82e:	b7d9                	j	1a7f4 <signal+0x2c>

0001a830 <_init_signal>:
   1a830:	1141                	add	sp,sp,-16
   1a832:	c422                	sw	s0,8(sp)
   1a834:	f681a403          	lw	s0,-152(gp) # 1e778 <_impure_ptr>
   1a838:	11842783          	lw	a5,280(s0)
   1a83c:	c606                	sw	ra,12(sp)
   1a83e:	c791                	beqz	a5,1a84a <_init_signal+0x1a>
   1a840:	4501                	li	a0,0
   1a842:	40b2                	lw	ra,12(sp)
   1a844:	4422                	lw	s0,8(sp)
   1a846:	0141                	add	sp,sp,16
   1a848:	8082                	ret
   1a84a:	08000593          	li	a1,128
   1a84e:	8522                	mv	a0,s0
   1a850:	e26f70ef          	jal	11e76 <_malloc_r>
   1a854:	10a42c23          	sw	a0,280(s0)
   1a858:	c909                	beqz	a0,1a86a <_init_signal+0x3a>
   1a85a:	08050793          	add	a5,a0,128
   1a85e:	00052023          	sw	zero,0(a0)
   1a862:	0511                	add	a0,a0,4
   1a864:	fef51de3          	bne	a0,a5,1a85e <_init_signal+0x2e>
   1a868:	bfe1                	j	1a840 <_init_signal+0x10>
   1a86a:	557d                	li	a0,-1
   1a86c:	bfd9                	j	1a842 <_init_signal+0x12>

0001a86e <__sigtramp>:
   1a86e:	1141                	add	sp,sp,-16
   1a870:	c226                	sw	s1,4(sp)
   1a872:	c606                	sw	ra,12(sp)
   1a874:	47fd                	li	a5,31
   1a876:	f681a483          	lw	s1,-152(gp) # 1e778 <_impure_ptr>
   1a87a:	06a7ee63          	bltu	a5,a0,1a8f6 <__sigtramp+0x88>
   1a87e:	1184a783          	lw	a5,280(s1)
   1a882:	c422                	sw	s0,8(sp)
   1a884:	842a                	mv	s0,a0
   1a886:	c7a9                	beqz	a5,1a8d0 <__sigtramp+0x62>
   1a888:	00241713          	sll	a4,s0,0x2
   1a88c:	97ba                	add	a5,a5,a4
   1a88e:	4398                	lw	a4,0(a5)
   1a890:	c30d                	beqz	a4,1a8b2 <__sigtramp+0x44>
   1a892:	56fd                	li	a3,-1
   1a894:	02d70b63          	beq	a4,a3,1a8ca <__sigtramp+0x5c>
   1a898:	4685                	li	a3,1
   1a89a:	02d70263          	beq	a4,a3,1a8be <__sigtramp+0x50>
   1a89e:	8522                	mv	a0,s0
   1a8a0:	0007a023          	sw	zero,0(a5)
   1a8a4:	9702                	jalr	a4
   1a8a6:	4422                	lw	s0,8(sp)
   1a8a8:	4501                	li	a0,0
   1a8aa:	40b2                	lw	ra,12(sp)
   1a8ac:	4492                	lw	s1,4(sp)
   1a8ae:	0141                	add	sp,sp,16
   1a8b0:	8082                	ret
   1a8b2:	4422                	lw	s0,8(sp)
   1a8b4:	40b2                	lw	ra,12(sp)
   1a8b6:	4492                	lw	s1,4(sp)
   1a8b8:	4505                	li	a0,1
   1a8ba:	0141                	add	sp,sp,16
   1a8bc:	8082                	ret
   1a8be:	4422                	lw	s0,8(sp)
   1a8c0:	40b2                	lw	ra,12(sp)
   1a8c2:	4492                	lw	s1,4(sp)
   1a8c4:	450d                	li	a0,3
   1a8c6:	0141                	add	sp,sp,16
   1a8c8:	8082                	ret
   1a8ca:	4422                	lw	s0,8(sp)
   1a8cc:	4509                	li	a0,2
   1a8ce:	bff1                	j	1a8aa <__sigtramp+0x3c>
   1a8d0:	08000593          	li	a1,128
   1a8d4:	8526                	mv	a0,s1
   1a8d6:	da0f70ef          	jal	11e76 <_malloc_r>
   1a8da:	10a4ac23          	sw	a0,280(s1)
   1a8de:	87aa                	mv	a5,a0
   1a8e0:	c911                	beqz	a0,1a8f4 <__sigtramp+0x86>
   1a8e2:	872a                	mv	a4,a0
   1a8e4:	08050693          	add	a3,a0,128
   1a8e8:	00072023          	sw	zero,0(a4)
   1a8ec:	0711                	add	a4,a4,4
   1a8ee:	fee69de3          	bne	a3,a4,1a8e8 <__sigtramp+0x7a>
   1a8f2:	bf59                	j	1a888 <__sigtramp+0x1a>
   1a8f4:	4422                	lw	s0,8(sp)
   1a8f6:	557d                	li	a0,-1
   1a8f8:	bf4d                	j	1a8aa <__sigtramp+0x3c>

0001a8fa <_kill_r>:
   1a8fa:	1141                	add	sp,sp,-16
   1a8fc:	872e                	mv	a4,a1
   1a8fe:	c422                	sw	s0,8(sp)
   1a900:	85b2                	mv	a1,a2
   1a902:	842a                	mv	s0,a0
   1a904:	853a                	mv	a0,a4
   1a906:	f801a223          	sw	zero,-124(gp) # 1e794 <errno>
   1a90a:	c606                	sw	ra,12(sp)
   1a90c:	28c9                	jal	1a9de <_kill>
   1a90e:	57fd                	li	a5,-1
   1a910:	00f50663          	beq	a0,a5,1a91c <_kill_r+0x22>
   1a914:	40b2                	lw	ra,12(sp)
   1a916:	4422                	lw	s0,8(sp)
   1a918:	0141                	add	sp,sp,16
   1a91a:	8082                	ret
   1a91c:	f841a783          	lw	a5,-124(gp) # 1e794 <errno>
   1a920:	dbf5                	beqz	a5,1a914 <_kill_r+0x1a>
   1a922:	40b2                	lw	ra,12(sp)
   1a924:	c01c                	sw	a5,0(s0)
   1a926:	4422                	lw	s0,8(sp)
   1a928:	0141                	add	sp,sp,16
   1a92a:	8082                	ret

0001a92c <_getpid_r>:
   1a92c:	a069                	j	1a9b6 <_getpid>

0001a92e <_close>:
   1a92e:	1141                	add	sp,sp,-16
   1a930:	c606                	sw	ra,12(sp)
   1a932:	c422                	sw	s0,8(sp)
   1a934:	03900893          	li	a7,57
   1a938:	00000073          	ecall
   1a93c:	842a                	mv	s0,a0
   1a93e:	00054763          	bltz	a0,1a94c <_close+0x1e>
   1a942:	40b2                	lw	ra,12(sp)
   1a944:	8522                	mv	a0,s0
   1a946:	4422                	lw	s0,8(sp)
   1a948:	0141                	add	sp,sp,16
   1a94a:	8082                	ret
   1a94c:	40800433          	neg	s0,s0
   1a950:	9d5ff0ef          	jal	1a324 <__errno>
   1a954:	c100                	sw	s0,0(a0)
   1a956:	547d                	li	s0,-1
   1a958:	b7ed                	j	1a942 <_close+0x14>

0001a95a <_exit>:
   1a95a:	05d00893          	li	a7,93
   1a95e:	00000073          	ecall
   1a962:	00054363          	bltz	a0,1a968 <_exit+0xe>
   1a966:	a001                	j	1a966 <_exit+0xc>
   1a968:	1141                	add	sp,sp,-16
   1a96a:	c422                	sw	s0,8(sp)
   1a96c:	842a                	mv	s0,a0
   1a96e:	c606                	sw	ra,12(sp)
   1a970:	40800433          	neg	s0,s0
   1a974:	9b1ff0ef          	jal	1a324 <__errno>
   1a978:	c100                	sw	s0,0(a0)
   1a97a:	a001                	j	1a97a <_exit+0x20>

0001a97c <_fstat>:
   1a97c:	7175                	add	sp,sp,-144
   1a97e:	c326                	sw	s1,132(sp)
   1a980:	c706                	sw	ra,140(sp)
   1a982:	84ae                	mv	s1,a1
   1a984:	c522                	sw	s0,136(sp)
   1a986:	05000893          	li	a7,80
   1a98a:	858a                	mv	a1,sp
   1a98c:	00000073          	ecall
   1a990:	842a                	mv	s0,a0
   1a992:	00054b63          	bltz	a0,1a9a8 <_fstat+0x2c>
   1a996:	8526                	mv	a0,s1
   1a998:	858a                	mv	a1,sp
   1a99a:	2235                	jal	1aac6 <_conv_stat>
   1a99c:	40ba                	lw	ra,140(sp)
   1a99e:	8522                	mv	a0,s0
   1a9a0:	442a                	lw	s0,136(sp)
   1a9a2:	449a                	lw	s1,132(sp)
   1a9a4:	6149                	add	sp,sp,144
   1a9a6:	8082                	ret
   1a9a8:	40800433          	neg	s0,s0
   1a9ac:	979ff0ef          	jal	1a324 <__errno>
   1a9b0:	c100                	sw	s0,0(a0)
   1a9b2:	547d                	li	s0,-1
   1a9b4:	b7cd                	j	1a996 <_fstat+0x1a>

0001a9b6 <_getpid>:
   1a9b6:	4505                	li	a0,1
   1a9b8:	8082                	ret

0001a9ba <_isatty>:
   1a9ba:	7159                	add	sp,sp,-112
   1a9bc:	002c                	add	a1,sp,8
   1a9be:	d686                	sw	ra,108(sp)
   1a9c0:	fbdff0ef          	jal	1a97c <_fstat>
   1a9c4:	57fd                	li	a5,-1
   1a9c6:	00f50863          	beq	a0,a5,1a9d6 <_isatty+0x1c>
   1a9ca:	4532                	lw	a0,12(sp)
   1a9cc:	50b6                	lw	ra,108(sp)
   1a9ce:	8135                	srl	a0,a0,0xd
   1a9d0:	8905                	and	a0,a0,1
   1a9d2:	6165                	add	sp,sp,112
   1a9d4:	8082                	ret
   1a9d6:	50b6                	lw	ra,108(sp)
   1a9d8:	4501                	li	a0,0
   1a9da:	6165                	add	sp,sp,112
   1a9dc:	8082                	ret

0001a9de <_kill>:
   1a9de:	1141                	add	sp,sp,-16
   1a9e0:	c606                	sw	ra,12(sp)
   1a9e2:	943ff0ef          	jal	1a324 <__errno>
   1a9e6:	40b2                	lw	ra,12(sp)
   1a9e8:	47d9                	li	a5,22
   1a9ea:	c11c                	sw	a5,0(a0)
   1a9ec:	557d                	li	a0,-1
   1a9ee:	0141                	add	sp,sp,16
   1a9f0:	8082                	ret

0001a9f2 <_lseek>:
   1a9f2:	1141                	add	sp,sp,-16
   1a9f4:	c606                	sw	ra,12(sp)
   1a9f6:	c422                	sw	s0,8(sp)
   1a9f8:	03e00893          	li	a7,62
   1a9fc:	00000073          	ecall
   1aa00:	842a                	mv	s0,a0
   1aa02:	00054763          	bltz	a0,1aa10 <_lseek+0x1e>
   1aa06:	40b2                	lw	ra,12(sp)
   1aa08:	8522                	mv	a0,s0
   1aa0a:	4422                	lw	s0,8(sp)
   1aa0c:	0141                	add	sp,sp,16
   1aa0e:	8082                	ret
   1aa10:	40800433          	neg	s0,s0
   1aa14:	911ff0ef          	jal	1a324 <__errno>
   1aa18:	c100                	sw	s0,0(a0)
   1aa1a:	547d                	li	s0,-1
   1aa1c:	b7ed                	j	1aa06 <_lseek+0x14>

0001aa1e <_read>:
   1aa1e:	1141                	add	sp,sp,-16
   1aa20:	c606                	sw	ra,12(sp)
   1aa22:	c422                	sw	s0,8(sp)
   1aa24:	03f00893          	li	a7,63
   1aa28:	00000073          	ecall
   1aa2c:	842a                	mv	s0,a0
   1aa2e:	00054763          	bltz	a0,1aa3c <_read+0x1e>
   1aa32:	40b2                	lw	ra,12(sp)
   1aa34:	8522                	mv	a0,s0
   1aa36:	4422                	lw	s0,8(sp)
   1aa38:	0141                	add	sp,sp,16
   1aa3a:	8082                	ret
   1aa3c:	40800433          	neg	s0,s0
   1aa40:	8e5ff0ef          	jal	1a324 <__errno>
   1aa44:	c100                	sw	s0,0(a0)
   1aa46:	547d                	li	s0,-1
   1aa48:	b7ed                	j	1aa32 <_read+0x14>

0001aa4a <_sbrk>:
   1aa4a:	fc018693          	add	a3,gp,-64 # 1e7d0 <heap_end.0>
   1aa4e:	4298                	lw	a4,0(a3)
   1aa50:	1141                	add	sp,sp,-16
   1aa52:	c606                	sw	ra,12(sp)
   1aa54:	87aa                	mv	a5,a0
   1aa56:	eb19                	bnez	a4,1aa6c <_sbrk+0x22>
   1aa58:	0d600893          	li	a7,214
   1aa5c:	4501                	li	a0,0
   1aa5e:	00000073          	ecall
   1aa62:	567d                	li	a2,-1
   1aa64:	872a                	mv	a4,a0
   1aa66:	02c50263          	beq	a0,a2,1aa8a <_sbrk+0x40>
   1aa6a:	c288                	sw	a0,0(a3)
   1aa6c:	0d600893          	li	a7,214
   1aa70:	00e78533          	add	a0,a5,a4
   1aa74:	00000073          	ecall
   1aa78:	4298                	lw	a4,0(a3)
   1aa7a:	97ba                	add	a5,a5,a4
   1aa7c:	00f51763          	bne	a0,a5,1aa8a <_sbrk+0x40>
   1aa80:	40b2                	lw	ra,12(sp)
   1aa82:	c288                	sw	a0,0(a3)
   1aa84:	853a                	mv	a0,a4
   1aa86:	0141                	add	sp,sp,16
   1aa88:	8082                	ret
   1aa8a:	89bff0ef          	jal	1a324 <__errno>
   1aa8e:	40b2                	lw	ra,12(sp)
   1aa90:	47b1                	li	a5,12
   1aa92:	c11c                	sw	a5,0(a0)
   1aa94:	557d                	li	a0,-1
   1aa96:	0141                	add	sp,sp,16
   1aa98:	8082                	ret

0001aa9a <_write>:
   1aa9a:	1141                	add	sp,sp,-16
   1aa9c:	c606                	sw	ra,12(sp)
   1aa9e:	c422                	sw	s0,8(sp)
   1aaa0:	04000893          	li	a7,64
   1aaa4:	00000073          	ecall
   1aaa8:	842a                	mv	s0,a0
   1aaaa:	00054763          	bltz	a0,1aab8 <_write+0x1e>
   1aaae:	40b2                	lw	ra,12(sp)
   1aab0:	8522                	mv	a0,s0
   1aab2:	4422                	lw	s0,8(sp)
   1aab4:	0141                	add	sp,sp,16
   1aab6:	8082                	ret
   1aab8:	40800433          	neg	s0,s0
   1aabc:	869ff0ef          	jal	1a324 <__errno>
   1aac0:	c100                	sw	s0,0(a0)
   1aac2:	547d                	li	s0,-1
   1aac4:	b7ed                	j	1aaae <_write+0x14>

0001aac6 <_conv_stat>:
   1aac6:	0185d703          	lhu	a4,24(a1)
   1aaca:	0145d783          	lhu	a5,20(a1)
   1aace:	1141                	add	sp,sp,-16
   1aad0:	01c5a283          	lw	t0,28(a1)
   1aad4:	0205af83          	lw	t6,32(a1)
   1aad8:	0305af03          	lw	t5,48(a1)
   1aadc:	0405ae83          	lw	t4,64(a1)
   1aae0:	0385ae03          	lw	t3,56(a1)
   1aae4:	0485a303          	lw	t1,72(a1)
   1aae8:	04c5a383          	lw	t2,76(a1)
   1aaec:	0585a803          	lw	a6,88(a1)
   1aaf0:	05c5a883          	lw	a7,92(a1)
   1aaf4:	c622                	sw	s0,12(sp)
   1aaf6:	c426                	sw	s1,8(sp)
   1aaf8:	4980                	lw	s0,16(a1)
   1aafa:	4584                	lw	s1,8(a1)
   1aafc:	c24a                	sw	s2,4(sp)
   1aafe:	0005a903          	lw	s2,0(a1)
   1ab02:	55b0                	lw	a2,104(a1)
   1ab04:	0742                	sll	a4,a4,0x10
   1ab06:	8fd9                	or	a5,a5,a4
   1ab08:	55f4                	lw	a3,108(a1)
   1ab0a:	01251023          	sh	s2,0(a0)
   1ab0e:	00951123          	sh	s1,2(a0)
   1ab12:	c140                	sw	s0,4(a0)
   1ab14:	c51c                	sw	a5,8(a0)
   1ab16:	00551623          	sh	t0,12(a0)
   1ab1a:	01f51723          	sh	t6,14(a0)
   1ab1e:	01e52823          	sw	t5,16(a0)
   1ab22:	05d52623          	sw	t4,76(a0)
   1ab26:	05c52423          	sw	t3,72(a0)
   1ab2a:	00652c23          	sw	t1,24(a0)
   1ab2e:	00752e23          	sw	t2,28(a0)
   1ab32:	03052423          	sw	a6,40(a0)
   1ab36:	03152623          	sw	a7,44(a0)
   1ab3a:	dd10                	sw	a2,56(a0)
   1ab3c:	4432                	lw	s0,12(sp)
   1ab3e:	dd54                	sw	a3,60(a0)
   1ab40:	44a2                	lw	s1,8(sp)
   1ab42:	4912                	lw	s2,4(sp)
   1ab44:	0141                	add	sp,sp,16
   1ab46:	8082                	ret

0001ab48 <__adddf3>:
   1ab48:	001007b7          	lui	a5,0x100
   1ab4c:	1101                	add	sp,sp,-32
   1ab4e:	fff78e93          	add	t4,a5,-1 # fffff <__BSS_END__+0xe127b>
   1ab52:	00bef833          	and	a6,t4,a1
   1ab56:	00def7b3          	and	a5,t4,a3
   1ab5a:	0146d313          	srl	t1,a3,0x14
   1ab5e:	c84a                	sw	s2,16(sp)
   1ab60:	0145d913          	srl	s2,a1,0x14
   1ab64:	078e                	sll	a5,a5,0x3
   1ab66:	cc22                	sw	s0,24(sp)
   1ab68:	080e                	sll	a6,a6,0x3
   1ab6a:	01f5d413          	srl	s0,a1,0x1f
   1ab6e:	01d55713          	srl	a4,a0,0x1d
   1ab72:	01d65893          	srl	a7,a2,0x1d
   1ab76:	7ff97913          	and	s2,s2,2047
   1ab7a:	7ff37313          	and	t1,t1,2047
   1ab7e:	ce06                	sw	ra,28(sp)
   1ab80:	ca26                	sw	s1,20(sp)
   1ab82:	c64e                	sw	s3,12(sp)
   1ab84:	82fd                	srl	a3,a3,0x1f
   1ab86:	00f8e8b3          	or	a7,a7,a5
   1ab8a:	01076733          	or	a4,a4,a6
   1ab8e:	00351593          	sll	a1,a0,0x3
   1ab92:	00361f13          	sll	t5,a2,0x3
   1ab96:	406907b3          	sub	a5,s2,t1
   1ab9a:	18d40c63          	beq	s0,a3,1ad32 <__adddf3+0x1ea>
   1ab9e:	12f05363          	blez	a5,1acc4 <__adddf3+0x17c>
   1aba2:	22030263          	beqz	t1,1adc6 <__adddf3+0x27e>
   1aba6:	7ff00693          	li	a3,2047
   1abaa:	38d90163          	beq	s2,a3,1af2c <__adddf3+0x3e4>
   1abae:	03800693          	li	a3,56
   1abb2:	4605                	li	a2,1
   1abb4:	02f6ca63          	blt	a3,a5,1abe8 <__adddf3+0xa0>
   1abb8:	008006b7          	lui	a3,0x800
   1abbc:	00d8e8b3          	or	a7,a7,a3
   1abc0:	46fd                	li	a3,31
   1abc2:	44f6ce63          	blt	a3,a5,1b01e <__adddf3+0x4d6>
   1abc6:	02000693          	li	a3,32
   1abca:	8e9d                	sub	a3,a3,a5
   1abcc:	00d89633          	sll	a2,a7,a3
   1abd0:	00ff5533          	srl	a0,t5,a5
   1abd4:	00df16b3          	sll	a3,t5,a3
   1abd8:	8e49                	or	a2,a2,a0
   1abda:	00d036b3          	snez	a3,a3
   1abde:	00f8d8b3          	srl	a7,a7,a5
   1abe2:	8e55                	or	a2,a2,a3
   1abe4:	41170733          	sub	a4,a4,a7
   1abe8:	40c58633          	sub	a2,a1,a2
   1abec:	00c5b5b3          	sltu	a1,a1,a2
   1abf0:	84b2                	mv	s1,a2
   1abf2:	40b709b3          	sub	s3,a4,a1
   1abf6:	00899793          	sll	a5,s3,0x8
   1abfa:	2a07db63          	bgez	a5,1aeb0 <__adddf3+0x368>
   1abfe:	008007b7          	lui	a5,0x800
   1ac02:	17fd                	add	a5,a5,-1 # 7fffff <__BSS_END__+0x7e127b>
   1ac04:	00f9f9b3          	and	s3,s3,a5
   1ac08:	24098f63          	beqz	s3,1ae66 <__adddf3+0x31e>
   1ac0c:	854e                	mv	a0,s3
   1ac0e:	e1ef60ef          	jal	1122c <__clzsi2>
   1ac12:	ff850793          	add	a5,a0,-8
   1ac16:	02000693          	li	a3,32
   1ac1a:	40f68733          	sub	a4,a3,a5
   1ac1e:	00e4d733          	srl	a4,s1,a4
   1ac22:	00f999b3          	sll	s3,s3,a5
   1ac26:	01376733          	or	a4,a4,s3
   1ac2a:	00f494b3          	sll	s1,s1,a5
   1ac2e:	3f27c063          	blt	a5,s2,1b00e <__adddf3+0x4c6>
   1ac32:	412787b3          	sub	a5,a5,s2
   1ac36:	0785                	add	a5,a5,1
   1ac38:	8e9d                	sub	a3,a3,a5
   1ac3a:	00d49633          	sll	a2,s1,a3
   1ac3e:	00f4d9b3          	srl	s3,s1,a5
   1ac42:	00c03633          	snez	a2,a2
   1ac46:	01366633          	or	a2,a2,s3
   1ac4a:	00d716b3          	sll	a3,a4,a3
   1ac4e:	00c6e4b3          	or	s1,a3,a2
   1ac52:	00f759b3          	srl	s3,a4,a5
   1ac56:	4901                	li	s2,0
   1ac58:	0074f793          	and	a5,s1,7
   1ac5c:	cf81                	beqz	a5,1ac74 <__adddf3+0x12c>
   1ac5e:	00f4f793          	and	a5,s1,15
   1ac62:	4711                	li	a4,4
   1ac64:	00e78863          	beq	a5,a4,1ac74 <__adddf3+0x12c>
   1ac68:	00448793          	add	a5,s1,4
   1ac6c:	0097b633          	sltu	a2,a5,s1
   1ac70:	99b2                	add	s3,s3,a2
   1ac72:	84be                	mv	s1,a5
   1ac74:	00899793          	sll	a5,s3,0x8
   1ac78:	5807dd63          	bgez	a5,1b212 <__adddf3+0x6ca>
   1ac7c:	00190793          	add	a5,s2,1
   1ac80:	7ff00713          	li	a4,2047
   1ac84:	8e22                	mv	t3,s0
   1ac86:	22e78e63          	beq	a5,a4,1aec2 <__adddf3+0x37a>
   1ac8a:	ff800737          	lui	a4,0xff800
   1ac8e:	177d                	add	a4,a4,-1 # ff7fffff <__BSS_END__+0xff7e127b>
   1ac90:	00e9f733          	and	a4,s3,a4
   1ac94:	7ff7f793          	and	a5,a5,2047
   1ac98:	01d71813          	sll	a6,a4,0x1d
   1ac9c:	0034d613          	srl	a2,s1,0x3
   1aca0:	0726                	sll	a4,a4,0x9
   1aca2:	00c86833          	or	a6,a6,a2
   1aca6:	8331                	srl	a4,a4,0xc
   1aca8:	40f2                	lw	ra,28(sp)
   1acaa:	4462                	lw	s0,24(sp)
   1acac:	07d2                	sll	a5,a5,0x14
   1acae:	8fd9                	or	a5,a5,a4
   1acb0:	01fe1713          	sll	a4,t3,0x1f
   1acb4:	8fd9                	or	a5,a5,a4
   1acb6:	44d2                	lw	s1,20(sp)
   1acb8:	4942                	lw	s2,16(sp)
   1acba:	49b2                	lw	s3,12(sp)
   1acbc:	8542                	mv	a0,a6
   1acbe:	85be                	mv	a1,a5
   1acc0:	6105                	add	sp,sp,32
   1acc2:	8082                	ret
   1acc4:	12078463          	beqz	a5,1adec <__adddf3+0x2a4>
   1acc8:	412307b3          	sub	a5,t1,s2
   1accc:	32091463          	bnez	s2,1aff4 <__adddf3+0x4ac>
   1acd0:	00b76533          	or	a0,a4,a1
   1acd4:	3e050c63          	beqz	a0,1b0cc <__adddf3+0x584>
   1acd8:	fff78513          	add	a0,a5,-1
   1acdc:	4e050263          	beqz	a0,1b1c0 <__adddf3+0x678>
   1ace0:	7ff00813          	li	a6,2047
   1ace4:	47078963          	beq	a5,a6,1b156 <__adddf3+0x60e>
   1ace8:	03800793          	li	a5,56
   1acec:	4605                	li	a2,1
   1acee:	02a7c863          	blt	a5,a0,1ad1e <__adddf3+0x1d6>
   1acf2:	87aa                	mv	a5,a0
   1acf4:	467d                	li	a2,31
   1acf6:	46f64963          	blt	a2,a5,1b168 <__adddf3+0x620>
   1acfa:	02000513          	li	a0,32
   1acfe:	8d1d                	sub	a0,a0,a5
   1ad00:	00a71633          	sll	a2,a4,a0
   1ad04:	00f5d833          	srl	a6,a1,a5
   1ad08:	00a59533          	sll	a0,a1,a0
   1ad0c:	01066633          	or	a2,a2,a6
   1ad10:	00a03533          	snez	a0,a0
   1ad14:	00f75733          	srl	a4,a4,a5
   1ad18:	8e49                	or	a2,a2,a0
   1ad1a:	40e888b3          	sub	a7,a7,a4
   1ad1e:	40cf0633          	sub	a2,t5,a2
   1ad22:	00cf3733          	sltu	a4,t5,a2
   1ad26:	84b2                	mv	s1,a2
   1ad28:	40e889b3          	sub	s3,a7,a4
   1ad2c:	891a                	mv	s2,t1
   1ad2e:	8436                	mv	s0,a3
   1ad30:	b5d9                	j	1abf6 <__adddf3+0xae>
   1ad32:	18f05d63          	blez	a5,1aecc <__adddf3+0x384>
   1ad36:	10031a63          	bnez	t1,1ae4a <__adddf3+0x302>
   1ad3a:	01e8e6b3          	or	a3,a7,t5
   1ad3e:	20068a63          	beqz	a3,1af52 <__adddf3+0x40a>
   1ad42:	fff78693          	add	a3,a5,-1
   1ad46:	3a068663          	beqz	a3,1b0f2 <__adddf3+0x5aa>
   1ad4a:	7ff00613          	li	a2,2047
   1ad4e:	1cc78f63          	beq	a5,a2,1af2c <__adddf3+0x3e4>
   1ad52:	03800793          	li	a5,56
   1ad56:	4985                	li	s3,1
   1ad58:	02d7c863          	blt	a5,a3,1ad88 <__adddf3+0x240>
   1ad5c:	87b6                	mv	a5,a3
   1ad5e:	46fd                	li	a3,31
   1ad60:	3cf6c163          	blt	a3,a5,1b122 <__adddf3+0x5da>
   1ad64:	02000693          	li	a3,32
   1ad68:	8e9d                	sub	a3,a3,a5
   1ad6a:	00d899b3          	sll	s3,a7,a3
   1ad6e:	00ff5633          	srl	a2,t5,a5
   1ad72:	00df16b3          	sll	a3,t5,a3
   1ad76:	00c9e9b3          	or	s3,s3,a2
   1ad7a:	00d036b3          	snez	a3,a3
   1ad7e:	00f8d8b3          	srl	a7,a7,a5
   1ad82:	00d9e9b3          	or	s3,s3,a3
   1ad86:	9746                	add	a4,a4,a7
   1ad88:	95ce                	add	a1,a1,s3
   1ad8a:	0135b9b3          	sltu	s3,a1,s3
   1ad8e:	84ae                	mv	s1,a1
   1ad90:	99ba                	add	s3,s3,a4
   1ad92:	00899793          	sll	a5,s3,0x8
   1ad96:	1007dd63          	bgez	a5,1aeb0 <__adddf3+0x368>
   1ad9a:	0905                	add	s2,s2,1
   1ad9c:	7ff00793          	li	a5,2047
   1ada0:	2ef90163          	beq	s2,a5,1b082 <__adddf3+0x53a>
   1ada4:	ff8007b7          	lui	a5,0xff800
   1ada8:	17fd                	add	a5,a5,-1 # ff7fffff <__BSS_END__+0xff7e127b>
   1adaa:	0014f613          	and	a2,s1,1
   1adae:	00f9f7b3          	and	a5,s3,a5
   1adb2:	0014d713          	srl	a4,s1,0x1
   1adb6:	8f51                	or	a4,a4,a2
   1adb8:	01f79613          	sll	a2,a5,0x1f
   1adbc:	00e664b3          	or	s1,a2,a4
   1adc0:	0017d993          	srl	s3,a5,0x1
   1adc4:	bd51                	j	1ac58 <__adddf3+0x110>
   1adc6:	01e8e6b3          	or	a3,a7,t5
   1adca:	18068463          	beqz	a3,1af52 <__adddf3+0x40a>
   1adce:	fff78693          	add	a3,a5,-1
   1add2:	32068d63          	beqz	a3,1b10c <__adddf3+0x5c4>
   1add6:	7ff00613          	li	a2,2047
   1adda:	14c78963          	beq	a5,a2,1af2c <__adddf3+0x3e4>
   1adde:	03800793          	li	a5,56
   1ade2:	4605                	li	a2,1
   1ade4:	e0d7c2e3          	blt	a5,a3,1abe8 <__adddf3+0xa0>
   1ade8:	87b6                	mv	a5,a3
   1adea:	bbd9                	j	1abc0 <__adddf3+0x78>
   1adec:	00190813          	add	a6,s2,1
   1adf0:	7fe87813          	and	a6,a6,2046
   1adf4:	1c081b63          	bnez	a6,1afca <__adddf3+0x482>
   1adf8:	00b76333          	or	t1,a4,a1
   1adfc:	01e8e833          	or	a6,a7,t5
   1ae00:	2c091b63          	bnez	s2,1b0d6 <__adddf3+0x58e>
   1ae04:	38030b63          	beqz	t1,1b19a <__adddf3+0x652>
   1ae08:	34080263          	beqz	a6,1b14c <__adddf3+0x604>
   1ae0c:	41e589b3          	sub	s3,a1,t5
   1ae10:	0135b533          	sltu	a0,a1,s3
   1ae14:	41170633          	sub	a2,a4,a7
   1ae18:	8e09                	sub	a2,a2,a0
   1ae1a:	00861513          	sll	a0,a2,0x8
   1ae1e:	40055463          	bgez	a0,1b226 <__adddf3+0x6de>
   1ae22:	40bf05b3          	sub	a1,t5,a1
   1ae26:	40e88733          	sub	a4,a7,a4
   1ae2a:	00bf3f33          	sltu	t5,t5,a1
   1ae2e:	41e70733          	sub	a4,a4,t5
   1ae32:	00871613          	sll	a2,a4,0x8
   1ae36:	84ae                	mv	s1,a1
   1ae38:	40065e63          	bgez	a2,1b254 <__adddf3+0x70c>
   1ae3c:	ff8007b7          	lui	a5,0xff800
   1ae40:	17fd                	add	a5,a5,-1 # ff7fffff <__BSS_END__+0xff7e127b>
   1ae42:	8f7d                	and	a4,a4,a5
   1ae44:	8e36                	mv	t3,a3
   1ae46:	4785                	li	a5,1
   1ae48:	bd81                	j	1ac98 <__adddf3+0x150>
   1ae4a:	7ff00693          	li	a3,2047
   1ae4e:	0cd90f63          	beq	s2,a3,1af2c <__adddf3+0x3e4>
   1ae52:	03800693          	li	a3,56
   1ae56:	4985                	li	s3,1
   1ae58:	f2f6c8e3          	blt	a3,a5,1ad88 <__adddf3+0x240>
   1ae5c:	008006b7          	lui	a3,0x800
   1ae60:	00d8e8b3          	or	a7,a7,a3
   1ae64:	bded                	j	1ad5e <__adddf3+0x216>
   1ae66:	8526                	mv	a0,s1
   1ae68:	bc4f60ef          	jal	1122c <__clzsi2>
   1ae6c:	01850793          	add	a5,a0,24
   1ae70:	46fd                	li	a3,31
   1ae72:	daf6d2e3          	bge	a3,a5,1ac16 <__adddf3+0xce>
   1ae76:	ff850713          	add	a4,a0,-8
   1ae7a:	00e49733          	sll	a4,s1,a4
   1ae7e:	1d27c463          	blt	a5,s2,1b046 <__adddf3+0x4fe>
   1ae82:	41278933          	sub	s2,a5,s2
   1ae86:	00190793          	add	a5,s2,1
   1ae8a:	38f6d963          	bge	a3,a5,1b21c <__adddf3+0x6d4>
   1ae8e:	1905                	add	s2,s2,-31
   1ae90:	02000693          	li	a3,32
   1ae94:	012754b3          	srl	s1,a4,s2
   1ae98:	00d78b63          	beq	a5,a3,1aeae <__adddf3+0x366>
   1ae9c:	04000693          	li	a3,64
   1aea0:	40f687b3          	sub	a5,a3,a5
   1aea4:	00f71733          	sll	a4,a4,a5
   1aea8:	00e03733          	snez	a4,a4
   1aeac:	8cd9                	or	s1,s1,a4
   1aeae:	4901                	li	s2,0
   1aeb0:	0074f793          	and	a5,s1,7
   1aeb4:	da0795e3          	bnez	a5,1ac5e <__adddf3+0x116>
   1aeb8:	87ca                	mv	a5,s2
   1aeba:	0034d613          	srl	a2,s1,0x3
   1aebe:	874e                	mv	a4,s3
   1aec0:	a861                	j	1af58 <__adddf3+0x410>
   1aec2:	7ff00793          	li	a5,2047
   1aec6:	4701                	li	a4,0
   1aec8:	4801                	li	a6,0
   1aeca:	bbf9                	j	1aca8 <__adddf3+0x160>
   1aecc:	c7cd                	beqz	a5,1af76 <__adddf3+0x42e>
   1aece:	412307b3          	sub	a5,t1,s2
   1aed2:	18090663          	beqz	s2,1b05e <__adddf3+0x516>
   1aed6:	7ff00693          	li	a3,2047
   1aeda:	28d30363          	beq	t1,a3,1b160 <__adddf3+0x618>
   1aede:	03800693          	li	a3,56
   1aee2:	4985                	li	s3,1
   1aee4:	02f6ca63          	blt	a3,a5,1af18 <__adddf3+0x3d0>
   1aee8:	008006b7          	lui	a3,0x800
   1aeec:	8f55                	or	a4,a4,a3
   1aeee:	46fd                	li	a3,31
   1aef0:	2ef6cd63          	blt	a3,a5,1b1ea <__adddf3+0x6a2>
   1aef4:	02000693          	li	a3,32
   1aef8:	8e9d                	sub	a3,a3,a5
   1aefa:	00d719b3          	sll	s3,a4,a3
   1aefe:	00f5d633          	srl	a2,a1,a5
   1af02:	00d596b3          	sll	a3,a1,a3
   1af06:	00c9e9b3          	or	s3,s3,a2
   1af0a:	00d036b3          	snez	a3,a3
   1af0e:	00f75733          	srl	a4,a4,a5
   1af12:	00d9e9b3          	or	s3,s3,a3
   1af16:	98ba                	add	a7,a7,a4
   1af18:	01e98733          	add	a4,s3,t5
   1af1c:	013739b3          	sltu	s3,a4,s3
   1af20:	84ba                	mv	s1,a4
   1af22:	99c6                	add	s3,s3,a7
   1af24:	891a                	mv	s2,t1
   1af26:	b5b5                	j	1ad92 <__adddf3+0x24a>
   1af28:	00081e63          	bnez	a6,1af44 <__adddf3+0x3fc>
   1af2c:	00351613          	sll	a2,a0,0x3
   1af30:	820d                	srl	a2,a2,0x3
   1af32:	01d71813          	sll	a6,a4,0x1d
   1af36:	00c86833          	or	a6,a6,a2
   1af3a:	830d                	srl	a4,a4,0x3
   1af3c:	01076733          	or	a4,a4,a6
   1af40:	14070163          	beqz	a4,1b082 <__adddf3+0x53a>
   1af44:	4e01                	li	t3,0
   1af46:	7ff00793          	li	a5,2047
   1af4a:	00080737          	lui	a4,0x80
   1af4e:	4801                	li	a6,0
   1af50:	bba1                	j	1aca8 <__adddf3+0x160>
   1af52:	00351613          	sll	a2,a0,0x3
   1af56:	820d                	srl	a2,a2,0x3
   1af58:	01d71813          	sll	a6,a4,0x1d
   1af5c:	7ff00693          	li	a3,2047
   1af60:	00c86833          	or	a6,a6,a2
   1af64:	830d                	srl	a4,a4,0x3
   1af66:	fcd78be3          	beq	a5,a3,1af3c <__adddf3+0x3f4>
   1af6a:	0732                	sll	a4,a4,0xc
   1af6c:	8331                	srl	a4,a4,0xc
   1af6e:	7ff7f793          	and	a5,a5,2047
   1af72:	8e22                	mv	t3,s0
   1af74:	bb15                	j	1aca8 <__adddf3+0x160>
   1af76:	00190693          	add	a3,s2,1
   1af7a:	7fe6f813          	and	a6,a3,2046
   1af7e:	10081863          	bnez	a6,1b08e <__adddf3+0x546>
   1af82:	00b766b3          	or	a3,a4,a1
   1af86:	20091463          	bnez	s2,1b18e <__adddf3+0x646>
   1af8a:	24068b63          	beqz	a3,1b1e0 <__adddf3+0x698>
   1af8e:	01e8e6b3          	or	a3,a7,t5
   1af92:	1a068d63          	beqz	a3,1b14c <__adddf3+0x604>
   1af96:	01e587b3          	add	a5,a1,t5
   1af9a:	00b7b5b3          	sltu	a1,a5,a1
   1af9e:	9746                	add	a4,a4,a7
   1afa0:	972e                	add	a4,a4,a1
   1afa2:	0037d813          	srl	a6,a5,0x3
   1afa6:	00871793          	sll	a5,a4,0x8
   1afaa:	8e22                	mv	t3,s0
   1afac:	2807db63          	bgez	a5,1b242 <__adddf3+0x6fa>
   1afb0:	ff8007b7          	lui	a5,0xff800
   1afb4:	17fd                	add	a5,a5,-1 # ff7fffff <__BSS_END__+0xff7e127b>
   1afb6:	8f7d                	and	a4,a4,a5
   1afb8:	01d71793          	sll	a5,a4,0x1d
   1afbc:	830d                	srl	a4,a4,0x3
   1afbe:	0107e833          	or	a6,a5,a6
   1afc2:	01d77733          	and	a4,a4,t4
   1afc6:	4785                	li	a5,1
   1afc8:	b1c5                	j	1aca8 <__adddf3+0x160>
   1afca:	41e58833          	sub	a6,a1,t5
   1afce:	0105b7b3          	sltu	a5,a1,a6
   1afd2:	411709b3          	sub	s3,a4,a7
   1afd6:	40f989b3          	sub	s3,s3,a5
   1afda:	00899793          	sll	a5,s3,0x8
   1afde:	84c2                	mv	s1,a6
   1afe0:	0c07cb63          	bltz	a5,1b0b6 <__adddf3+0x56e>
   1afe4:	01386833          	or	a6,a6,s3
   1afe8:	c20810e3          	bnez	a6,1ac08 <__adddf3+0xc0>
   1afec:	4e01                	li	t3,0
   1afee:	4781                	li	a5,0
   1aff0:	4701                	li	a4,0
   1aff2:	b95d                	j	1aca8 <__adddf3+0x160>
   1aff4:	7ff00513          	li	a0,2047
   1aff8:	14a30f63          	beq	t1,a0,1b156 <__adddf3+0x60e>
   1affc:	03800513          	li	a0,56
   1b000:	4605                	li	a2,1
   1b002:	d0f54ee3          	blt	a0,a5,1ad1e <__adddf3+0x1d6>
   1b006:	00800637          	lui	a2,0x800
   1b00a:	8f51                	or	a4,a4,a2
   1b00c:	b1e5                	j	1acf4 <__adddf3+0x1ac>
   1b00e:	ff8009b7          	lui	s3,0xff800
   1b012:	19fd                	add	s3,s3,-1 # ff7fffff <__BSS_END__+0xff7e127b>
   1b014:	40f90933          	sub	s2,s2,a5
   1b018:	013779b3          	and	s3,a4,s3
   1b01c:	b935                	j	1ac58 <__adddf3+0x110>
   1b01e:	fe078693          	add	a3,a5,-32
   1b022:	02000613          	li	a2,32
   1b026:	00d8d6b3          	srl	a3,a7,a3
   1b02a:	00c78a63          	beq	a5,a2,1b03e <__adddf3+0x4f6>
   1b02e:	04000613          	li	a2,64
   1b032:	40f607b3          	sub	a5,a2,a5
   1b036:	00f897b3          	sll	a5,a7,a5
   1b03a:	00ff6f33          	or	t5,t5,a5
   1b03e:	01e03633          	snez	a2,t5
   1b042:	8e55                	or	a2,a2,a3
   1b044:	b655                	j	1abe8 <__adddf3+0xa0>
   1b046:	ff8006b7          	lui	a3,0xff800
   1b04a:	16fd                	add	a3,a3,-1 # ff7fffff <__BSS_END__+0xff7e127b>
   1b04c:	40f907b3          	sub	a5,s2,a5
   1b050:	8f75                	and	a4,a4,a3
   1b052:	01d71813          	sll	a6,a4,0x1d
   1b056:	01386833          	or	a6,a6,s3
   1b05a:	830d                	srl	a4,a4,0x3
   1b05c:	b739                	j	1af6a <__adddf3+0x422>
   1b05e:	00b766b3          	or	a3,a4,a1
   1b062:	16068b63          	beqz	a3,1b1d8 <__adddf3+0x690>
   1b066:	fff78693          	add	a3,a5,-1
   1b06a:	c6c1                	beqz	a3,1b0f2 <__adddf3+0x5aa>
   1b06c:	7ff00513          	li	a0,2047
   1b070:	0ea78863          	beq	a5,a0,1b160 <__adddf3+0x618>
   1b074:	03800793          	li	a5,56
   1b078:	4985                	li	s3,1
   1b07a:	e8d7cfe3          	blt	a5,a3,1af18 <__adddf3+0x3d0>
   1b07e:	87b6                	mv	a5,a3
   1b080:	b5bd                	j	1aeee <__adddf3+0x3a6>
   1b082:	8e22                	mv	t3,s0
   1b084:	7ff00793          	li	a5,2047
   1b088:	4701                	li	a4,0
   1b08a:	4801                	li	a6,0
   1b08c:	b931                	j	1aca8 <__adddf3+0x160>
   1b08e:	7ff00793          	li	a5,2047
   1b092:	fef688e3          	beq	a3,a5,1b082 <__adddf3+0x53a>
   1b096:	9f2e                	add	t5,t5,a1
   1b098:	00bf35b3          	sltu	a1,t5,a1
   1b09c:	011707b3          	add	a5,a4,a7
   1b0a0:	97ae                	add	a5,a5,a1
   1b0a2:	01f79613          	sll	a2,a5,0x1f
   1b0a6:	001f5f13          	srl	t5,t5,0x1
   1b0aa:	01e664b3          	or	s1,a2,t5
   1b0ae:	0017d993          	srl	s3,a5,0x1
   1b0b2:	8936                	mv	s2,a3
   1b0b4:	b655                	j	1ac58 <__adddf3+0x110>
   1b0b6:	40bf0633          	sub	a2,t5,a1
   1b0ba:	40e887b3          	sub	a5,a7,a4
   1b0be:	00cf3733          	sltu	a4,t5,a2
   1b0c2:	84b2                	mv	s1,a2
   1b0c4:	40e789b3          	sub	s3,a5,a4
   1b0c8:	8436                	mv	s0,a3
   1b0ca:	be3d                	j	1ac08 <__adddf3+0xc0>
   1b0cc:	060e                	sll	a2,a2,0x3
   1b0ce:	820d                	srl	a2,a2,0x3
   1b0d0:	8436                	mv	s0,a3
   1b0d2:	8746                	mv	a4,a7
   1b0d4:	b551                	j	1af58 <__adddf3+0x410>
   1b0d6:	e40319e3          	bnez	t1,1af28 <__adddf3+0x3e0>
   1b0da:	14080e63          	beqz	a6,1b236 <__adddf3+0x6ee>
   1b0de:	0038d713          	srl	a4,a7,0x3
   1b0e2:	060e                	sll	a2,a2,0x3
   1b0e4:	08f6                	sll	a7,a7,0x1d
   1b0e6:	01176733          	or	a4,a4,a7
   1b0ea:	820d                	srl	a2,a2,0x3
   1b0ec:	8f51                	or	a4,a4,a2
   1b0ee:	8436                	mv	s0,a3
   1b0f0:	bd81                	j	1af40 <__adddf3+0x3f8>
   1b0f2:	9f2e                	add	t5,t5,a1
   1b0f4:	98ba                	add	a7,a7,a4
   1b0f6:	00bf35b3          	sltu	a1,t5,a1
   1b0fa:	00b889b3          	add	s3,a7,a1
   1b0fe:	00899793          	sll	a5,s3,0x8
   1b102:	84fa                	mv	s1,t5
   1b104:	0a07dc63          	bgez	a5,1b1bc <__adddf3+0x674>
   1b108:	4909                	li	s2,2
   1b10a:	b969                	j	1ada4 <__adddf3+0x25c>
   1b10c:	41e58f33          	sub	t5,a1,t5
   1b110:	411708b3          	sub	a7,a4,a7
   1b114:	01e5b5b3          	sltu	a1,a1,t5
   1b118:	84fa                	mv	s1,t5
   1b11a:	40b889b3          	sub	s3,a7,a1
   1b11e:	4905                	li	s2,1
   1b120:	bcd9                	j	1abf6 <__adddf3+0xae>
   1b122:	fe078693          	add	a3,a5,-32
   1b126:	02000613          	li	a2,32
   1b12a:	00d8d6b3          	srl	a3,a7,a3
   1b12e:	00c78a63          	beq	a5,a2,1b142 <__adddf3+0x5fa>
   1b132:	04000613          	li	a2,64
   1b136:	40f607b3          	sub	a5,a2,a5
   1b13a:	00f897b3          	sll	a5,a7,a5
   1b13e:	00ff6f33          	or	t5,t5,a5
   1b142:	01e039b3          	snez	s3,t5
   1b146:	00d9e9b3          	or	s3,s3,a3
   1b14a:	b93d                	j	1ad88 <__adddf3+0x240>
   1b14c:	00351613          	sll	a2,a0,0x3
   1b150:	00365993          	srl	s3,a2,0x3
   1b154:	bdfd                	j	1b052 <__adddf3+0x50a>
   1b156:	060e                	sll	a2,a2,0x3
   1b158:	820d                	srl	a2,a2,0x3
   1b15a:	8436                	mv	s0,a3
   1b15c:	8746                	mv	a4,a7
   1b15e:	bbd1                	j	1af32 <__adddf3+0x3ea>
   1b160:	060e                	sll	a2,a2,0x3
   1b162:	820d                	srl	a2,a2,0x3
   1b164:	8746                	mv	a4,a7
   1b166:	b3f1                	j	1af32 <__adddf3+0x3ea>
   1b168:	fe078513          	add	a0,a5,-32
   1b16c:	02000613          	li	a2,32
   1b170:	00a75533          	srl	a0,a4,a0
   1b174:	00c78963          	beq	a5,a2,1b186 <__adddf3+0x63e>
   1b178:	04000613          	li	a2,64
   1b17c:	40f607b3          	sub	a5,a2,a5
   1b180:	00f717b3          	sll	a5,a4,a5
   1b184:	8ddd                	or	a1,a1,a5
   1b186:	00b03633          	snez	a2,a1
   1b18a:	8e49                	or	a2,a2,a0
   1b18c:	be49                	j	1ad1e <__adddf3+0x1d6>
   1b18e:	dae9                	beqz	a3,1b160 <__adddf3+0x618>
   1b190:	01e8ef33          	or	t5,a7,t5
   1b194:	da0f18e3          	bnez	t5,1af44 <__adddf3+0x3fc>
   1b198:	bb51                	j	1af2c <__adddf3+0x3e4>
   1b19a:	e40809e3          	beqz	a6,1afec <__adddf3+0x4a4>
   1b19e:	00361813          	sll	a6,a2,0x3
   1b1a2:	01d89793          	sll	a5,a7,0x1d
   1b1a6:	00385813          	srl	a6,a6,0x3
   1b1aa:	0038d713          	srl	a4,a7,0x3
   1b1ae:	00f86833          	or	a6,a6,a5
   1b1b2:	01d77733          	and	a4,a4,t4
   1b1b6:	8e36                	mv	t3,a3
   1b1b8:	4781                	li	a5,0
   1b1ba:	b4fd                	j	1aca8 <__adddf3+0x160>
   1b1bc:	4785                	li	a5,1
   1b1be:	b9f5                	j	1aeba <__adddf3+0x372>
   1b1c0:	40bf05b3          	sub	a1,t5,a1
   1b1c4:	40e888b3          	sub	a7,a7,a4
   1b1c8:	00bf3733          	sltu	a4,t5,a1
   1b1cc:	84ae                	mv	s1,a1
   1b1ce:	40e889b3          	sub	s3,a7,a4
   1b1d2:	8436                	mv	s0,a3
   1b1d4:	4905                	li	s2,1
   1b1d6:	b405                	j	1abf6 <__adddf3+0xae>
   1b1d8:	060e                	sll	a2,a2,0x3
   1b1da:	820d                	srl	a2,a2,0x3
   1b1dc:	8746                	mv	a4,a7
   1b1de:	bbad                	j	1af58 <__adddf3+0x410>
   1b1e0:	060e                	sll	a2,a2,0x3
   1b1e2:	00365993          	srl	s3,a2,0x3
   1b1e6:	8746                	mv	a4,a7
   1b1e8:	b5ad                	j	1b052 <__adddf3+0x50a>
   1b1ea:	fe078693          	add	a3,a5,-32
   1b1ee:	02000613          	li	a2,32
   1b1f2:	00d756b3          	srl	a3,a4,a3
   1b1f6:	00c78963          	beq	a5,a2,1b208 <__adddf3+0x6c0>
   1b1fa:	04000613          	li	a2,64
   1b1fe:	40f607b3          	sub	a5,a2,a5
   1b202:	00f717b3          	sll	a5,a4,a5
   1b206:	8ddd                	or	a1,a1,a5
   1b208:	00b039b3          	snez	s3,a1
   1b20c:	00d9e9b3          	or	s3,s3,a3
   1b210:	b321                	j	1af18 <__adddf3+0x3d0>
   1b212:	0034d613          	srl	a2,s1,0x3
   1b216:	87ca                	mv	a5,s2
   1b218:	874e                	mv	a4,s3
   1b21a:	bb3d                	j	1af58 <__adddf3+0x410>
   1b21c:	02000693          	li	a3,32
   1b220:	8e9d                	sub	a3,a3,a5
   1b222:	4601                	li	a2,0
   1b224:	b40d                	j	1ac46 <__adddf3+0xfe>
   1b226:	00c9e833          	or	a6,s3,a2
   1b22a:	dc0801e3          	beqz	a6,1afec <__adddf3+0x4a4>
   1b22e:	0039d993          	srl	s3,s3,0x3
   1b232:	8732                	mv	a4,a2
   1b234:	bd39                	j	1b052 <__adddf3+0x50a>
   1b236:	4e01                	li	t3,0
   1b238:	7ff00793          	li	a5,2047
   1b23c:	00080737          	lui	a4,0x80
   1b240:	b4a5                	j	1aca8 <__adddf3+0x160>
   1b242:	01d71793          	sll	a5,a4,0x1d
   1b246:	830d                	srl	a4,a4,0x3
   1b248:	0107e833          	or	a6,a5,a6
   1b24c:	01d77733          	and	a4,a4,t4
   1b250:	4781                	li	a5,0
   1b252:	bc99                	j	1aca8 <__adddf3+0x160>
   1b254:	01d71813          	sll	a6,a4,0x1d
   1b258:	818d                	srl	a1,a1,0x3
   1b25a:	00b86833          	or	a6,a6,a1
   1b25e:	830d                	srl	a4,a4,0x3
   1b260:	8436                	mv	s0,a3
   1b262:	b321                	j	1af6a <__adddf3+0x422>

0001b264 <__divdf3>:
   1b264:	7179                	add	sp,sp,-48
   1b266:	ce4e                	sw	s3,28(sp)
   1b268:	0145d993          	srl	s3,a1,0x14
   1b26c:	d422                	sw	s0,40(sp)
   1b26e:	d226                	sw	s1,36(sp)
   1b270:	d04a                	sw	s2,32(sp)
   1b272:	cc52                	sw	s4,24(sp)
   1b274:	c65e                	sw	s7,12(sp)
   1b276:	00c59493          	sll	s1,a1,0xc
   1b27a:	d606                	sw	ra,44(sp)
   1b27c:	ca56                	sw	s5,20(sp)
   1b27e:	c85a                	sw	s6,16(sp)
   1b280:	c462                	sw	s8,8(sp)
   1b282:	7ff9f993          	and	s3,s3,2047
   1b286:	842a                	mv	s0,a0
   1b288:	8bb2                	mv	s7,a2
   1b28a:	8936                	mv	s2,a3
   1b28c:	80b1                	srl	s1,s1,0xc
   1b28e:	01f5da13          	srl	s4,a1,0x1f
   1b292:	12098363          	beqz	s3,1b3b8 <__divdf3+0x154>
   1b296:	7ff00793          	li	a5,2047
   1b29a:	06f98a63          	beq	s3,a5,1b30e <__divdf3+0xaa>
   1b29e:	048e                	sll	s1,s1,0x3
   1b2a0:	01d55793          	srl	a5,a0,0x1d
   1b2a4:	8fc5                	or	a5,a5,s1
   1b2a6:	00800737          	lui	a4,0x800
   1b2aa:	00e7eab3          	or	s5,a5,a4
   1b2ae:	00351b13          	sll	s6,a0,0x3
   1b2b2:	c0198993          	add	s3,s3,-1023
   1b2b6:	4481                	li	s1,0
   1b2b8:	4c01                	li	s8,0
   1b2ba:	01495793          	srl	a5,s2,0x14
   1b2be:	00c91413          	sll	s0,s2,0xc
   1b2c2:	7ff7f793          	and	a5,a5,2047
   1b2c6:	8031                	srl	s0,s0,0xc
   1b2c8:	01f95913          	srl	s2,s2,0x1f
   1b2cc:	c7a5                	beqz	a5,1b334 <__divdf3+0xd0>
   1b2ce:	7ff00713          	li	a4,2047
   1b2d2:	12e78263          	beq	a5,a4,1b3f6 <__divdf3+0x192>
   1b2d6:	040e                	sll	s0,s0,0x3
   1b2d8:	01dbd713          	srl	a4,s7,0x1d
   1b2dc:	8f41                	or	a4,a4,s0
   1b2de:	c0178793          	add	a5,a5,-1023
   1b2e2:	00800437          	lui	s0,0x800
   1b2e6:	8c59                	or	s0,s0,a4
   1b2e8:	003b9893          	sll	a7,s7,0x3
   1b2ec:	40f989b3          	sub	s3,s3,a5
   1b2f0:	4601                	li	a2,0
   1b2f2:	473d                	li	a4,15
   1b2f4:	012a46b3          	xor	a3,s4,s2
   1b2f8:	1a976163          	bltu	a4,s1,1b49a <__divdf3+0x236>
   1b2fc:	00002717          	auipc	a4,0x2
   1b300:	56070713          	add	a4,a4,1376 # 1d85c <_ctype_+0x104>
   1b304:	048a                	sll	s1,s1,0x2
   1b306:	94ba                	add	s1,s1,a4
   1b308:	409c                	lw	a5,0(s1)
   1b30a:	97ba                	add	a5,a5,a4
   1b30c:	8782                	jr	a5
   1b30e:	00a4eab3          	or	s5,s1,a0
   1b312:	140a9e63          	bnez	s5,1b46e <__divdf3+0x20a>
   1b316:	01495793          	srl	a5,s2,0x14
   1b31a:	00c91413          	sll	s0,s2,0xc
   1b31e:	7ff7f793          	and	a5,a5,2047
   1b322:	4b01                	li	s6,0
   1b324:	44a1                	li	s1,8
   1b326:	7ff00993          	li	s3,2047
   1b32a:	4c09                	li	s8,2
   1b32c:	8031                	srl	s0,s0,0xc
   1b32e:	01f95913          	srl	s2,s2,0x1f
   1b332:	ffd1                	bnez	a5,1b2ce <__divdf3+0x6a>
   1b334:	017468b3          	or	a7,s0,s7
   1b338:	14088263          	beqz	a7,1b47c <__divdf3+0x218>
   1b33c:	38040e63          	beqz	s0,1b6d8 <__divdf3+0x474>
   1b340:	8522                	mv	a0,s0
   1b342:	eebf50ef          	jal	1122c <__clzsi2>
   1b346:	87aa                	mv	a5,a0
   1b348:	ff550693          	add	a3,a0,-11
   1b34c:	4775                	li	a4,29
   1b34e:	ff878893          	add	a7,a5,-8
   1b352:	8f15                	sub	a4,a4,a3
   1b354:	01141433          	sll	s0,s0,a7
   1b358:	00ebd733          	srl	a4,s7,a4
   1b35c:	8c59                	or	s0,s0,a4
   1b35e:	011b98b3          	sll	a7,s7,a7
   1b362:	97ce                	add	a5,a5,s3
   1b364:	3f378993          	add	s3,a5,1011
   1b368:	4601                	li	a2,0
   1b36a:	b761                	j	1b2f2 <__divdf3+0x8e>
   1b36c:	8f1d                	sub	a4,a4,a5
   1b36e:	03800613          	li	a2,56
   1b372:	3ce65663          	bge	a2,a4,1b73e <__divdf3+0x4da>
   1b376:	4781                	li	a5,0
   1b378:	4601                	li	a2,0
   1b37a:	4701                	li	a4,0
   1b37c:	50b2                	lw	ra,44(sp)
   1b37e:	5422                	lw	s0,40(sp)
   1b380:	07d2                	sll	a5,a5,0x14
   1b382:	8fd1                	or	a5,a5,a2
   1b384:	06fe                	sll	a3,a3,0x1f
   1b386:	8fd5                	or	a5,a5,a3
   1b388:	5492                	lw	s1,36(sp)
   1b38a:	5902                	lw	s2,32(sp)
   1b38c:	49f2                	lw	s3,28(sp)
   1b38e:	4a62                	lw	s4,24(sp)
   1b390:	4ad2                	lw	s5,20(sp)
   1b392:	4b42                	lw	s6,16(sp)
   1b394:	4bb2                	lw	s7,12(sp)
   1b396:	4c22                	lw	s8,8(sp)
   1b398:	853a                	mv	a0,a4
   1b39a:	85be                	mv	a1,a5
   1b39c:	6145                	add	sp,sp,48
   1b39e:	8082                	ret
   1b3a0:	7ff00793          	li	a5,2047
   1b3a4:	4601                	li	a2,0
   1b3a6:	4701                	li	a4,0
   1b3a8:	bfd1                	j	1b37c <__divdf3+0x118>
   1b3aa:	4681                	li	a3,0
   1b3ac:	7ff00793          	li	a5,2047
   1b3b0:	00080637          	lui	a2,0x80
   1b3b4:	4701                	li	a4,0
   1b3b6:	b7d9                	j	1b37c <__divdf3+0x118>
   1b3b8:	00a4eab3          	or	s5,s1,a0
   1b3bc:	0c0a8a63          	beqz	s5,1b490 <__divdf3+0x22c>
   1b3c0:	32048b63          	beqz	s1,1b6f6 <__divdf3+0x492>
   1b3c4:	8526                	mv	a0,s1
   1b3c6:	e67f50ef          	jal	1122c <__clzsi2>
   1b3ca:	872a                	mv	a4,a0
   1b3cc:	ff550693          	add	a3,a0,-11
   1b3d0:	47f5                	li	a5,29
   1b3d2:	ff870b13          	add	s6,a4,-8
   1b3d6:	8f95                	sub	a5,a5,a3
   1b3d8:	016494b3          	sll	s1,s1,s6
   1b3dc:	00f457b3          	srl	a5,s0,a5
   1b3e0:	0097eab3          	or	s5,a5,s1
   1b3e4:	01641b33          	sll	s6,s0,s6
   1b3e8:	c0d00993          	li	s3,-1011
   1b3ec:	40e989b3          	sub	s3,s3,a4
   1b3f0:	4481                	li	s1,0
   1b3f2:	4c01                	li	s8,0
   1b3f4:	b5d9                	j	1b2ba <__divdf3+0x56>
   1b3f6:	017468b3          	or	a7,s0,s7
   1b3fa:	80198993          	add	s3,s3,-2047
   1b3fe:	08089463          	bnez	a7,1b486 <__divdf3+0x222>
   1b402:	0024e493          	or	s1,s1,2
   1b406:	4401                	li	s0,0
   1b408:	4609                	li	a2,2
   1b40a:	b5e5                	j	1b2f2 <__divdf3+0x8e>
   1b40c:	8952                	mv	s2,s4
   1b40e:	8456                	mv	s0,s5
   1b410:	88da                	mv	a7,s6
   1b412:	4789                	li	a5,2
   1b414:	3efc0163          	beq	s8,a5,1b7f6 <__divdf3+0x592>
   1b418:	478d                	li	a5,3
   1b41a:	f8fc08e3          	beq	s8,a5,1b3aa <__divdf3+0x146>
   1b41e:	4785                	li	a5,1
   1b420:	86ca                	mv	a3,s2
   1b422:	f4fc0ae3          	beq	s8,a5,1b376 <__divdf3+0x112>
   1b426:	3ff98793          	add	a5,s3,1023
   1b42a:	20f05e63          	blez	a5,1b646 <__divdf3+0x3e2>
   1b42e:	0078f713          	and	a4,a7,7
   1b432:	3a071863          	bnez	a4,1b7e2 <__divdf3+0x57e>
   1b436:	00741713          	sll	a4,s0,0x7
   1b43a:	00075863          	bgez	a4,1b44a <__divdf3+0x1e6>
   1b43e:	ff0007b7          	lui	a5,0xff000
   1b442:	17fd                	add	a5,a5,-1 # feffffff <__BSS_END__+0xfefe127b>
   1b444:	8c7d                	and	s0,s0,a5
   1b446:	40098793          	add	a5,s3,1024
   1b44a:	7fe00713          	li	a4,2046
   1b44e:	f4f749e3          	blt	a4,a5,1b3a0 <__divdf3+0x13c>
   1b452:	0038d893          	srl	a7,a7,0x3
   1b456:	01d41713          	sll	a4,s0,0x1d
   1b45a:	00941613          	sll	a2,s0,0x9
   1b45e:	01176733          	or	a4,a4,a7
   1b462:	8231                	srl	a2,a2,0xc
   1b464:	7ff7f793          	and	a5,a5,2047
   1b468:	bf11                	j	1b37c <__divdf3+0x118>
   1b46a:	8c32                	mv	s8,a2
   1b46c:	b75d                	j	1b412 <__divdf3+0x1ae>
   1b46e:	8aa6                	mv	s5,s1
   1b470:	8b2a                	mv	s6,a0
   1b472:	44b1                	li	s1,12
   1b474:	7ff00993          	li	s3,2047
   1b478:	4c0d                	li	s8,3
   1b47a:	b581                	j	1b2ba <__divdf3+0x56>
   1b47c:	0014e493          	or	s1,s1,1
   1b480:	4401                	li	s0,0
   1b482:	4605                	li	a2,1
   1b484:	b5bd                	j	1b2f2 <__divdf3+0x8e>
   1b486:	0034e493          	or	s1,s1,3
   1b48a:	88de                	mv	a7,s7
   1b48c:	460d                	li	a2,3
   1b48e:	b595                	j	1b2f2 <__divdf3+0x8e>
   1b490:	4b01                	li	s6,0
   1b492:	4491                	li	s1,4
   1b494:	4981                	li	s3,0
   1b496:	4c05                	li	s8,1
   1b498:	b50d                	j	1b2ba <__divdf3+0x56>
   1b49a:	23546563          	bltu	s0,s5,1b6c4 <__divdf3+0x460>
   1b49e:	228a8163          	beq	s5,s0,1b6c0 <__divdf3+0x45c>
   1b4a2:	835a                	mv	t1,s6
   1b4a4:	19fd                	add	s3,s3,-1
   1b4a6:	87d6                	mv	a5,s5
   1b4a8:	4b01                	li	s6,0
   1b4aa:	00841713          	sll	a4,s0,0x8
   1b4ae:	01075513          	srl	a0,a4,0x10
   1b4b2:	02a7d433          	divu	s0,a5,a0
   1b4b6:	0188d613          	srl	a2,a7,0x18
   1b4ba:	8e59                	or	a2,a2,a4
   1b4bc:	01061813          	sll	a6,a2,0x10
   1b4c0:	01085813          	srl	a6,a6,0x10
   1b4c4:	00889593          	sll	a1,a7,0x8
   1b4c8:	01035713          	srl	a4,t1,0x10
   1b4cc:	02a7f7b3          	remu	a5,a5,a0
   1b4d0:	028808b3          	mul	a7,a6,s0
   1b4d4:	07c2                	sll	a5,a5,0x10
   1b4d6:	8fd9                	or	a5,a5,a4
   1b4d8:	0117f863          	bgeu	a5,a7,1b4e8 <__divdf3+0x284>
   1b4dc:	97b2                	add	a5,a5,a2
   1b4de:	fff40713          	add	a4,s0,-1 # 7fffff <__BSS_END__+0x7e127b>
   1b4e2:	24c7f963          	bgeu	a5,a2,1b734 <__divdf3+0x4d0>
   1b4e6:	843a                	mv	s0,a4
   1b4e8:	411787b3          	sub	a5,a5,a7
   1b4ec:	02a7d8b3          	divu	a7,a5,a0
   1b4f0:	01031713          	sll	a4,t1,0x10
   1b4f4:	8341                	srl	a4,a4,0x10
   1b4f6:	02a7f7b3          	remu	a5,a5,a0
   1b4fa:	03180fb3          	mul	t6,a6,a7
   1b4fe:	07c2                	sll	a5,a5,0x10
   1b500:	8f5d                	or	a4,a4,a5
   1b502:	01f77863          	bgeu	a4,t6,1b512 <__divdf3+0x2ae>
   1b506:	9732                	add	a4,a4,a2
   1b508:	fff88793          	add	a5,a7,-1
   1b50c:	20c77f63          	bgeu	a4,a2,1b72a <__divdf3+0x4c6>
   1b510:	88be                	mv	a7,a5
   1b512:	0442                	sll	s0,s0,0x10
   1b514:	62c1                	lui	t0,0x10
   1b516:	01146433          	or	s0,s0,a7
   1b51a:	fff28313          	add	t1,t0,-1 # ffff <exit-0x95>
   1b51e:	006478b3          	and	a7,s0,t1
   1b522:	01045e93          	srl	t4,s0,0x10
   1b526:	0105de13          	srl	t3,a1,0x10
   1b52a:	0065f333          	and	t1,a1,t1
   1b52e:	03130f33          	mul	t5,t1,a7
   1b532:	41f70733          	sub	a4,a4,t6
   1b536:	031e08b3          	mul	a7,t3,a7
   1b53a:	010f5793          	srl	a5,t5,0x10
   1b53e:	026e8fb3          	mul	t6,t4,t1
   1b542:	98fe                	add	a7,a7,t6
   1b544:	97c6                	add	a5,a5,a7
   1b546:	03ce8eb3          	mul	t4,t4,t3
   1b54a:	01f7f363          	bgeu	a5,t6,1b550 <__divdf3+0x2ec>
   1b54e:	9e96                	add	t4,t4,t0
   1b550:	6fc1                	lui	t6,0x10
   1b552:	1ffd                	add	t6,t6,-1 # ffff <exit-0x95>
   1b554:	0107d893          	srl	a7,a5,0x10
   1b558:	01f7f7b3          	and	a5,a5,t6
   1b55c:	07c2                	sll	a5,a5,0x10
   1b55e:	01ff7f33          	and	t5,t5,t6
   1b562:	98f6                	add	a7,a7,t4
   1b564:	97fa                	add	a5,a5,t5
   1b566:	13176b63          	bltu	a4,a7,1b69c <__divdf3+0x438>
   1b56a:	13170763          	beq	a4,a7,1b698 <__divdf3+0x434>
   1b56e:	40fb07b3          	sub	a5,s6,a5
   1b572:	41170733          	sub	a4,a4,a7
   1b576:	00fb3b33          	sltu	s6,s6,a5
   1b57a:	41670733          	sub	a4,a4,s6
   1b57e:	24e60463          	beq	a2,a4,1b7c6 <__divdf3+0x562>
   1b582:	02a758b3          	divu	a7,a4,a0
   1b586:	0107de93          	srl	t4,a5,0x10
   1b58a:	02a77733          	remu	a4,a4,a0
   1b58e:	03180f33          	mul	t5,a6,a7
   1b592:	0742                	sll	a4,a4,0x10
   1b594:	00eee733          	or	a4,t4,a4
   1b598:	01e77b63          	bgeu	a4,t5,1b5ae <__divdf3+0x34a>
   1b59c:	9732                	add	a4,a4,a2
   1b59e:	fff88e93          	add	t4,a7,-1
   1b5a2:	24c76863          	bltu	a4,a2,1b7f2 <__divdf3+0x58e>
   1b5a6:	25e77663          	bgeu	a4,t5,1b7f2 <__divdf3+0x58e>
   1b5aa:	18f9                	add	a7,a7,-2
   1b5ac:	9732                	add	a4,a4,a2
   1b5ae:	41e70733          	sub	a4,a4,t5
   1b5b2:	02a75eb3          	divu	t4,a4,a0
   1b5b6:	07c2                	sll	a5,a5,0x10
   1b5b8:	83c1                	srl	a5,a5,0x10
   1b5ba:	02a77733          	remu	a4,a4,a0
   1b5be:	03d80833          	mul	a6,a6,t4
   1b5c2:	0742                	sll	a4,a4,0x10
   1b5c4:	8fd9                	or	a5,a5,a4
   1b5c6:	0107fb63          	bgeu	a5,a6,1b5dc <__divdf3+0x378>
   1b5ca:	97b2                	add	a5,a5,a2
   1b5cc:	fffe8713          	add	a4,t4,-1
   1b5d0:	20c7ef63          	bltu	a5,a2,1b7ee <__divdf3+0x58a>
   1b5d4:	2107fd63          	bgeu	a5,a6,1b7ee <__divdf3+0x58a>
   1b5d8:	1ef9                	add	t4,t4,-2
   1b5da:	97b2                	add	a5,a5,a2
   1b5dc:	08c2                	sll	a7,a7,0x10
   1b5de:	01d8e8b3          	or	a7,a7,t4
   1b5e2:	01089513          	sll	a0,a7,0x10
   1b5e6:	0108df13          	srl	t5,a7,0x10
   1b5ea:	8141                	srl	a0,a0,0x10
   1b5ec:	02650eb3          	mul	t4,a0,t1
   1b5f0:	410787b3          	sub	a5,a5,a6
   1b5f4:	02ae0533          	mul	a0,t3,a0
   1b5f8:	010ed713          	srl	a4,t4,0x10
   1b5fc:	026f0333          	mul	t1,t5,t1
   1b600:	951a                	add	a0,a0,t1
   1b602:	972a                	add	a4,a4,a0
   1b604:	03ee0e33          	mul	t3,t3,t5
   1b608:	00677463          	bgeu	a4,t1,1b610 <__divdf3+0x3ac>
   1b60c:	6541                	lui	a0,0x10
   1b60e:	9e2a                	add	t3,t3,a0
   1b610:	6841                	lui	a6,0x10
   1b612:	187d                	add	a6,a6,-1 # ffff <exit-0x95>
   1b614:	01075513          	srl	a0,a4,0x10
   1b618:	01077733          	and	a4,a4,a6
   1b61c:	0742                	sll	a4,a4,0x10
   1b61e:	010efeb3          	and	t4,t4,a6
   1b622:	9572                	add	a0,a0,t3
   1b624:	9776                	add	a4,a4,t4
   1b626:	0ea7f763          	bgeu	a5,a0,1b714 <__divdf3+0x4b0>
   1b62a:	97b2                	add	a5,a5,a2
   1b62c:	fff88313          	add	t1,a7,-1
   1b630:	883e                	mv	a6,a5
   1b632:	16c7e863          	bltu	a5,a2,1b7a2 <__divdf3+0x53e>
   1b636:	1ca7e663          	bltu	a5,a0,1b802 <__divdf3+0x59e>
   1b63a:	1ca78f63          	beq	a5,a0,1b818 <__divdf3+0x5b4>
   1b63e:	889a                	mv	a7,t1
   1b640:	0018e893          	or	a7,a7,1
   1b644:	b3cd                	j	1b426 <__divdf3+0x1c2>
   1b646:	4705                	li	a4,1
   1b648:	d20792e3          	bnez	a5,1b36c <__divdf3+0x108>
   1b64c:	41e98993          	add	s3,s3,1054
   1b650:	013897b3          	sll	a5,a7,s3
   1b654:	00f037b3          	snez	a5,a5
   1b658:	013419b3          	sll	s3,s0,s3
   1b65c:	0137e7b3          	or	a5,a5,s3
   1b660:	00e8d8b3          	srl	a7,a7,a4
   1b664:	00f8e8b3          	or	a7,a7,a5
   1b668:	0078f793          	and	a5,a7,7
   1b66c:	00e45433          	srl	s0,s0,a4
   1b670:	cf81                	beqz	a5,1b688 <__divdf3+0x424>
   1b672:	00f8f793          	and	a5,a7,15
   1b676:	4711                	li	a4,4
   1b678:	00e78863          	beq	a5,a4,1b688 <__divdf3+0x424>
   1b67c:	00488793          	add	a5,a7,4
   1b680:	0117b8b3          	sltu	a7,a5,a7
   1b684:	9446                	add	s0,s0,a7
   1b686:	88be                	mv	a7,a5
   1b688:	00841593          	sll	a1,s0,0x8
   1b68c:	4785                	li	a5,1
   1b68e:	4601                	li	a2,0
   1b690:	4701                	li	a4,0
   1b692:	ce05c5e3          	bltz	a1,1b37c <__divdf3+0x118>
   1b696:	a8dd                	j	1b78c <__divdf3+0x528>
   1b698:	ecfb7be3          	bgeu	s6,a5,1b56e <__divdf3+0x30a>
   1b69c:	00bb0eb3          	add	t4,s6,a1
   1b6a0:	016ebf33          	sltu	t5,t4,s6
   1b6a4:	00cf0fb3          	add	t6,t5,a2
   1b6a8:	977e                	add	a4,a4,t6
   1b6aa:	8b76                	mv	s6,t4
   1b6ac:	fff40f93          	add	t6,s0,-1
   1b6b0:	06e67763          	bgeu	a2,a4,1b71e <__divdf3+0x4ba>
   1b6b4:	11176163          	bltu	a4,a7,1b7b6 <__divdf3+0x552>
   1b6b8:	0ee88d63          	beq	a7,a4,1b7b2 <__divdf3+0x54e>
   1b6bc:	847e                	mv	s0,t6
   1b6be:	bd45                	j	1b56e <__divdf3+0x30a>
   1b6c0:	df1b61e3          	bltu	s6,a7,1b4a2 <__divdf3+0x23e>
   1b6c4:	001b5713          	srl	a4,s6,0x1
   1b6c8:	01fa9313          	sll	t1,s5,0x1f
   1b6cc:	001ad793          	srl	a5,s5,0x1
   1b6d0:	00e36333          	or	t1,t1,a4
   1b6d4:	0b7e                	sll	s6,s6,0x1f
   1b6d6:	bbd1                	j	1b4aa <__divdf3+0x246>
   1b6d8:	855e                	mv	a0,s7
   1b6da:	b53f50ef          	jal	1122c <__clzsi2>
   1b6de:	01550693          	add	a3,a0,21 # 10015 <exit-0x7f>
   1b6e2:	4771                	li	a4,28
   1b6e4:	02050793          	add	a5,a0,32
   1b6e8:	c6d752e3          	bge	a4,a3,1b34c <__divdf3+0xe8>
   1b6ec:	1561                	add	a0,a0,-8
   1b6ee:	4881                	li	a7,0
   1b6f0:	00ab9433          	sll	s0,s7,a0
   1b6f4:	b1bd                	j	1b362 <__divdf3+0xfe>
   1b6f6:	b37f50ef          	jal	1122c <__clzsi2>
   1b6fa:	01550693          	add	a3,a0,21
   1b6fe:	47f1                	li	a5,28
   1b700:	02050713          	add	a4,a0,32
   1b704:	ccd7d6e3          	bge	a5,a3,1b3d0 <__divdf3+0x16c>
   1b708:	ff850793          	add	a5,a0,-8
   1b70c:	00f41ab3          	sll	s5,s0,a5
   1b710:	4b01                	li	s6,0
   1b712:	b9d9                	j	1b3e8 <__divdf3+0x184>
   1b714:	f2a796e3          	bne	a5,a0,1b640 <__divdf3+0x3dc>
   1b718:	d00707e3          	beqz	a4,1b426 <__divdf3+0x1c2>
   1b71c:	b739                	j	1b62a <__divdf3+0x3c6>
   1b71e:	f8e61fe3          	bne	a2,a4,1b6bc <__divdf3+0x458>
   1b722:	f80f09e3          	beqz	t5,1b6b4 <__divdf3+0x450>
   1b726:	847e                	mv	s0,t6
   1b728:	b599                	j	1b56e <__divdf3+0x30a>
   1b72a:	dff773e3          	bgeu	a4,t6,1b510 <__divdf3+0x2ac>
   1b72e:	18f9                	add	a7,a7,-2
   1b730:	9732                	add	a4,a4,a2
   1b732:	b3c5                	j	1b512 <__divdf3+0x2ae>
   1b734:	db17f9e3          	bgeu	a5,a7,1b4e6 <__divdf3+0x282>
   1b738:	1479                	add	s0,s0,-2
   1b73a:	97b2                	add	a5,a5,a2
   1b73c:	b375                	j	1b4e8 <__divdf3+0x284>
   1b73e:	467d                	li	a2,31
   1b740:	f0e656e3          	bge	a2,a4,1b64c <__divdf3+0x3e8>
   1b744:	5605                	li	a2,-31
   1b746:	40f607b3          	sub	a5,a2,a5
   1b74a:	02000613          	li	a2,32
   1b74e:	00f457b3          	srl	a5,s0,a5
   1b752:	00c70863          	beq	a4,a2,1b762 <__divdf3+0x4fe>
   1b756:	43e98993          	add	s3,s3,1086
   1b75a:	013419b3          	sll	s3,s0,s3
   1b75e:	0138e8b3          	or	a7,a7,s3
   1b762:	011038b3          	snez	a7,a7
   1b766:	00f8e8b3          	or	a7,a7,a5
   1b76a:	0078f713          	and	a4,a7,7
   1b76e:	4601                	li	a2,0
   1b770:	c31d                	beqz	a4,1b796 <__divdf3+0x532>
   1b772:	00f8f793          	and	a5,a7,15
   1b776:	4711                	li	a4,4
   1b778:	4401                	li	s0,0
   1b77a:	00e78963          	beq	a5,a4,1b78c <__divdf3+0x528>
   1b77e:	00488793          	add	a5,a7,4
   1b782:	0117b8b3          	sltu	a7,a5,a7
   1b786:	01103433          	snez	s0,a7
   1b78a:	88be                	mv	a7,a5
   1b78c:	00941613          	sll	a2,s0,0x9
   1b790:	01d41713          	sll	a4,s0,0x1d
   1b794:	8231                	srl	a2,a2,0xc
   1b796:	0038d893          	srl	a7,a7,0x3
   1b79a:	00e8e733          	or	a4,a7,a4
   1b79e:	4781                	li	a5,0
   1b7a0:	bef1                	j	1b37c <__divdf3+0x118>
   1b7a2:	889a                	mv	a7,t1
   1b7a4:	e8a81ee3          	bne	a6,a0,1b640 <__divdf3+0x3dc>
   1b7a8:	c6b70fe3          	beq	a4,a1,1b426 <__divdf3+0x1c2>
   1b7ac:	0018e893          	or	a7,a7,1
   1b7b0:	b99d                	j	1b426 <__divdf3+0x1c2>
   1b7b2:	f0fef5e3          	bgeu	t4,a5,1b6bc <__divdf3+0x458>
   1b7b6:	9eae                	add	t4,t4,a1
   1b7b8:	00bebf33          	sltu	t5,t4,a1
   1b7bc:	9f32                	add	t5,t5,a2
   1b7be:	1479                	add	s0,s0,-2
   1b7c0:	8b76                	mv	s6,t4
   1b7c2:	977a                	add	a4,a4,t5
   1b7c4:	b36d                	j	1b56e <__divdf3+0x30a>
   1b7c6:	c0200713          	li	a4,-1022
   1b7ca:	3ff98793          	add	a5,s3,1023
   1b7ce:	58fd                	li	a7,-1
   1b7d0:	e6e9cbe3          	blt	s3,a4,1b646 <__divdf3+0x3e2>
   1b7d4:	00488713          	add	a4,a7,4
   1b7d8:	011738b3          	sltu	a7,a4,a7
   1b7dc:	9446                	add	s0,s0,a7
   1b7de:	88ba                	mv	a7,a4
   1b7e0:	b999                	j	1b436 <__divdf3+0x1d2>
   1b7e2:	00f8f713          	and	a4,a7,15
   1b7e6:	4611                	li	a2,4
   1b7e8:	c4c707e3          	beq	a4,a2,1b436 <__divdf3+0x1d2>
   1b7ec:	b7e5                	j	1b7d4 <__divdf3+0x570>
   1b7ee:	8eba                	mv	t4,a4
   1b7f0:	b3f5                	j	1b5dc <__divdf3+0x378>
   1b7f2:	88f6                	mv	a7,t4
   1b7f4:	bb6d                	j	1b5ae <__divdf3+0x34a>
   1b7f6:	86ca                	mv	a3,s2
   1b7f8:	7ff00793          	li	a5,2047
   1b7fc:	4601                	li	a2,0
   1b7fe:	4701                	li	a4,0
   1b800:	beb5                	j	1b37c <__divdf3+0x118>
   1b802:	00159313          	sll	t1,a1,0x1
   1b806:	00b33833          	sltu	a6,t1,a1
   1b80a:	9832                	add	a6,a6,a2
   1b80c:	983e                	add	a6,a6,a5
   1b80e:	18f9                	add	a7,a7,-2
   1b810:	859a                	mv	a1,t1
   1b812:	f8a80be3          	beq	a6,a0,1b7a8 <__divdf3+0x544>
   1b816:	b52d                	j	1b640 <__divdf3+0x3dc>
   1b818:	fee5e5e3          	bltu	a1,a4,1b802 <__divdf3+0x59e>
   1b81c:	889a                	mv	a7,t1
   1b81e:	f8b717e3          	bne	a4,a1,1b7ac <__divdf3+0x548>
   1b822:	b111                	j	1b426 <__divdf3+0x1c2>

0001b824 <__eqdf2>:
   1b824:	0145d713          	srl	a4,a1,0x14
   1b828:	001007b7          	lui	a5,0x100
   1b82c:	17fd                	add	a5,a5,-1 # fffff <__BSS_END__+0xe127b>
   1b82e:	0146d813          	srl	a6,a3,0x14
   1b832:	7ff77713          	and	a4,a4,2047
   1b836:	7ff00313          	li	t1,2047
   1b83a:	00b7fe33          	and	t3,a5,a1
   1b83e:	88aa                	mv	a7,a0
   1b840:	8ff5                	and	a5,a5,a3
   1b842:	81fd                	srl	a1,a1,0x1f
   1b844:	7ff87813          	and	a6,a6,2047
   1b848:	82fd                	srl	a3,a3,0x1f
   1b84a:	4505                	li	a0,1
   1b84c:	00670a63          	beq	a4,t1,1b860 <__eqdf2+0x3c>
   1b850:	00680763          	beq	a6,t1,1b85e <__eqdf2+0x3a>
   1b854:	01071463          	bne	a4,a6,1b85c <__eqdf2+0x38>
   1b858:	02fe0063          	beq	t3,a5,1b878 <__eqdf2+0x54>
   1b85c:	8082                	ret
   1b85e:	8082                	ret
   1b860:	fee81ee3          	bne	a6,a4,1b85c <__eqdf2+0x38>
   1b864:	00fe67b3          	or	a5,t3,a5
   1b868:	8fd1                	or	a5,a5,a2
   1b86a:	0117e7b3          	or	a5,a5,a7
   1b86e:	f7fd                	bnez	a5,1b85c <__eqdf2+0x38>
   1b870:	8d95                	sub	a1,a1,a3
   1b872:	00b03533          	snez	a0,a1
   1b876:	8082                	ret
   1b878:	fec892e3          	bne	a7,a2,1b85c <__eqdf2+0x38>
   1b87c:	00d58863          	beq	a1,a3,1b88c <__eqdf2+0x68>
   1b880:	ff71                	bnez	a4,1b85c <__eqdf2+0x38>
   1b882:	011e6e33          	or	t3,t3,a7
   1b886:	01c03533          	snez	a0,t3
   1b88a:	8082                	ret
   1b88c:	4501                	li	a0,0
   1b88e:	8082                	ret

0001b890 <__gedf2>:
   1b890:	0145d893          	srl	a7,a1,0x14
   1b894:	001007b7          	lui	a5,0x100
   1b898:	17fd                	add	a5,a5,-1 # fffff <__BSS_END__+0xe127b>
   1b89a:	0146d713          	srl	a4,a3,0x14
   1b89e:	7ff8f893          	and	a7,a7,2047
   1b8a2:	7ff00e13          	li	t3,2047
   1b8a6:	00b7f333          	and	t1,a5,a1
   1b8aa:	882a                	mv	a6,a0
   1b8ac:	8eaa                	mv	t4,a0
   1b8ae:	8ff5                	and	a5,a5,a3
   1b8b0:	81fd                	srl	a1,a1,0x1f
   1b8b2:	8f32                	mv	t5,a2
   1b8b4:	7ff77513          	and	a0,a4,2047
   1b8b8:	82fd                	srl	a3,a3,0x1f
   1b8ba:	03c88d63          	beq	a7,t3,1b8f4 <__gedf2+0x64>
   1b8be:	01c50e63          	beq	a0,t3,1b8da <__gedf2+0x4a>
   1b8c2:	04089a63          	bnez	a7,1b916 <__gedf2+0x86>
   1b8c6:	01036833          	or	a6,t1,a6
   1b8ca:	e129                	bnez	a0,1b90c <__gedf2+0x7c>
   1b8cc:	8e5d                	or	a2,a2,a5
   1b8ce:	ca25                	beqz	a2,1b93e <__gedf2+0xae>
   1b8d0:	06081c63          	bnez	a6,1b948 <__gedf2+0xb8>
   1b8d4:	4505                	li	a0,1
   1b8d6:	c2b5                	beqz	a3,1b93a <__gedf2+0xaa>
   1b8d8:	8082                	ret
   1b8da:	8e5d                	or	a2,a2,a5
   1b8dc:	e625                	bnez	a2,1b944 <__gedf2+0xb4>
   1b8de:	00089663          	bnez	a7,1b8ea <__gedf2+0x5a>
   1b8e2:	01036333          	or	t1,t1,a6
   1b8e6:	fe0307e3          	beqz	t1,1b8d4 <__gedf2+0x44>
   1b8ea:	04d58663          	beq	a1,a3,1b936 <__gedf2+0xa6>
   1b8ee:	e5b1                	bnez	a1,1b93a <__gedf2+0xaa>
   1b8f0:	4505                	li	a0,1
   1b8f2:	8082                	ret
   1b8f4:	01036333          	or	t1,t1,a6
   1b8f8:	04031663          	bnez	t1,1b944 <__gedf2+0xb4>
   1b8fc:	ff1519e3          	bne	a0,a7,1b8ee <__gedf2+0x5e>
   1b900:	8fd1                	or	a5,a5,a2
   1b902:	e3a9                	bnez	a5,1b944 <__gedf2+0xb4>
   1b904:	fed595e3          	bne	a1,a3,1b8ee <__gedf2+0x5e>
   1b908:	4501                	li	a0,0
   1b90a:	8082                	ret
   1b90c:	fc0804e3          	beqz	a6,1b8d4 <__gedf2+0x44>
   1b910:	fcd59fe3          	bne	a1,a3,1b8ee <__gedf2+0x5e>
   1b914:	a00d                	j	1b936 <__gedf2+0xa6>
   1b916:	dd61                	beqz	a0,1b8ee <__gedf2+0x5e>
   1b918:	fcd59be3          	bne	a1,a3,1b8ee <__gedf2+0x5e>
   1b91c:	fd1549e3          	blt	a0,a7,1b8ee <__gedf2+0x5e>
   1b920:	00a8cb63          	blt	a7,a0,1b936 <__gedf2+0xa6>
   1b924:	fc67e5e3          	bltu	a5,t1,1b8ee <__gedf2+0x5e>
   1b928:	00f31763          	bne	t1,a5,1b936 <__gedf2+0xa6>
   1b92c:	fddf61e3          	bltu	t5,t4,1b8ee <__gedf2+0x5e>
   1b930:	4501                	li	a0,0
   1b932:	fbeef3e3          	bgeu	t4,t5,1b8d8 <__gedf2+0x48>
   1b936:	4505                	li	a0,1
   1b938:	f1c5                	bnez	a1,1b8d8 <__gedf2+0x48>
   1b93a:	557d                	li	a0,-1
   1b93c:	8082                	ret
   1b93e:	fa0818e3          	bnez	a6,1b8ee <__gedf2+0x5e>
   1b942:	8082                	ret
   1b944:	5579                	li	a0,-2
   1b946:	8082                	ret
   1b948:	fcd58ee3          	beq	a1,a3,1b924 <__gedf2+0x94>
   1b94c:	b74d                	j	1b8ee <__gedf2+0x5e>

0001b94e <__ledf2>:
   1b94e:	0145d893          	srl	a7,a1,0x14
   1b952:	001007b7          	lui	a5,0x100
   1b956:	17fd                	add	a5,a5,-1 # fffff <__BSS_END__+0xe127b>
   1b958:	0146d713          	srl	a4,a3,0x14
   1b95c:	7ff8f893          	and	a7,a7,2047
   1b960:	7ff00313          	li	t1,2047
   1b964:	00b7fe33          	and	t3,a5,a1
   1b968:	882a                	mv	a6,a0
   1b96a:	8eaa                	mv	t4,a0
   1b96c:	8ff5                	and	a5,a5,a3
   1b96e:	81fd                	srl	a1,a1,0x1f
   1b970:	8f32                	mv	t5,a2
   1b972:	7ff77513          	and	a0,a4,2047
   1b976:	82fd                	srl	a3,a3,0x1f
   1b978:	02688e63          	beq	a7,t1,1b9b4 <__ledf2+0x66>
   1b97c:	00650e63          	beq	a0,t1,1b998 <__ledf2+0x4a>
   1b980:	04089763          	bnez	a7,1b9ce <__ledf2+0x80>
   1b984:	010e6833          	or	a6,t3,a6
   1b988:	e53d                	bnez	a0,1b9f6 <__ledf2+0xa8>
   1b98a:	8e5d                	or	a2,a2,a5
   1b98c:	ce25                	beqz	a2,1ba04 <__ledf2+0xb6>
   1b98e:	06081e63          	bnez	a6,1ba0a <__ledf2+0xbc>
   1b992:	4505                	li	a0,1
   1b994:	ceb9                	beqz	a3,1b9f2 <__ledf2+0xa4>
   1b996:	8082                	ret
   1b998:	8e5d                	or	a2,a2,a5
   1b99a:	4509                	li	a0,2
   1b99c:	fe6d                	bnez	a2,1b996 <__ledf2+0x48>
   1b99e:	00089663          	bnez	a7,1b9aa <__ledf2+0x5c>
   1b9a2:	010e6e33          	or	t3,t3,a6
   1b9a6:	fe0e06e3          	beqz	t3,1b992 <__ledf2+0x44>
   1b9aa:	04d58263          	beq	a1,a3,1b9ee <__ledf2+0xa0>
   1b9ae:	e1b1                	bnez	a1,1b9f2 <__ledf2+0xa4>
   1b9b0:	4505                	li	a0,1
   1b9b2:	8082                	ret
   1b9b4:	010e6e33          	or	t3,t3,a6
   1b9b8:	040e1463          	bnez	t3,1ba00 <__ledf2+0xb2>
   1b9bc:	ff1519e3          	bne	a0,a7,1b9ae <__ledf2+0x60>
   1b9c0:	8fd1                	or	a5,a5,a2
   1b9c2:	4509                	li	a0,2
   1b9c4:	fbe9                	bnez	a5,1b996 <__ledf2+0x48>
   1b9c6:	fed594e3          	bne	a1,a3,1b9ae <__ledf2+0x60>
   1b9ca:	4501                	li	a0,0
   1b9cc:	8082                	ret
   1b9ce:	d165                	beqz	a0,1b9ae <__ledf2+0x60>
   1b9d0:	fcd59fe3          	bne	a1,a3,1b9ae <__ledf2+0x60>
   1b9d4:	fd154de3          	blt	a0,a7,1b9ae <__ledf2+0x60>
   1b9d8:	00a8cb63          	blt	a7,a0,1b9ee <__ledf2+0xa0>
   1b9dc:	fdc7e9e3          	bltu	a5,t3,1b9ae <__ledf2+0x60>
   1b9e0:	00fe1763          	bne	t3,a5,1b9ee <__ledf2+0xa0>
   1b9e4:	fddf65e3          	bltu	t5,t4,1b9ae <__ledf2+0x60>
   1b9e8:	4501                	li	a0,0
   1b9ea:	fbeef6e3          	bgeu	t4,t5,1b996 <__ledf2+0x48>
   1b9ee:	4505                	li	a0,1
   1b9f0:	f1dd                	bnez	a1,1b996 <__ledf2+0x48>
   1b9f2:	557d                	li	a0,-1
   1b9f4:	8082                	ret
   1b9f6:	f8080ee3          	beqz	a6,1b992 <__ledf2+0x44>
   1b9fa:	fad59ae3          	bne	a1,a3,1b9ae <__ledf2+0x60>
   1b9fe:	bfc5                	j	1b9ee <__ledf2+0xa0>
   1ba00:	4509                	li	a0,2
   1ba02:	8082                	ret
   1ba04:	fa0815e3          	bnez	a6,1b9ae <__ledf2+0x60>
   1ba08:	8082                	ret
   1ba0a:	fcd589e3          	beq	a1,a3,1b9dc <__ledf2+0x8e>
   1ba0e:	b745                	j	1b9ae <__ledf2+0x60>

0001ba10 <__muldf3>:
   1ba10:	7179                	add	sp,sp,-48
   1ba12:	0145d793          	srl	a5,a1,0x14
   1ba16:	d422                	sw	s0,40(sp)
   1ba18:	d226                	sw	s1,36(sp)
   1ba1a:	d04a                	sw	s2,32(sp)
   1ba1c:	ce4e                	sw	s3,28(sp)
   1ba1e:	ca56                	sw	s5,20(sp)
   1ba20:	00c59493          	sll	s1,a1,0xc
   1ba24:	d606                	sw	ra,44(sp)
   1ba26:	cc52                	sw	s4,24(sp)
   1ba28:	c85a                	sw	s6,16(sp)
   1ba2a:	c65e                	sw	s7,12(sp)
   1ba2c:	c462                	sw	s8,8(sp)
   1ba2e:	7ff7f793          	and	a5,a5,2047
   1ba32:	842a                	mv	s0,a0
   1ba34:	8ab2                	mv	s5,a2
   1ba36:	89b6                	mv	s3,a3
   1ba38:	80b1                	srl	s1,s1,0xc
   1ba3a:	01f5d913          	srl	s2,a1,0x1f
   1ba3e:	32078f63          	beqz	a5,1bd7c <__muldf3+0x36c>
   1ba42:	7ff00713          	li	a4,2047
   1ba46:	08e78663          	beq	a5,a4,1bad2 <__muldf3+0xc2>
   1ba4a:	00349693          	sll	a3,s1,0x3
   1ba4e:	01d55713          	srl	a4,a0,0x1d
   1ba52:	8f55                	or	a4,a4,a3
   1ba54:	008006b7          	lui	a3,0x800
   1ba58:	00d764b3          	or	s1,a4,a3
   1ba5c:	00351a13          	sll	s4,a0,0x3
   1ba60:	c0178c13          	add	s8,a5,-1023
   1ba64:	4b01                	li	s6,0
   1ba66:	4b81                	li	s7,0
   1ba68:	0149d793          	srl	a5,s3,0x14
   1ba6c:	00c99713          	sll	a4,s3,0xc
   1ba70:	7ff7f793          	and	a5,a5,2047
   1ba74:	8f56                	mv	t5,s5
   1ba76:	00c75413          	srl	s0,a4,0xc
   1ba7a:	01f9d993          	srl	s3,s3,0x1f
   1ba7e:	cfbd                	beqz	a5,1bafc <__muldf3+0xec>
   1ba80:	7ff00713          	li	a4,2047
   1ba84:	0ee78f63          	beq	a5,a4,1bb82 <__muldf3+0x172>
   1ba88:	00341713          	sll	a4,s0,0x3
   1ba8c:	01dad593          	srl	a1,s5,0x1d
   1ba90:	8dd9                	or	a1,a1,a4
   1ba92:	c0178793          	add	a5,a5,-1023
   1ba96:	00800737          	lui	a4,0x800
   1ba9a:	00e5e433          	or	s0,a1,a4
   1ba9e:	003a9f13          	sll	t5,s5,0x3
   1baa2:	018788b3          	add	a7,a5,s8
   1baa6:	4301                	li	t1,0
   1baa8:	4729                	li	a4,10
   1baaa:	00188513          	add	a0,a7,1
   1baae:	09674963          	blt	a4,s6,1bb40 <__muldf3+0x130>
   1bab2:	013945b3          	xor	a1,s2,s3
   1bab6:	4789                	li	a5,2
   1bab8:	882e                	mv	a6,a1
   1baba:	0f67c863          	blt	a5,s6,1bbaa <__muldf3+0x19a>
   1babe:	1b7d                	add	s6,s6,-1
   1bac0:	4705                	li	a4,1
   1bac2:	11676263          	bltu	a4,s6,1bbc6 <__muldf3+0x1b6>
   1bac6:	2ef30963          	beq	t1,a5,1bdb8 <__muldf3+0x3a8>
   1baca:	84a2                	mv	s1,s0
   1bacc:	8a7a                	mv	s4,t5
   1bace:	8b9a                	mv	s7,t1
   1bad0:	a8bd                	j	1bb4e <__muldf3+0x13e>
   1bad2:	00a4ea33          	or	s4,s1,a0
   1bad6:	2e0a1763          	bnez	s4,1bdc4 <__muldf3+0x3b4>
   1bada:	0149d793          	srl	a5,s3,0x14
   1bade:	00c99713          	sll	a4,s3,0xc
   1bae2:	7ff7f793          	and	a5,a5,2047
   1bae6:	4481                	li	s1,0
   1bae8:	4b21                	li	s6,8
   1baea:	7ff00c13          	li	s8,2047
   1baee:	4b89                	li	s7,2
   1baf0:	8f56                	mv	t5,s5
   1baf2:	00c75413          	srl	s0,a4,0xc
   1baf6:	01f9d993          	srl	s3,s3,0x1f
   1bafa:	f3d9                	bnez	a5,1ba80 <__muldf3+0x70>
   1bafc:	015467b3          	or	a5,s0,s5
   1bb00:	2c078d63          	beqz	a5,1bdda <__muldf3+0x3ca>
   1bb04:	36040a63          	beqz	s0,1be78 <__muldf3+0x468>
   1bb08:	8522                	mv	a0,s0
   1bb0a:	f22f50ef          	jal	1122c <__clzsi2>
   1bb0e:	88aa                	mv	a7,a0
   1bb10:	ff550713          	add	a4,a0,-11
   1bb14:	47f5                	li	a5,29
   1bb16:	ff888f13          	add	t5,a7,-8
   1bb1a:	8f99                	sub	a5,a5,a4
   1bb1c:	00fad7b3          	srl	a5,s5,a5
   1bb20:	01e41733          	sll	a4,s0,t5
   1bb24:	00e7e433          	or	s0,a5,a4
   1bb28:	01ea9f33          	sll	t5,s5,t5
   1bb2c:	411c08b3          	sub	a7,s8,a7
   1bb30:	c0d88893          	add	a7,a7,-1011
   1bb34:	4729                	li	a4,10
   1bb36:	4301                	li	t1,0
   1bb38:	00188513          	add	a0,a7,1
   1bb3c:	f7675be3          	bge	a4,s6,1bab2 <__muldf3+0xa2>
   1bb40:	85ca                	mv	a1,s2
   1bb42:	4789                	li	a5,2
   1bb44:	26fb8a63          	beq	s7,a5,1bdb8 <__muldf3+0x3a8>
   1bb48:	478d                	li	a5,3
   1bb4a:	36fb8363          	beq	s7,a5,1beb0 <__muldf3+0x4a0>
   1bb4e:	4785                	li	a5,1
   1bb50:	882e                	mv	a6,a1
   1bb52:	34fb9863          	bne	s7,a5,1bea2 <__muldf3+0x492>
   1bb56:	4781                	li	a5,0
   1bb58:	4681                	li	a3,0
   1bb5a:	4701                	li	a4,0
   1bb5c:	50b2                	lw	ra,44(sp)
   1bb5e:	5422                	lw	s0,40(sp)
   1bb60:	07d2                	sll	a5,a5,0x14
   1bb62:	8fd5                	or	a5,a5,a3
   1bb64:	01f81693          	sll	a3,a6,0x1f
   1bb68:	8fd5                	or	a5,a5,a3
   1bb6a:	5492                	lw	s1,36(sp)
   1bb6c:	5902                	lw	s2,32(sp)
   1bb6e:	49f2                	lw	s3,28(sp)
   1bb70:	4a62                	lw	s4,24(sp)
   1bb72:	4ad2                	lw	s5,20(sp)
   1bb74:	4b42                	lw	s6,16(sp)
   1bb76:	4bb2                	lw	s7,12(sp)
   1bb78:	4c22                	lw	s8,8(sp)
   1bb7a:	853a                	mv	a0,a4
   1bb7c:	85be                	mv	a1,a5
   1bb7e:	6145                	add	sp,sp,48
   1bb80:	8082                	ret
   1bb82:	01546733          	or	a4,s0,s5
   1bb86:	7ffc0893          	add	a7,s8,2047
   1bb8a:	24070f63          	beqz	a4,1bde8 <__muldf3+0x3d8>
   1bb8e:	6705                	lui	a4,0x1
   1bb90:	01394833          	xor	a6,s2,s3
   1bb94:	80070713          	add	a4,a4,-2048 # 800 <exit-0xf894>
   1bb98:	003b6b13          	or	s6,s6,3
   1bb9c:	46a9                	li	a3,10
   1bb9e:	85c2                	mv	a1,a6
   1bba0:	00ec0533          	add	a0,s8,a4
   1bba4:	2b66c463          	blt	a3,s6,1be4c <__muldf3+0x43c>
   1bba8:	430d                	li	t1,3
   1bbaa:	4605                	li	a2,1
   1bbac:	01661633          	sll	a2,a2,s6
   1bbb0:	53067713          	and	a4,a2,1328
   1bbb4:	f759                	bnez	a4,1bb42 <__muldf3+0x132>
   1bbb6:	24067793          	and	a5,a2,576
   1bbba:	2c079e63          	bnez	a5,1be96 <__muldf3+0x486>
   1bbbe:	08867613          	and	a2,a2,136
   1bbc2:	22061963          	bnez	a2,1bdf4 <__muldf3+0x3e4>
   1bbc6:	6fc1                	lui	t6,0x10
   1bbc8:	ffff8e93          	add	t4,t6,-1 # ffff <exit-0x95>
   1bbcc:	01da77b3          	and	a5,s4,t4
   1bbd0:	010a5693          	srl	a3,s4,0x10
   1bbd4:	01df7eb3          	and	t4,t5,t4
   1bbd8:	010f5e13          	srl	t3,t5,0x10
   1bbdc:	03d78733          	mul	a4,a5,t4
   1bbe0:	03d68333          	mul	t1,a3,t4
   1bbe4:	01075593          	srl	a1,a4,0x10
   1bbe8:	02fe0633          	mul	a2,t3,a5
   1bbec:	961a                	add	a2,a2,t1
   1bbee:	95b2                	add	a1,a1,a2
   1bbf0:	03c68f33          	mul	t5,a3,t3
   1bbf4:	0065f363          	bgeu	a1,t1,1bbfa <__muldf3+0x1ea>
   1bbf8:	9f7e                	add	t5,t5,t6
   1bbfa:	63c1                	lui	t2,0x10
   1bbfc:	fff38613          	add	a2,t2,-1 # ffff <exit-0x95>
   1bc00:	00c5f333          	and	t1,a1,a2
   1bc04:	01045f93          	srl	t6,s0,0x10
   1bc08:	8f71                	and	a4,a4,a2
   1bc0a:	8c71                	and	s0,s0,a2
   1bc0c:	0342                	sll	t1,t1,0x10
   1bc0e:	028782b3          	mul	t0,a5,s0
   1bc12:	933a                	add	t1,t1,a4
   1bc14:	81c1                	srl	a1,a1,0x10
   1bc16:	02868733          	mul	a4,a3,s0
   1bc1a:	0102d613          	srl	a2,t0,0x10
   1bc1e:	02ff87b3          	mul	a5,t6,a5
   1bc22:	97ba                	add	a5,a5,a4
   1bc24:	963e                	add	a2,a2,a5
   1bc26:	03f687b3          	mul	a5,a3,t6
   1bc2a:	00e67363          	bgeu	a2,a4,1bc30 <__muldf3+0x220>
   1bc2e:	979e                	add	a5,a5,t2
   1bc30:	6941                	lui	s2,0x10
   1bc32:	fff90993          	add	s3,s2,-1 # ffff <exit-0x95>
   1bc36:	01367733          	and	a4,a2,s3
   1bc3a:	0104d393          	srl	t2,s1,0x10
   1bc3e:	0134f6b3          	and	a3,s1,s3
   1bc42:	0132f2b3          	and	t0,t0,s3
   1bc46:	0742                	sll	a4,a4,0x10
   1bc48:	02de84b3          	mul	s1,t4,a3
   1bc4c:	9716                	add	a4,a4,t0
   1bc4e:	8241                	srl	a2,a2,0x10
   1bc50:	963e                	add	a2,a2,a5
   1bc52:	95ba                	add	a1,a1,a4
   1bc54:	02de02b3          	mul	t0,t3,a3
   1bc58:	0104d793          	srl	a5,s1,0x10
   1bc5c:	03d38eb3          	mul	t4,t2,t4
   1bc60:	92f6                	add	t0,t0,t4
   1bc62:	9796                	add	a5,a5,t0
   1bc64:	027e0e33          	mul	t3,t3,t2
   1bc68:	01d7f363          	bgeu	a5,t4,1bc6e <__muldf3+0x25e>
   1bc6c:	9e4a                	add	t3,t3,s2
   1bc6e:	69c1                	lui	s3,0x10
   1bc70:	fff98e93          	add	t4,s3,-1 # ffff <exit-0x95>
   1bc74:	01d7f2b3          	and	t0,a5,t4
   1bc78:	83c1                	srl	a5,a5,0x10
   1bc7a:	97f2                	add	a5,a5,t3
   1bc7c:	01d4feb3          	and	t4,s1,t4
   1bc80:	02c2                	sll	t0,t0,0x10
   1bc82:	02d40933          	mul	s2,s0,a3
   1bc86:	92f6                	add	t0,t0,t4
   1bc88:	02838433          	mul	s0,t2,s0
   1bc8c:	01095e13          	srl	t3,s2,0x10
   1bc90:	02df86b3          	mul	a3,t6,a3
   1bc94:	96a2                	add	a3,a3,s0
   1bc96:	9e36                	add	t3,t3,a3
   1bc98:	027f8eb3          	mul	t4,t6,t2
   1bc9c:	008e7363          	bgeu	t3,s0,1bca2 <__muldf3+0x292>
   1bca0:	9ece                	add	t4,t4,s3
   1bca2:	6fc1                	lui	t6,0x10
   1bca4:	1ffd                	add	t6,t6,-1 # ffff <exit-0x95>
   1bca6:	01fe76b3          	and	a3,t3,t6
   1bcaa:	06c2                	sll	a3,a3,0x10
   1bcac:	01f97933          	and	s2,s2,t6
   1bcb0:	95fa                	add	a1,a1,t5
   1bcb2:	96ca                	add	a3,a3,s2
   1bcb4:	9636                	add	a2,a2,a3
   1bcb6:	00e5b733          	sltu	a4,a1,a4
   1bcba:	9732                	add	a4,a4,a2
   1bcbc:	00558f33          	add	t5,a1,t0
   1bcc0:	97ba                	add	a5,a5,a4
   1bcc2:	00bf35b3          	sltu	a1,t5,a1
   1bcc6:	95be                	add	a1,a1,a5
   1bcc8:	00d636b3          	sltu	a3,a2,a3
   1bccc:	00c73633          	sltu	a2,a4,a2
   1bcd0:	8ed1                	or	a3,a3,a2
   1bcd2:	00e7b733          	sltu	a4,a5,a4
   1bcd6:	010e5e13          	srl	t3,t3,0x10
   1bcda:	00f5b7b3          	sltu	a5,a1,a5
   1bcde:	96f2                	add	a3,a3,t3
   1bce0:	8f5d                	or	a4,a4,a5
   1bce2:	009f1793          	sll	a5,t5,0x9
   1bce6:	9736                	add	a4,a4,a3
   1bce8:	0067e7b3          	or	a5,a5,t1
   1bcec:	9776                	add	a4,a4,t4
   1bcee:	00f037b3          	snez	a5,a5
   1bcf2:	017f5613          	srl	a2,t5,0x17
   1bcf6:	0726                	sll	a4,a4,0x9
   1bcf8:	0175d693          	srl	a3,a1,0x17
   1bcfc:	8fd1                	or	a5,a5,a2
   1bcfe:	05a6                	sll	a1,a1,0x9
   1bd00:	00b7ea33          	or	s4,a5,a1
   1bd04:	00771793          	sll	a5,a4,0x7
   1bd08:	00d764b3          	or	s1,a4,a3
   1bd0c:	0007dd63          	bgez	a5,1bd26 <__muldf3+0x316>
   1bd10:	001a5713          	srl	a4,s4,0x1
   1bd14:	001a7793          	and	a5,s4,1
   1bd18:	01f49693          	sll	a3,s1,0x1f
   1bd1c:	8fd9                	or	a5,a5,a4
   1bd1e:	00d7ea33          	or	s4,a5,a3
   1bd22:	8085                	srl	s1,s1,0x1
   1bd24:	88aa                	mv	a7,a0
   1bd26:	3ff88613          	add	a2,a7,1023
   1bd2a:	0cc05a63          	blez	a2,1bdfe <__muldf3+0x3ee>
   1bd2e:	007a7793          	and	a5,s4,7
   1bd32:	cf81                	beqz	a5,1bd4a <__muldf3+0x33a>
   1bd34:	00fa7793          	and	a5,s4,15
   1bd38:	4711                	li	a4,4
   1bd3a:	00e78863          	beq	a5,a4,1bd4a <__muldf3+0x33a>
   1bd3e:	004a0713          	add	a4,s4,4
   1bd42:	014737b3          	sltu	a5,a4,s4
   1bd46:	94be                	add	s1,s1,a5
   1bd48:	8a3a                	mv	s4,a4
   1bd4a:	00749793          	sll	a5,s1,0x7
   1bd4e:	0007d863          	bgez	a5,1bd5e <__muldf3+0x34e>
   1bd52:	ff0007b7          	lui	a5,0xff000
   1bd56:	17fd                	add	a5,a5,-1 # feffffff <__BSS_END__+0xfefe127b>
   1bd58:	8cfd                	and	s1,s1,a5
   1bd5a:	40088613          	add	a2,a7,1024
   1bd5e:	7fe00793          	li	a5,2046
   1bd62:	14c7c263          	blt	a5,a2,1bea6 <__muldf3+0x496>
   1bd66:	003a5793          	srl	a5,s4,0x3
   1bd6a:	01d49713          	sll	a4,s1,0x1d
   1bd6e:	00949693          	sll	a3,s1,0x9
   1bd72:	8f5d                	or	a4,a4,a5
   1bd74:	82b1                	srl	a3,a3,0xc
   1bd76:	7ff67793          	and	a5,a2,2047
   1bd7a:	b3cd                	j	1bb5c <__muldf3+0x14c>
   1bd7c:	00a4ea33          	or	s4,s1,a0
   1bd80:	040a0863          	beqz	s4,1bdd0 <__muldf3+0x3c0>
   1bd84:	cce1                	beqz	s1,1be5c <__muldf3+0x44c>
   1bd86:	8526                	mv	a0,s1
   1bd88:	ca4f50ef          	jal	1122c <__clzsi2>
   1bd8c:	862a                	mv	a2,a0
   1bd8e:	ff550693          	add	a3,a0,-11
   1bd92:	4775                	li	a4,29
   1bd94:	ff860793          	add	a5,a2,-8 # 7fff8 <__BSS_END__+0x61274>
   1bd98:	8f15                	sub	a4,a4,a3
   1bd9a:	00e45733          	srl	a4,s0,a4
   1bd9e:	00f496b3          	sll	a3,s1,a5
   1bda2:	00d764b3          	or	s1,a4,a3
   1bda6:	00f41a33          	sll	s4,s0,a5
   1bdaa:	c0d00793          	li	a5,-1011
   1bdae:	40c78c33          	sub	s8,a5,a2
   1bdb2:	4b01                	li	s6,0
   1bdb4:	4b81                	li	s7,0
   1bdb6:	b94d                	j	1ba68 <__muldf3+0x58>
   1bdb8:	882e                	mv	a6,a1
   1bdba:	7ff00793          	li	a5,2047
   1bdbe:	4681                	li	a3,0
   1bdc0:	4701                	li	a4,0
   1bdc2:	bb69                	j	1bb5c <__muldf3+0x14c>
   1bdc4:	8a2a                	mv	s4,a0
   1bdc6:	4b31                	li	s6,12
   1bdc8:	7ff00c13          	li	s8,2047
   1bdcc:	4b8d                	li	s7,3
   1bdce:	b969                	j	1ba68 <__muldf3+0x58>
   1bdd0:	4481                	li	s1,0
   1bdd2:	4b11                	li	s6,4
   1bdd4:	4c01                	li	s8,0
   1bdd6:	4b85                	li	s7,1
   1bdd8:	b941                	j	1ba68 <__muldf3+0x58>
   1bdda:	001b6b13          	or	s6,s6,1
   1bdde:	88e2                	mv	a7,s8
   1bde0:	4401                	li	s0,0
   1bde2:	4f01                	li	t5,0
   1bde4:	4305                	li	t1,1
   1bde6:	b1c9                	j	1baa8 <__muldf3+0x98>
   1bde8:	002b6b13          	or	s6,s6,2
   1bdec:	4401                	li	s0,0
   1bdee:	4f01                	li	t5,0
   1bdf0:	4309                	li	t1,2
   1bdf2:	b95d                	j	1baa8 <__muldf3+0x98>
   1bdf4:	84a2                	mv	s1,s0
   1bdf6:	8a7a                	mv	s4,t5
   1bdf8:	8b9a                	mv	s7,t1
   1bdfa:	85ce                	mv	a1,s3
   1bdfc:	b399                	j	1bb42 <__muldf3+0x132>
   1bdfe:	4705                	li	a4,1
   1be00:	ee5d                	bnez	a2,1bebe <__muldf3+0x4ae>
   1be02:	41e88893          	add	a7,a7,1054
   1be06:	011a1633          	sll	a2,s4,a7
   1be0a:	00c03633          	snez	a2,a2
   1be0e:	011498b3          	sll	a7,s1,a7
   1be12:	00ea57b3          	srl	a5,s4,a4
   1be16:	01166633          	or	a2,a2,a7
   1be1a:	8e5d                	or	a2,a2,a5
   1be1c:	00767793          	and	a5,a2,7
   1be20:	00e4d5b3          	srl	a1,s1,a4
   1be24:	cf81                	beqz	a5,1be3c <__muldf3+0x42c>
   1be26:	00f67793          	and	a5,a2,15
   1be2a:	4711                	li	a4,4
   1be2c:	00e78863          	beq	a5,a4,1be3c <__muldf3+0x42c>
   1be30:	00460793          	add	a5,a2,4
   1be34:	00c7b633          	sltu	a2,a5,a2
   1be38:	95b2                	add	a1,a1,a2
   1be3a:	863e                	mv	a2,a5
   1be3c:	00859513          	sll	a0,a1,0x8
   1be40:	4785                	li	a5,1
   1be42:	4681                	li	a3,0
   1be44:	4701                	li	a4,0
   1be46:	d0054be3          	bltz	a0,1bb5c <__muldf3+0x14c>
   1be4a:	a0e1                	j	1bf12 <__muldf3+0x502>
   1be4c:	473d                	li	a4,15
   1be4e:	0ceb1b63          	bne	s6,a4,1bf24 <__muldf3+0x514>
   1be52:	4801                	li	a6,0
   1be54:	000806b7          	lui	a3,0x80
   1be58:	4701                	li	a4,0
   1be5a:	b309                	j	1bb5c <__muldf3+0x14c>
   1be5c:	bd0f50ef          	jal	1122c <__clzsi2>
   1be60:	01550693          	add	a3,a0,21
   1be64:	47f1                	li	a5,28
   1be66:	02050613          	add	a2,a0,32
   1be6a:	f2d7d4e3          	bge	a5,a3,1bd92 <__muldf3+0x382>
   1be6e:	1561                	add	a0,a0,-8
   1be70:	4a01                	li	s4,0
   1be72:	00a414b3          	sll	s1,s0,a0
   1be76:	bf15                	j	1bdaa <__muldf3+0x39a>
   1be78:	8556                	mv	a0,s5
   1be7a:	bb2f50ef          	jal	1122c <__clzsi2>
   1be7e:	01550713          	add	a4,a0,21
   1be82:	47f1                	li	a5,28
   1be84:	02050893          	add	a7,a0,32
   1be88:	c8e7d6e3          	bge	a5,a4,1bb14 <__muldf3+0x104>
   1be8c:	1561                	add	a0,a0,-8
   1be8e:	4f01                	li	t5,0
   1be90:	00aa9433          	sll	s0,s5,a0
   1be94:	b961                	j	1bb2c <__muldf3+0x11c>
   1be96:	4801                	li	a6,0
   1be98:	7ff00793          	li	a5,2047
   1be9c:	000806b7          	lui	a3,0x80
   1bea0:	b975                	j	1bb5c <__muldf3+0x14c>
   1bea2:	88aa                	mv	a7,a0
   1bea4:	b549                	j	1bd26 <__muldf3+0x316>
   1bea6:	7ff00793          	li	a5,2047
   1beaa:	4681                	li	a3,0
   1beac:	4701                	li	a4,0
   1beae:	b17d                	j	1bb5c <__muldf3+0x14c>
   1beb0:	4801                	li	a6,0
   1beb2:	7ff00793          	li	a5,2047
   1beb6:	000806b7          	lui	a3,0x80
   1beba:	4701                	li	a4,0
   1bebc:	b145                	j	1bb5c <__muldf3+0x14c>
   1bebe:	8f11                	sub	a4,a4,a2
   1bec0:	03800793          	li	a5,56
   1bec4:	c8e7c9e3          	blt	a5,a4,1bb56 <__muldf3+0x146>
   1bec8:	47fd                	li	a5,31
   1beca:	f2e7dce3          	bge	a5,a4,1be02 <__muldf3+0x3f2>
   1bece:	5785                	li	a5,-31
   1bed0:	8f91                	sub	a5,a5,a2
   1bed2:	02000693          	li	a3,32
   1bed6:	00f4d7b3          	srl	a5,s1,a5
   1beda:	00d70863          	beq	a4,a3,1beea <__muldf3+0x4da>
   1bede:	43e88893          	add	a7,a7,1086
   1bee2:	011498b3          	sll	a7,s1,a7
   1bee6:	011a6a33          	or	s4,s4,a7
   1beea:	01403633          	snez	a2,s4
   1beee:	8e5d                	or	a2,a2,a5
   1bef0:	00767713          	and	a4,a2,7
   1bef4:	4681                	li	a3,0
   1bef6:	c31d                	beqz	a4,1bf1c <__muldf3+0x50c>
   1bef8:	00f67793          	and	a5,a2,15
   1befc:	4711                	li	a4,4
   1befe:	4581                	li	a1,0
   1bf00:	00e78963          	beq	a5,a4,1bf12 <__muldf3+0x502>
   1bf04:	00460793          	add	a5,a2,4
   1bf08:	00c7b633          	sltu	a2,a5,a2
   1bf0c:	00c035b3          	snez	a1,a2
   1bf10:	863e                	mv	a2,a5
   1bf12:	00959693          	sll	a3,a1,0x9
   1bf16:	01d59713          	sll	a4,a1,0x1d
   1bf1a:	82b1                	srl	a3,a3,0xc
   1bf1c:	820d                	srl	a2,a2,0x3
   1bf1e:	8f51                	or	a4,a4,a2
   1bf20:	4781                	li	a5,0
   1bf22:	b92d                	j	1bb5c <__muldf3+0x14c>
   1bf24:	84a2                	mv	s1,s0
   1bf26:	8a56                	mv	s4,s5
   1bf28:	4b8d                	li	s7,3
   1bf2a:	85ce                	mv	a1,s3
   1bf2c:	b919                	j	1bb42 <__muldf3+0x132>

0001bf2e <__subdf3>:
   1bf2e:	001007b7          	lui	a5,0x100
   1bf32:	17fd                	add	a5,a5,-1 # fffff <__BSS_END__+0xe127b>
   1bf34:	1101                	add	sp,sp,-32
   1bf36:	00b7f8b3          	and	a7,a5,a1
   1bf3a:	00d7f833          	and	a6,a5,a3
   1bf3e:	0146d793          	srl	a5,a3,0x14
   1bf42:	088e                	sll	a7,a7,0x3
   1bf44:	cc22                	sw	s0,24(sp)
   1bf46:	c64e                	sw	s3,12(sp)
   1bf48:	01f5d413          	srl	s0,a1,0x1f
   1bf4c:	0145d993          	srl	s3,a1,0x14
   1bf50:	01d55713          	srl	a4,a0,0x1d
   1bf54:	080e                	sll	a6,a6,0x3
   1bf56:	01d65593          	srl	a1,a2,0x1d
   1bf5a:	ce06                	sw	ra,28(sp)
   1bf5c:	ca26                	sw	s1,20(sp)
   1bf5e:	c84a                	sw	s2,16(sp)
   1bf60:	7ff7ff13          	and	t5,a5,2047
   1bf64:	7ff00313          	li	t1,2047
   1bf68:	01176733          	or	a4,a4,a7
   1bf6c:	7ff9f993          	and	s3,s3,2047
   1bf70:	8e22                	mv	t3,s0
   1bf72:	00351893          	sll	a7,a0,0x3
   1bf76:	82fd                	srl	a3,a3,0x1f
   1bf78:	0105e5b3          	or	a1,a1,a6
   1bf7c:	00361e93          	sll	t4,a2,0x3
   1bf80:	1c6f0163          	beq	t5,t1,1c142 <__subdf3+0x214>
   1bf84:	0016c693          	xor	a3,a3,1
   1bf88:	41e987b3          	sub	a5,s3,t5
   1bf8c:	12d40263          	beq	s0,a3,1c0b0 <__subdf3+0x182>
   1bf90:	68f05963          	blez	a5,1c622 <__subdf3+0x6f4>
   1bf94:	1e0f0763          	beqz	t5,1c182 <__subdf3+0x254>
   1bf98:	32698563          	beq	s3,t1,1c2c2 <__subdf3+0x394>
   1bf9c:	03800693          	li	a3,56
   1bfa0:	4505                	li	a0,1
   1bfa2:	02f6c863          	blt	a3,a5,1bfd2 <__subdf3+0xa4>
   1bfa6:	008006b7          	lui	a3,0x800
   1bfaa:	8dd5                	or	a1,a1,a3
   1bfac:	46fd                	li	a3,31
   1bfae:	40f6cb63          	blt	a3,a5,1c3c4 <__subdf3+0x496>
   1bfb2:	02000693          	li	a3,32
   1bfb6:	8e9d                	sub	a3,a3,a5
   1bfb8:	00d59533          	sll	a0,a1,a3
   1bfbc:	00fed633          	srl	a2,t4,a5
   1bfc0:	00de96b3          	sll	a3,t4,a3
   1bfc4:	8d51                	or	a0,a0,a2
   1bfc6:	00d036b3          	snez	a3,a3
   1bfca:	00f5d7b3          	srl	a5,a1,a5
   1bfce:	8d55                	or	a0,a0,a3
   1bfd0:	8f1d                	sub	a4,a4,a5
   1bfd2:	40a88533          	sub	a0,a7,a0
   1bfd6:	00a8b633          	sltu	a2,a7,a0
   1bfda:	84aa                	mv	s1,a0
   1bfdc:	40c70933          	sub	s2,a4,a2
   1bfe0:	00891793          	sll	a5,s2,0x8
   1bfe4:	2c07d463          	bgez	a5,1c2ac <__subdf3+0x37e>
   1bfe8:	008007b7          	lui	a5,0x800
   1bfec:	17fd                	add	a5,a5,-1 # 7fffff <__BSS_END__+0x7e127b>
   1bfee:	00f97933          	and	s2,s2,a5
   1bff2:	26090863          	beqz	s2,1c262 <__subdf3+0x334>
   1bff6:	854a                	mv	a0,s2
   1bff8:	a34f50ef          	jal	1122c <__clzsi2>
   1bffc:	ff850793          	add	a5,a0,-8
   1c000:	02000693          	li	a3,32
   1c004:	40f68733          	sub	a4,a3,a5
   1c008:	00e4d733          	srl	a4,s1,a4
   1c00c:	00f91933          	sll	s2,s2,a5
   1c010:	01276733          	or	a4,a4,s2
   1c014:	00f494b3          	sll	s1,s1,a5
   1c018:	3337cd63          	blt	a5,s3,1c352 <__subdf3+0x424>
   1c01c:	413787b3          	sub	a5,a5,s3
   1c020:	0785                	add	a5,a5,1
   1c022:	8e9d                	sub	a3,a3,a5
   1c024:	00d49633          	sll	a2,s1,a3
   1c028:	00f4d933          	srl	s2,s1,a5
   1c02c:	00c03633          	snez	a2,a2
   1c030:	00c96633          	or	a2,s2,a2
   1c034:	00d716b3          	sll	a3,a4,a3
   1c038:	00c6e4b3          	or	s1,a3,a2
   1c03c:	00f75933          	srl	s2,a4,a5
   1c040:	4981                	li	s3,0
   1c042:	0074f793          	and	a5,s1,7
   1c046:	cf81                	beqz	a5,1c05e <__subdf3+0x130>
   1c048:	00f4f793          	and	a5,s1,15
   1c04c:	4711                	li	a4,4
   1c04e:	00e78863          	beq	a5,a4,1c05e <__subdf3+0x130>
   1c052:	00448793          	add	a5,s1,4
   1c056:	0097b533          	sltu	a0,a5,s1
   1c05a:	992a                	add	s2,s2,a0
   1c05c:	84be                	mv	s1,a5
   1c05e:	00891793          	sll	a5,s2,0x8
   1c062:	5607de63          	bgez	a5,1c5de <__subdf3+0x6b0>
   1c066:	00198793          	add	a5,s3,1
   1c06a:	7ff00713          	li	a4,2047
   1c06e:	1ee78363          	beq	a5,a4,1c254 <__subdf3+0x326>
   1c072:	ff800737          	lui	a4,0xff800
   1c076:	177d                	add	a4,a4,-1 # ff7fffff <__BSS_END__+0xff7e127b>
   1c078:	00e97733          	and	a4,s2,a4
   1c07c:	7ff7f793          	and	a5,a5,2047
   1c080:	01d71813          	sll	a6,a4,0x1d
   1c084:	0034d513          	srl	a0,s1,0x3
   1c088:	0726                	sll	a4,a4,0x9
   1c08a:	00a86833          	or	a6,a6,a0
   1c08e:	8331                	srl	a4,a4,0xc
   1c090:	00147e13          	and	t3,s0,1
   1c094:	40f2                	lw	ra,28(sp)
   1c096:	4462                	lw	s0,24(sp)
   1c098:	07d2                	sll	a5,a5,0x14
   1c09a:	8fd9                	or	a5,a5,a4
   1c09c:	01fe1713          	sll	a4,t3,0x1f
   1c0a0:	8fd9                	or	a5,a5,a4
   1c0a2:	44d2                	lw	s1,20(sp)
   1c0a4:	4942                	lw	s2,16(sp)
   1c0a6:	49b2                	lw	s3,12(sp)
   1c0a8:	8542                	mv	a0,a6
   1c0aa:	85be                	mv	a1,a5
   1c0ac:	6105                	add	sp,sp,32
   1c0ae:	8082                	ret
   1c0b0:	5af05563          	blez	a5,1c65a <__subdf3+0x72c>
   1c0b4:	180f1563          	bnez	t5,1c23e <__subdf3+0x310>
   1c0b8:	01d5e6b3          	or	a3,a1,t4
   1c0bc:	20068b63          	beqz	a3,1c2d2 <__subdf3+0x3a4>
   1c0c0:	fff78693          	add	a3,a5,-1
   1c0c4:	3a068263          	beqz	a3,1c468 <__subdf3+0x53a>
   1c0c8:	1e678d63          	beq	a5,t1,1c2c2 <__subdf3+0x394>
   1c0cc:	03800793          	li	a5,56
   1c0d0:	4905                	li	s2,1
   1c0d2:	02d7c863          	blt	a5,a3,1c102 <__subdf3+0x1d4>
   1c0d6:	87b6                	mv	a5,a3
   1c0d8:	46fd                	li	a3,31
   1c0da:	3af6cf63          	blt	a3,a5,1c498 <__subdf3+0x56a>
   1c0de:	02000693          	li	a3,32
   1c0e2:	8e9d                	sub	a3,a3,a5
   1c0e4:	00d59933          	sll	s2,a1,a3
   1c0e8:	00fed633          	srl	a2,t4,a5
   1c0ec:	00de96b3          	sll	a3,t4,a3
   1c0f0:	00c96933          	or	s2,s2,a2
   1c0f4:	00d036b3          	snez	a3,a3
   1c0f8:	00f5d7b3          	srl	a5,a1,a5
   1c0fc:	00d96933          	or	s2,s2,a3
   1c100:	973e                	add	a4,a4,a5
   1c102:	01190633          	add	a2,s2,a7
   1c106:	01263933          	sltu	s2,a2,s2
   1c10a:	84b2                	mv	s1,a2
   1c10c:	993a                	add	s2,s2,a4
   1c10e:	00891793          	sll	a5,s2,0x8
   1c112:	1807dd63          	bgez	a5,1c2ac <__subdf3+0x37e>
   1c116:	0985                	add	s3,s3,1
   1c118:	7ff00793          	li	a5,2047
   1c11c:	12f98c63          	beq	s3,a5,1c254 <__subdf3+0x326>
   1c120:	ff8007b7          	lui	a5,0xff800
   1c124:	17fd                	add	a5,a5,-1 # ff7fffff <__BSS_END__+0xff7e127b>
   1c126:	0014f513          	and	a0,s1,1
   1c12a:	00f977b3          	and	a5,s2,a5
   1c12e:	0014d713          	srl	a4,s1,0x1
   1c132:	8f49                	or	a4,a4,a0
   1c134:	01f79513          	sll	a0,a5,0x1f
   1c138:	00e564b3          	or	s1,a0,a4
   1c13c:	0017d913          	srl	s2,a5,0x1
   1c140:	b709                	j	1c042 <__subdf3+0x114>
   1c142:	01d5e833          	or	a6,a1,t4
   1c146:	80198313          	add	t1,s3,-2047
   1c14a:	04080d63          	beqz	a6,1c1a4 <__subdf3+0x276>
   1c14e:	04d40f63          	beq	s0,a3,1c1ac <__subdf3+0x27e>
   1c152:	0c030163          	beqz	t1,1c214 <__subdf3+0x2e6>
   1c156:	20098663          	beqz	s3,1c362 <__subdf3+0x434>
   1c15a:	00361513          	sll	a0,a2,0x3
   1c15e:	810d                	srl	a0,a0,0x3
   1c160:	8436                	mv	s0,a3
   1c162:	872e                	mv	a4,a1
   1c164:	01d71813          	sll	a6,a4,0x1d
   1c168:	00a86833          	or	a6,a6,a0
   1c16c:	830d                	srl	a4,a4,0x3
   1c16e:	01076733          	or	a4,a4,a6
   1c172:	c36d                	beqz	a4,1c254 <__subdf3+0x326>
   1c174:	4e01                	li	t3,0
   1c176:	7ff00793          	li	a5,2047
   1c17a:	00080737          	lui	a4,0x80
   1c17e:	4801                	li	a6,0
   1c180:	bf11                	j	1c094 <__subdf3+0x166>
   1c182:	01d5e6b3          	or	a3,a1,t4
   1c186:	14068663          	beqz	a3,1c2d2 <__subdf3+0x3a4>
   1c18a:	fff78693          	add	a3,a5,-1
   1c18e:	2e068a63          	beqz	a3,1c482 <__subdf3+0x554>
   1c192:	12678863          	beq	a5,t1,1c2c2 <__subdf3+0x394>
   1c196:	03800793          	li	a5,56
   1c19a:	4505                	li	a0,1
   1c19c:	e2d7cbe3          	blt	a5,a3,1bfd2 <__subdf3+0xa4>
   1c1a0:	87b6                	mv	a5,a3
   1c1a2:	b529                	j	1bfac <__subdf3+0x7e>
   1c1a4:	0016c693          	xor	a3,a3,1
   1c1a8:	fad415e3          	bne	s0,a3,1c152 <__subdf3+0x224>
   1c1ac:	14030563          	beqz	t1,1c2f6 <__subdf3+0x3c8>
   1c1b0:	24099563          	bnez	s3,1c3fa <__subdf3+0x4cc>
   1c1b4:	7ff00793          	li	a5,2047
   1c1b8:	011766b3          	or	a3,a4,a7
   1c1bc:	3a068863          	beqz	a3,1c56c <__subdf3+0x63e>
   1c1c0:	fff78693          	add	a3,a5,-1
   1c1c4:	2a068263          	beqz	a3,1c468 <__subdf3+0x53a>
   1c1c8:	7ff00513          	li	a0,2047
   1c1cc:	22a78763          	beq	a5,a0,1c3fa <__subdf3+0x4cc>
   1c1d0:	03800793          	li	a5,56
   1c1d4:	4905                	li	s2,1
   1c1d6:	02d7c763          	blt	a5,a3,1c204 <__subdf3+0x2d6>
   1c1da:	47fd                	li	a5,31
   1c1dc:	3cd7cc63          	blt	a5,a3,1c5b4 <__subdf3+0x686>
   1c1e0:	02000793          	li	a5,32
   1c1e4:	8f95                	sub	a5,a5,a3
   1c1e6:	00f71933          	sll	s2,a4,a5
   1c1ea:	00d8d633          	srl	a2,a7,a3
   1c1ee:	00f897b3          	sll	a5,a7,a5
   1c1f2:	00c96933          	or	s2,s2,a2
   1c1f6:	00f037b3          	snez	a5,a5
   1c1fa:	00d756b3          	srl	a3,a4,a3
   1c1fe:	00f96933          	or	s2,s2,a5
   1c202:	95b6                	add	a1,a1,a3
   1c204:	01d90733          	add	a4,s2,t4
   1c208:	01273933          	sltu	s2,a4,s2
   1c20c:	84ba                	mv	s1,a4
   1c20e:	992e                	add	s2,s2,a1
   1c210:	89fa                	mv	s3,t5
   1c212:	bdf5                	j	1c10e <__subdf3+0x1e0>
   1c214:	00198793          	add	a5,s3,1
   1c218:	7fe7f793          	and	a5,a5,2046
   1c21c:	10079663          	bnez	a5,1c328 <__subdf3+0x3fa>
   1c220:	01d5e833          	or	a6,a1,t4
   1c224:	011767b3          	or	a5,a4,a7
   1c228:	22099363          	bnez	s3,1c44e <__subdf3+0x520>
   1c22c:	2e078263          	beqz	a5,1c510 <__subdf3+0x5e2>
   1c230:	2e081f63          	bnez	a6,1c52e <__subdf3+0x600>
   1c234:	050e                	sll	a0,a0,0x3
   1c236:	00355913          	srl	s2,a0,0x3
   1c23a:	4781                	li	a5,0
   1c23c:	a0c5                	j	1c31c <__subdf3+0x3ee>
   1c23e:	08698263          	beq	s3,t1,1c2c2 <__subdf3+0x394>
   1c242:	03800693          	li	a3,56
   1c246:	4905                	li	s2,1
   1c248:	eaf6cde3          	blt	a3,a5,1c102 <__subdf3+0x1d4>
   1c24c:	008006b7          	lui	a3,0x800
   1c250:	8dd5                	or	a1,a1,a3
   1c252:	b559                	j	1c0d8 <__subdf3+0x1aa>
   1c254:	00147e13          	and	t3,s0,1
   1c258:	7ff00793          	li	a5,2047
   1c25c:	4701                	li	a4,0
   1c25e:	4801                	li	a6,0
   1c260:	bd15                	j	1c094 <__subdf3+0x166>
   1c262:	8526                	mv	a0,s1
   1c264:	fc9f40ef          	jal	1122c <__clzsi2>
   1c268:	01850793          	add	a5,a0,24
   1c26c:	46fd                	li	a3,31
   1c26e:	d8f6d9e3          	bge	a3,a5,1c000 <__subdf3+0xd2>
   1c272:	ff850713          	add	a4,a0,-8
   1c276:	00e49733          	sll	a4,s1,a4
   1c27a:	1737c963          	blt	a5,s3,1c3ec <__subdf3+0x4be>
   1c27e:	413789b3          	sub	s3,a5,s3
   1c282:	00198793          	add	a5,s3,1
   1c286:	36f6d163          	bge	a3,a5,1c5e8 <__subdf3+0x6ba>
   1c28a:	1985                	add	s3,s3,-31
   1c28c:	02000693          	li	a3,32
   1c290:	013754b3          	srl	s1,a4,s3
   1c294:	00d78b63          	beq	a5,a3,1c2aa <__subdf3+0x37c>
   1c298:	04000693          	li	a3,64
   1c29c:	40f687b3          	sub	a5,a3,a5
   1c2a0:	00f71733          	sll	a4,a4,a5
   1c2a4:	00e03733          	snez	a4,a4
   1c2a8:	8cd9                	or	s1,s1,a4
   1c2aa:	4981                	li	s3,0
   1c2ac:	0074f793          	and	a5,s1,7
   1c2b0:	d8079ce3          	bnez	a5,1c048 <__subdf3+0x11a>
   1c2b4:	87ce                	mv	a5,s3
   1c2b6:	0034d513          	srl	a0,s1,0x3
   1c2ba:	874a                	mv	a4,s2
   1c2bc:	a829                	j	1c2d6 <__subdf3+0x3a8>
   1c2be:	ea081be3          	bnez	a6,1c174 <__subdf3+0x246>
   1c2c2:	050e                	sll	a0,a0,0x3
   1c2c4:	01d71813          	sll	a6,a4,0x1d
   1c2c8:	810d                	srl	a0,a0,0x3
   1c2ca:	00a86833          	or	a6,a6,a0
   1c2ce:	830d                	srl	a4,a4,0x3
   1c2d0:	bd79                	j	1c16e <__subdf3+0x240>
   1c2d2:	050e                	sll	a0,a0,0x3
   1c2d4:	810d                	srl	a0,a0,0x3
   1c2d6:	01d71813          	sll	a6,a4,0x1d
   1c2da:	7ff00693          	li	a3,2047
   1c2de:	00a86833          	or	a6,a6,a0
   1c2e2:	830d                	srl	a4,a4,0x3
   1c2e4:	e8d785e3          	beq	a5,a3,1c16e <__subdf3+0x240>
   1c2e8:	0732                	sll	a4,a4,0xc
   1c2ea:	8331                	srl	a4,a4,0xc
   1c2ec:	7ff7f793          	and	a5,a5,2047
   1c2f0:	00147e13          	and	t3,s0,1
   1c2f4:	b345                	j	1c094 <__subdf3+0x166>
   1c2f6:	00198693          	add	a3,s3,1
   1c2fa:	7fe6f793          	and	a5,a3,2046
   1c2fe:	10079363          	bnez	a5,1c404 <__subdf3+0x4d6>
   1c302:	011767b3          	or	a5,a4,a7
   1c306:	1e099263          	bnez	s3,1c4ea <__subdf3+0x5bc>
   1c30a:	26078663          	beqz	a5,1c576 <__subdf3+0x648>
   1c30e:	01d5e7b3          	or	a5,a1,t4
   1c312:	26079763          	bnez	a5,1c580 <__subdf3+0x652>
   1c316:	050e                	sll	a0,a0,0x3
   1c318:	00355913          	srl	s2,a0,0x3
   1c31c:	01d71813          	sll	a6,a4,0x1d
   1c320:	01286833          	or	a6,a6,s2
   1c324:	830d                	srl	a4,a4,0x3
   1c326:	b7c9                	j	1c2e8 <__subdf3+0x3ba>
   1c328:	41d88833          	sub	a6,a7,t4
   1c32c:	0108b7b3          	sltu	a5,a7,a6
   1c330:	40b70933          	sub	s2,a4,a1
   1c334:	40f90933          	sub	s2,s2,a5
   1c338:	00891793          	sll	a5,s2,0x8
   1c33c:	84c2                	mv	s1,a6
   1c33e:	0e07c763          	bltz	a5,1c42c <__subdf3+0x4fe>
   1c342:	01286833          	or	a6,a6,s2
   1c346:	ca0816e3          	bnez	a6,1bff2 <__subdf3+0xc4>
   1c34a:	4e01                	li	t3,0
   1c34c:	4781                	li	a5,0
   1c34e:	4701                	li	a4,0
   1c350:	b391                	j	1c094 <__subdf3+0x166>
   1c352:	ff800937          	lui	s2,0xff800
   1c356:	197d                	add	s2,s2,-1 # ff7fffff <__BSS_END__+0xff7e127b>
   1c358:	40f989b3          	sub	s3,s3,a5
   1c35c:	01277933          	and	s2,a4,s2
   1c360:	b1cd                	j	1c042 <__subdf3+0x114>
   1c362:	7ff00793          	li	a5,2047
   1c366:	01176533          	or	a0,a4,a7
   1c36a:	cd61                	beqz	a0,1c442 <__subdf3+0x514>
   1c36c:	fff78813          	add	a6,a5,-1
   1c370:	18080363          	beqz	a6,1c4f6 <__subdf3+0x5c8>
   1c374:	7ff00513          	li	a0,2047
   1c378:	dea781e3          	beq	a5,a0,1c15a <__subdf3+0x22c>
   1c37c:	03800793          	li	a5,56
   1c380:	8436                	mv	s0,a3
   1c382:	4505                	li	a0,1
   1c384:	0307c763          	blt	a5,a6,1c3b2 <__subdf3+0x484>
   1c388:	47fd                	li	a5,31
   1c38a:	1307cc63          	blt	a5,a6,1c4c2 <__subdf3+0x594>
   1c38e:	02000793          	li	a5,32
   1c392:	410787b3          	sub	a5,a5,a6
   1c396:	00f71533          	sll	a0,a4,a5
   1c39a:	0108d6b3          	srl	a3,a7,a6
   1c39e:	00f897b3          	sll	a5,a7,a5
   1c3a2:	8d55                	or	a0,a0,a3
   1c3a4:	00f037b3          	snez	a5,a5
   1c3a8:	01075833          	srl	a6,a4,a6
   1c3ac:	8d5d                	or	a0,a0,a5
   1c3ae:	410585b3          	sub	a1,a1,a6
   1c3b2:	40ae8533          	sub	a0,t4,a0
   1c3b6:	00aeb733          	sltu	a4,t4,a0
   1c3ba:	84aa                	mv	s1,a0
   1c3bc:	40e58933          	sub	s2,a1,a4
   1c3c0:	89fa                	mv	s3,t5
   1c3c2:	b939                	j	1bfe0 <__subdf3+0xb2>
   1c3c4:	fe078693          	add	a3,a5,-32
   1c3c8:	02000613          	li	a2,32
   1c3cc:	00d5d6b3          	srl	a3,a1,a3
   1c3d0:	00c78a63          	beq	a5,a2,1c3e4 <__subdf3+0x4b6>
   1c3d4:	04000613          	li	a2,64
   1c3d8:	40f607b3          	sub	a5,a2,a5
   1c3dc:	00f597b3          	sll	a5,a1,a5
   1c3e0:	00feeeb3          	or	t4,t4,a5
   1c3e4:	01d03533          	snez	a0,t4
   1c3e8:	8d55                	or	a0,a0,a3
   1c3ea:	b6e5                	j	1bfd2 <__subdf3+0xa4>
   1c3ec:	ff8006b7          	lui	a3,0xff800
   1c3f0:	16fd                	add	a3,a3,-1 # ff7fffff <__BSS_END__+0xff7e127b>
   1c3f2:	40f987b3          	sub	a5,s3,a5
   1c3f6:	8f75                	and	a4,a4,a3
   1c3f8:	b715                	j	1c31c <__subdf3+0x3ee>
   1c3fa:	00361513          	sll	a0,a2,0x3
   1c3fe:	810d                	srl	a0,a0,0x3
   1c400:	872e                	mv	a4,a1
   1c402:	b38d                	j	1c164 <__subdf3+0x236>
   1c404:	7ff00793          	li	a5,2047
   1c408:	e4f686e3          	beq	a3,a5,1c254 <__subdf3+0x326>
   1c40c:	9ec6                	add	t4,t4,a7
   1c40e:	011eb633          	sltu	a2,t4,a7
   1c412:	00b707b3          	add	a5,a4,a1
   1c416:	97b2                	add	a5,a5,a2
   1c418:	01f79513          	sll	a0,a5,0x1f
   1c41c:	001ede93          	srl	t4,t4,0x1
   1c420:	01d564b3          	or	s1,a0,t4
   1c424:	0017d913          	srl	s2,a5,0x1
   1c428:	89b6                	mv	s3,a3
   1c42a:	b921                	j	1c042 <__subdf3+0x114>
   1c42c:	411e8633          	sub	a2,t4,a7
   1c430:	40e587b3          	sub	a5,a1,a4
   1c434:	00ceb733          	sltu	a4,t4,a2
   1c438:	84b2                	mv	s1,a2
   1c43a:	40e78933          	sub	s2,a5,a4
   1c43e:	8436                	mv	s0,a3
   1c440:	be4d                	j	1bff2 <__subdf3+0xc4>
   1c442:	060e                	sll	a2,a2,0x3
   1c444:	00365513          	srl	a0,a2,0x3
   1c448:	8436                	mv	s0,a3
   1c44a:	872e                	mv	a4,a1
   1c44c:	b569                	j	1c2d6 <__subdf3+0x3a8>
   1c44e:	e60798e3          	bnez	a5,1c2be <__subdf3+0x390>
   1c452:	1a080963          	beqz	a6,1c604 <__subdf3+0x6d6>
   1c456:	0035d713          	srl	a4,a1,0x3
   1c45a:	060e                	sll	a2,a2,0x3
   1c45c:	05f6                	sll	a1,a1,0x1d
   1c45e:	8f4d                	or	a4,a4,a1
   1c460:	820d                	srl	a2,a2,0x3
   1c462:	8f51                	or	a4,a4,a2
   1c464:	8436                	mv	s0,a3
   1c466:	b331                	j	1c172 <__subdf3+0x244>
   1c468:	9ec6                	add	t4,t4,a7
   1c46a:	95ba                	add	a1,a1,a4
   1c46c:	011eb633          	sltu	a2,t4,a7
   1c470:	00c58933          	add	s2,a1,a2
   1c474:	00891793          	sll	a5,s2,0x8
   1c478:	84f6                	mv	s1,t4
   1c47a:	0807d963          	bgez	a5,1c50c <__subdf3+0x5de>
   1c47e:	4989                	li	s3,2
   1c480:	b145                	j	1c120 <__subdf3+0x1f2>
   1c482:	41d88eb3          	sub	t4,a7,t4
   1c486:	40b705b3          	sub	a1,a4,a1
   1c48a:	01d8b633          	sltu	a2,a7,t4
   1c48e:	84f6                	mv	s1,t4
   1c490:	40c58933          	sub	s2,a1,a2
   1c494:	4985                	li	s3,1
   1c496:	b6a9                	j	1bfe0 <__subdf3+0xb2>
   1c498:	fe078693          	add	a3,a5,-32
   1c49c:	02000613          	li	a2,32
   1c4a0:	00d5d6b3          	srl	a3,a1,a3
   1c4a4:	00c78a63          	beq	a5,a2,1c4b8 <__subdf3+0x58a>
   1c4a8:	04000613          	li	a2,64
   1c4ac:	40f607b3          	sub	a5,a2,a5
   1c4b0:	00f597b3          	sll	a5,a1,a5
   1c4b4:	00feeeb3          	or	t4,t4,a5
   1c4b8:	01d03933          	snez	s2,t4
   1c4bc:	00d96933          	or	s2,s2,a3
   1c4c0:	b189                	j	1c102 <__subdf3+0x1d4>
   1c4c2:	fe080793          	add	a5,a6,-32
   1c4c6:	02000693          	li	a3,32
   1c4ca:	00f757b3          	srl	a5,a4,a5
   1c4ce:	00d80a63          	beq	a6,a3,1c4e2 <__subdf3+0x5b4>
   1c4d2:	04000693          	li	a3,64
   1c4d6:	410686b3          	sub	a3,a3,a6
   1c4da:	00d71733          	sll	a4,a4,a3
   1c4de:	00e8e8b3          	or	a7,a7,a4
   1c4e2:	01103533          	snez	a0,a7
   1c4e6:	8d5d                	or	a0,a0,a5
   1c4e8:	b5e9                	j	1c3b2 <__subdf3+0x484>
   1c4ea:	db81                	beqz	a5,1c3fa <__subdf3+0x4cc>
   1c4ec:	01d5eeb3          	or	t4,a1,t4
   1c4f0:	c80e92e3          	bnez	t4,1c174 <__subdf3+0x246>
   1c4f4:	b3f9                	j	1c2c2 <__subdf3+0x394>
   1c4f6:	411e8633          	sub	a2,t4,a7
   1c4fa:	8d99                	sub	a1,a1,a4
   1c4fc:	00ceb733          	sltu	a4,t4,a2
   1c500:	84b2                	mv	s1,a2
   1c502:	40e58933          	sub	s2,a1,a4
   1c506:	8436                	mv	s0,a3
   1c508:	4985                	li	s3,1
   1c50a:	bcd9                	j	1bfe0 <__subdf3+0xb2>
   1c50c:	4785                	li	a5,1
   1c50e:	b365                	j	1c2b6 <__subdf3+0x388>
   1c510:	e2080de3          	beqz	a6,1c34a <__subdf3+0x41c>
   1c514:	060e                	sll	a2,a2,0x3
   1c516:	00365793          	srl	a5,a2,0x3
   1c51a:	01d59813          	sll	a6,a1,0x1d
   1c51e:	00959713          	sll	a4,a1,0x9
   1c522:	00f86833          	or	a6,a6,a5
   1c526:	8331                	srl	a4,a4,0xc
   1c528:	8e36                	mv	t3,a3
   1c52a:	4781                	li	a5,0
   1c52c:	b6a5                	j	1c094 <__subdf3+0x166>
   1c52e:	41d88933          	sub	s2,a7,t4
   1c532:	0128b7b3          	sltu	a5,a7,s2
   1c536:	40b70633          	sub	a2,a4,a1
   1c53a:	8e1d                	sub	a2,a2,a5
   1c53c:	00861793          	sll	a5,a2,0x8
   1c540:	0a07d963          	bgez	a5,1c5f2 <__subdf3+0x6c4>
   1c544:	411e8633          	sub	a2,t4,a7
   1c548:	40e58733          	sub	a4,a1,a4
   1c54c:	00cebeb3          	sltu	t4,t4,a2
   1c550:	41d70733          	sub	a4,a4,t4
   1c554:	00871793          	sll	a5,a4,0x8
   1c558:	84b2                	mv	s1,a2
   1c55a:	0e07d763          	bgez	a5,1c648 <__subdf3+0x71a>
   1c55e:	ff8007b7          	lui	a5,0xff800
   1c562:	17fd                	add	a5,a5,-1 # ff7fffff <__BSS_END__+0xff7e127b>
   1c564:	8f7d                	and	a4,a4,a5
   1c566:	8436                	mv	s0,a3
   1c568:	4785                	li	a5,1
   1c56a:	be19                	j	1c080 <__subdf3+0x152>
   1c56c:	060e                	sll	a2,a2,0x3
   1c56e:	00365513          	srl	a0,a2,0x3
   1c572:	872e                	mv	a4,a1
   1c574:	b38d                	j	1c2d6 <__subdf3+0x3a8>
   1c576:	060e                	sll	a2,a2,0x3
   1c578:	00365913          	srl	s2,a2,0x3
   1c57c:	872e                	mv	a4,a1
   1c57e:	bb79                	j	1c31c <__subdf3+0x3ee>
   1c580:	01d886b3          	add	a3,a7,t4
   1c584:	00b707b3          	add	a5,a4,a1
   1c588:	0116b633          	sltu	a2,a3,a7
   1c58c:	97b2                	add	a5,a5,a2
   1c58e:	00879713          	sll	a4,a5,0x8
   1c592:	0036d813          	srl	a6,a3,0x3
   1c596:	06075d63          	bgez	a4,1c610 <__subdf3+0x6e2>
   1c59a:	ff800737          	lui	a4,0xff800
   1c59e:	177d                	add	a4,a4,-1 # ff7fffff <__BSS_END__+0xff7e127b>
   1c5a0:	8ff9                	and	a5,a5,a4
   1c5a2:	01d79713          	sll	a4,a5,0x1d
   1c5a6:	07a6                	sll	a5,a5,0x9
   1c5a8:	01076833          	or	a6,a4,a6
   1c5ac:	00c7d713          	srl	a4,a5,0xc
   1c5b0:	4785                	li	a5,1
   1c5b2:	b4cd                	j	1c094 <__subdf3+0x166>
   1c5b4:	fe068793          	add	a5,a3,-32
   1c5b8:	02000613          	li	a2,32
   1c5bc:	00f757b3          	srl	a5,a4,a5
   1c5c0:	00c68a63          	beq	a3,a2,1c5d4 <__subdf3+0x6a6>
   1c5c4:	04000613          	li	a2,64
   1c5c8:	40d606b3          	sub	a3,a2,a3
   1c5cc:	00d71733          	sll	a4,a4,a3
   1c5d0:	00e8e8b3          	or	a7,a7,a4
   1c5d4:	01103933          	snez	s2,a7
   1c5d8:	00f96933          	or	s2,s2,a5
   1c5dc:	b125                	j	1c204 <__subdf3+0x2d6>
   1c5de:	0034d513          	srl	a0,s1,0x3
   1c5e2:	87ce                	mv	a5,s3
   1c5e4:	874a                	mv	a4,s2
   1c5e6:	b9c5                	j	1c2d6 <__subdf3+0x3a8>
   1c5e8:	02000693          	li	a3,32
   1c5ec:	8e9d                	sub	a3,a3,a5
   1c5ee:	4601                	li	a2,0
   1c5f0:	b481                	j	1c030 <__subdf3+0x102>
   1c5f2:	00c96833          	or	a6,s2,a2
   1c5f6:	d4080ae3          	beqz	a6,1c34a <__subdf3+0x41c>
   1c5fa:	00395913          	srl	s2,s2,0x3
   1c5fe:	4781                	li	a5,0
   1c600:	8732                	mv	a4,a2
   1c602:	bb29                	j	1c31c <__subdf3+0x3ee>
   1c604:	4e01                	li	t3,0
   1c606:	7ff00793          	li	a5,2047
   1c60a:	00080737          	lui	a4,0x80
   1c60e:	b459                	j	1c094 <__subdf3+0x166>
   1c610:	01d79713          	sll	a4,a5,0x1d
   1c614:	07a6                	sll	a5,a5,0x9
   1c616:	01076833          	or	a6,a4,a6
   1c61a:	00c7d713          	srl	a4,a5,0xc
   1c61e:	4781                	li	a5,0
   1c620:	bc95                	j	1c094 <__subdf3+0x166>
   1c622:	be0789e3          	beqz	a5,1c214 <__subdf3+0x2e6>
   1c626:	413f0833          	sub	a6,t5,s3
   1c62a:	87c2                	mv	a5,a6
   1c62c:	d2098de3          	beqz	s3,1c366 <__subdf3+0x438>
   1c630:	03800793          	li	a5,56
   1c634:	0107c763          	blt	a5,a6,1c642 <__subdf3+0x714>
   1c638:	008007b7          	lui	a5,0x800
   1c63c:	8f5d                	or	a4,a4,a5
   1c63e:	8436                	mv	s0,a3
   1c640:	b3a1                	j	1c388 <__subdf3+0x45a>
   1c642:	8436                	mv	s0,a3
   1c644:	4505                	li	a0,1
   1c646:	b3b5                	j	1c3b2 <__subdf3+0x484>
   1c648:	01d71813          	sll	a6,a4,0x1d
   1c64c:	820d                	srl	a2,a2,0x3
   1c64e:	00c86833          	or	a6,a6,a2
   1c652:	830d                	srl	a4,a4,0x3
   1c654:	4781                	li	a5,0
   1c656:	8436                	mv	s0,a3
   1c658:	b941                	j	1c2e8 <__subdf3+0x3ba>
   1c65a:	c8078ee3          	beqz	a5,1c2f6 <__subdf3+0x3c8>
   1c65e:	413f06b3          	sub	a3,t5,s3
   1c662:	00099463          	bnez	s3,1c66a <__subdf3+0x73c>
   1c666:	87b6                	mv	a5,a3
   1c668:	be81                	j	1c1b8 <__subdf3+0x28a>
   1c66a:	03800793          	li	a5,56
   1c66e:	4905                	li	s2,1
   1c670:	b8d7cae3          	blt	a5,a3,1c204 <__subdf3+0x2d6>
   1c674:	008007b7          	lui	a5,0x800
   1c678:	8f5d                	or	a4,a4,a5
   1c67a:	b685                	j	1c1da <__subdf3+0x2ac>

0001c67c <__unorddf2>:
   1c67c:	0145d713          	srl	a4,a1,0x14
   1c680:	001007b7          	lui	a5,0x100
   1c684:	17fd                	add	a5,a5,-1 # fffff <__BSS_END__+0xe127b>
   1c686:	fff74713          	not	a4,a4
   1c68a:	0146d813          	srl	a6,a3,0x14
   1c68e:	8dfd                	and	a1,a1,a5
   1c690:	8ff5                	and	a5,a5,a3
   1c692:	01571693          	sll	a3,a4,0x15
   1c696:	7ff87813          	and	a6,a6,2047
   1c69a:	ca99                	beqz	a3,1c6b0 <__unorddf2+0x34>
   1c69c:	7ff00713          	li	a4,2047
   1c6a0:	4501                	li	a0,0
   1c6a2:	00e80363          	beq	a6,a4,1c6a8 <__unorddf2+0x2c>
   1c6a6:	8082                	ret
   1c6a8:	8fd1                	or	a5,a5,a2
   1c6aa:	00f03533          	snez	a0,a5
   1c6ae:	8082                	ret
   1c6b0:	8dc9                	or	a1,a1,a0
   1c6b2:	4505                	li	a0,1
   1c6b4:	d5e5                	beqz	a1,1c69c <__unorddf2+0x20>
   1c6b6:	8082                	ret

0001c6b8 <__fixdfsi>:
   1c6b8:	0145d793          	srl	a5,a1,0x14
   1c6bc:	001006b7          	lui	a3,0x100
   1c6c0:	fff68713          	add	a4,a3,-1 # fffff <__BSS_END__+0xe127b>
   1c6c4:	7ff7f793          	and	a5,a5,2047
   1c6c8:	3fe00613          	li	a2,1022
   1c6cc:	8f6d                	and	a4,a4,a1
   1c6ce:	81fd                	srl	a1,a1,0x1f
   1c6d0:	00f65b63          	bge	a2,a5,1c6e6 <__fixdfsi+0x2e>
   1c6d4:	41d00613          	li	a2,1053
   1c6d8:	00f65963          	bge	a2,a5,1c6ea <__fixdfsi+0x32>
   1c6dc:	80000537          	lui	a0,0x80000
   1c6e0:	157d                	add	a0,a0,-1 # 7fffffff <__BSS_END__+0x7ffe127b>
   1c6e2:	952e                	add	a0,a0,a1
   1c6e4:	8082                	ret
   1c6e6:	4501                	li	a0,0
   1c6e8:	8082                	ret
   1c6ea:	43300613          	li	a2,1075
   1c6ee:	8e1d                	sub	a2,a2,a5
   1c6f0:	487d                	li	a6,31
   1c6f2:	8f55                	or	a4,a4,a3
   1c6f4:	00c85d63          	bge	a6,a2,1c70e <__fixdfsi+0x56>
   1c6f8:	41300693          	li	a3,1043
   1c6fc:	40f687b3          	sub	a5,a3,a5
   1c700:	00f75733          	srl	a4,a4,a5
   1c704:	40e00533          	neg	a0,a4
   1c708:	f1e5                	bnez	a1,1c6e8 <__fixdfsi+0x30>
   1c70a:	853a                	mv	a0,a4
   1c70c:	8082                	ret
   1c70e:	bed78793          	add	a5,a5,-1043
   1c712:	00f71733          	sll	a4,a4,a5
   1c716:	00c55533          	srl	a0,a0,a2
   1c71a:	8f49                	or	a4,a4,a0
   1c71c:	b7e5                	j	1c704 <__fixdfsi+0x4c>

0001c71e <__floatsidf>:
   1c71e:	1141                	add	sp,sp,-16
   1c720:	c606                	sw	ra,12(sp)
   1c722:	c422                	sw	s0,8(sp)
   1c724:	c226                	sw	s1,4(sp)
   1c726:	cd15                	beqz	a0,1c762 <__floatsidf+0x44>
   1c728:	41f55713          	sra	a4,a0,0x1f
   1c72c:	00a744b3          	xor	s1,a4,a0
   1c730:	8c99                	sub	s1,s1,a4
   1c732:	87aa                	mv	a5,a0
   1c734:	8526                	mv	a0,s1
   1c736:	01f7d413          	srl	s0,a5,0x1f
   1c73a:	af3f40ef          	jal	1122c <__clzsi2>
   1c73e:	41e00793          	li	a5,1054
   1c742:	8f89                	sub	a5,a5,a0
   1c744:	4729                	li	a4,10
   1c746:	7ff7f793          	and	a5,a5,2047
   1c74a:	02a74b63          	blt	a4,a0,1c780 <__floatsidf+0x62>
   1c74e:	472d                	li	a4,11
   1c750:	8f09                	sub	a4,a4,a0
   1c752:	00e4d733          	srl	a4,s1,a4
   1c756:	0555                	add	a0,a0,21
   1c758:	0732                	sll	a4,a4,0xc
   1c75a:	00a494b3          	sll	s1,s1,a0
   1c75e:	8331                	srl	a4,a4,0xc
   1c760:	a029                	j	1c76a <__floatsidf+0x4c>
   1c762:	4401                	li	s0,0
   1c764:	4781                	li	a5,0
   1c766:	4701                	li	a4,0
   1c768:	4481                	li	s1,0
   1c76a:	07d2                	sll	a5,a5,0x14
   1c76c:	047e                	sll	s0,s0,0x1f
   1c76e:	8fd9                	or	a5,a5,a4
   1c770:	40b2                	lw	ra,12(sp)
   1c772:	8fc1                	or	a5,a5,s0
   1c774:	4422                	lw	s0,8(sp)
   1c776:	8526                	mv	a0,s1
   1c778:	85be                	mv	a1,a5
   1c77a:	4492                	lw	s1,4(sp)
   1c77c:	0141                	add	sp,sp,16
   1c77e:	8082                	ret
   1c780:	1555                	add	a0,a0,-11
   1c782:	00a49733          	sll	a4,s1,a0
   1c786:	0732                	sll	a4,a4,0xc
   1c788:	8331                	srl	a4,a4,0xc
   1c78a:	4481                	li	s1,0
   1c78c:	bff9                	j	1c76a <__floatsidf+0x4c>

0001c78e <__floatunsidf>:
   1c78e:	1141                	add	sp,sp,-16
   1c790:	c422                	sw	s0,8(sp)
   1c792:	c606                	sw	ra,12(sp)
   1c794:	842a                	mv	s0,a0
   1c796:	cd05                	beqz	a0,1c7ce <__floatunsidf+0x40>
   1c798:	a95f40ef          	jal	1122c <__clzsi2>
   1c79c:	41e00793          	li	a5,1054
   1c7a0:	8f89                	sub	a5,a5,a0
   1c7a2:	4729                	li	a4,10
   1c7a4:	7ff7f793          	and	a5,a5,2047
   1c7a8:	02a74d63          	blt	a4,a0,1c7e2 <__floatunsidf+0x54>
   1c7ac:	472d                	li	a4,11
   1c7ae:	8f09                	sub	a4,a4,a0
   1c7b0:	0555                	add	a0,a0,21
   1c7b2:	00e45733          	srl	a4,s0,a4
   1c7b6:	00a41433          	sll	s0,s0,a0
   1c7ba:	40b2                	lw	ra,12(sp)
   1c7bc:	8522                	mv	a0,s0
   1c7be:	0732                	sll	a4,a4,0xc
   1c7c0:	4422                	lw	s0,8(sp)
   1c7c2:	8331                	srl	a4,a4,0xc
   1c7c4:	07d2                	sll	a5,a5,0x14
   1c7c6:	8fd9                	or	a5,a5,a4
   1c7c8:	85be                	mv	a1,a5
   1c7ca:	0141                	add	sp,sp,16
   1c7cc:	8082                	ret
   1c7ce:	40b2                	lw	ra,12(sp)
   1c7d0:	8522                	mv	a0,s0
   1c7d2:	4781                	li	a5,0
   1c7d4:	4422                	lw	s0,8(sp)
   1c7d6:	4701                	li	a4,0
   1c7d8:	07d2                	sll	a5,a5,0x14
   1c7da:	8fd9                	or	a5,a5,a4
   1c7dc:	85be                	mv	a1,a5
   1c7de:	0141                	add	sp,sp,16
   1c7e0:	8082                	ret
   1c7e2:	1555                	add	a0,a0,-11
   1c7e4:	00a41733          	sll	a4,s0,a0
   1c7e8:	4401                	li	s0,0
   1c7ea:	40b2                	lw	ra,12(sp)
   1c7ec:	8522                	mv	a0,s0
   1c7ee:	0732                	sll	a4,a4,0xc
   1c7f0:	4422                	lw	s0,8(sp)
   1c7f2:	8331                	srl	a4,a4,0xc
   1c7f4:	07d2                	sll	a5,a5,0x14
   1c7f6:	8fd9                	or	a5,a5,a4
   1c7f8:	85be                	mv	a1,a5
   1c7fa:	0141                	add	sp,sp,16
   1c7fc:	8082                	ret

0001c7fe <__trunctfdf2>:
   1c7fe:	454c                	lw	a1,12(a0)
   1c800:	451c                	lw	a5,8(a0)
   1c802:	00052803          	lw	a6,0(a0)
   1c806:	4154                	lw	a3,4(a0)
   1c808:	01059613          	sll	a2,a1,0x10
   1c80c:	1101                	add	sp,sp,-32
   1c80e:	00159713          	sll	a4,a1,0x1
   1c812:	8241                	srl	a2,a2,0x10
   1c814:	c43e                	sw	a5,8(sp)
   1c816:	c62e                	sw	a1,12(sp)
   1c818:	cc3e                	sw	a5,24(sp)
   1c81a:	c042                	sw	a6,0(sp)
   1c81c:	c236                	sw	a3,4(sp)
   1c81e:	c842                	sw	a6,16(sp)
   1c820:	ca36                	sw	a3,20(sp)
   1c822:	ce32                	sw	a2,28(sp)
   1c824:	8345                	srl	a4,a4,0x11
   1c826:	81fd                	srl	a1,a1,0x1f
   1c828:	01010893          	add	a7,sp,16
   1c82c:	087c                	add	a5,sp,28
   1c82e:	00361513          	sll	a0,a2,0x3
   1c832:	ffc7a603          	lw	a2,-4(a5)
   1c836:	17f1                	add	a5,a5,-4
   1c838:	01d65693          	srl	a3,a2,0x1d
   1c83c:	8ec9                	or	a3,a3,a0
   1c83e:	c3d4                	sw	a3,4(a5)
   1c840:	fef897e3          	bne	a7,a5,1c82e <__trunctfdf2+0x30>
   1c844:	00170693          	add	a3,a4,1 # 80001 <__BSS_END__+0x6127d>
   1c848:	080e                	sll	a6,a6,0x3
   1c84a:	01169613          	sll	a2,a3,0x11
   1c84e:	c842                	sw	a6,16(sp)
   1c850:	8249                	srl	a2,a2,0x12
   1c852:	c60d                	beqz	a2,1c87c <__trunctfdf2+0x7e>
   1c854:	76f1                	lui	a3,0xffffc
   1c856:	40068693          	add	a3,a3,1024 # ffffc400 <__BSS_END__+0xfffdd67c>
   1c85a:	9736                	add	a4,a4,a3
   1c85c:	7fe00693          	li	a3,2046
   1c860:	0ae6d363          	bge	a3,a4,1c906 <__trunctfdf2+0x108>
   1c864:	7ff00793          	li	a5,2047
   1c868:	4601                	li	a2,0
   1c86a:	4681                	li	a3,0
   1c86c:	07d2                	sll	a5,a5,0x14
   1c86e:	05fe                	sll	a1,a1,0x1f
   1c870:	8fd1                	or	a5,a5,a2
   1c872:	8fcd                	or	a5,a5,a1
   1c874:	8536                	mv	a0,a3
   1c876:	85be                	mv	a1,a5
   1c878:	6105                	add	sp,sp,32
   1c87a:	8082                	ret
   1c87c:	4652                	lw	a2,20(sp)
   1c87e:	48e2                	lw	a7,24(sp)
   1c880:	4572                	lw	a0,28(sp)
   1c882:	011666b3          	or	a3,a2,a7
   1c886:	8ec9                	or	a3,a3,a0
   1c888:	0106e6b3          	or	a3,a3,a6
   1c88c:	e70d                	bnez	a4,1c8b6 <__trunctfdf2+0xb8>
   1c88e:	cef1                	beqz	a3,1c96a <__trunctfdf2+0x16c>
   1c890:	4695                	li	a3,5
   1c892:	4601                	li	a2,0
   1c894:	0036d793          	srl	a5,a3,0x3
   1c898:	01d61693          	sll	a3,a2,0x1d
   1c89c:	8edd                	or	a3,a3,a5
   1c89e:	0626                	sll	a2,a2,0x9
   1c8a0:	7ff77793          	and	a5,a4,2047
   1c8a4:	8231                	srl	a2,a2,0xc
   1c8a6:	07d2                	sll	a5,a5,0x14
   1c8a8:	05fe                	sll	a1,a1,0x1f
   1c8aa:	8fd1                	or	a5,a5,a2
   1c8ac:	8fcd                	or	a5,a5,a1
   1c8ae:	8536                	mv	a0,a3
   1c8b0:	85be                	mv	a1,a5
   1c8b2:	6105                	add	sp,sp,32
   1c8b4:	8082                	ret
   1c8b6:	c6e1                	beqz	a3,1c97e <__trunctfdf2+0x180>
   1c8b8:	01c8d793          	srl	a5,a7,0x1c
   1c8bc:	0512                	sll	a0,a0,0x4
   1c8be:	8fc9                	or	a5,a5,a0
   1c8c0:	008006b7          	lui	a3,0x800
   1c8c4:	8efd                	and	a3,a3,a5
   1c8c6:	12068e63          	beqz	a3,1ca02 <__trunctfdf2+0x204>
   1c8ca:	ff800737          	lui	a4,0xff800
   1c8ce:	01c65693          	srl	a3,a2,0x1c
   1c8d2:	0892                	sll	a7,a7,0x4
   1c8d4:	177d                	add	a4,a4,-1 # ff7fffff <__BSS_END__+0xff7e127b>
   1c8d6:	00e7f633          	and	a2,a5,a4
   1c8da:	0116e6b3          	or	a3,a3,a7
   1c8de:	004007b7          	lui	a5,0x400
   1c8e2:	8e5d                	or	a2,a2,a5
   1c8e4:	9ae1                	and	a3,a3,-8
   1c8e6:	4781                	li	a5,0
   1c8e8:	0036d713          	srl	a4,a3,0x3
   1c8ec:	01d61693          	sll	a3,a2,0x1d
   1c8f0:	0626                	sll	a2,a2,0x9
   1c8f2:	8231                	srl	a2,a2,0xc
   1c8f4:	07d2                	sll	a5,a5,0x14
   1c8f6:	05fe                	sll	a1,a1,0x1f
   1c8f8:	8fd1                	or	a5,a5,a2
   1c8fa:	8ed9                	or	a3,a3,a4
   1c8fc:	8fcd                	or	a5,a5,a1
   1c8fe:	8536                	mv	a0,a3
   1c900:	85be                	mv	a1,a5
   1c902:	6105                	add	sp,sp,32
   1c904:	8082                	ret
   1c906:	08e05763          	blez	a4,1c994 <__trunctfdf2+0x196>
   1c90a:	47d2                	lw	a5,20(sp)
   1c90c:	4562                	lw	a0,24(sp)
   1c90e:	4672                	lw	a2,28(sp)
   1c910:	00479693          	sll	a3,a5,0x4
   1c914:	0106e6b3          	or	a3,a3,a6
   1c918:	83f1                	srl	a5,a5,0x1c
   1c91a:	00451813          	sll	a6,a0,0x4
   1c91e:	0612                	sll	a2,a2,0x4
   1c920:	8171                	srl	a0,a0,0x1c
   1c922:	00d036b3          	snez	a3,a3
   1c926:	0107e7b3          	or	a5,a5,a6
   1c92a:	8e49                	or	a2,a2,a0
   1c92c:	8edd                	or	a3,a3,a5
   1c92e:	0076f793          	and	a5,a3,7
   1c932:	cf81                	beqz	a5,1c94a <__trunctfdf2+0x14c>
   1c934:	00f6f793          	and	a5,a3,15
   1c938:	4511                	li	a0,4
   1c93a:	00a78863          	beq	a5,a0,1c94a <__trunctfdf2+0x14c>
   1c93e:	00468793          	add	a5,a3,4 # 800004 <__BSS_END__+0x7e1280>
   1c942:	00d7b6b3          	sltu	a3,a5,a3
   1c946:	9636                	add	a2,a2,a3
   1c948:	86be                	mv	a3,a5
   1c94a:	008007b7          	lui	a5,0x800
   1c94e:	8ff1                	and	a5,a5,a2
   1c950:	d3b1                	beqz	a5,1c894 <__trunctfdf2+0x96>
   1c952:	0705                	add	a4,a4,1
   1c954:	7ff00793          	li	a5,2047
   1c958:	f0f706e3          	beq	a4,a5,1c864 <__trunctfdf2+0x66>
   1c95c:	ff8007b7          	lui	a5,0xff800
   1c960:	17fd                	add	a5,a5,-1 # ff7fffff <__BSS_END__+0xff7e127b>
   1c962:	8e7d                	and	a2,a2,a5
   1c964:	7ff77793          	and	a5,a4,2047
   1c968:	b741                	j	1c8e8 <__trunctfdf2+0xea>
   1c96a:	4781                	li	a5,0
   1c96c:	4601                	li	a2,0
   1c96e:	07d2                	sll	a5,a5,0x14
   1c970:	05fe                	sll	a1,a1,0x1f
   1c972:	8fd1                	or	a5,a5,a2
   1c974:	8fcd                	or	a5,a5,a1
   1c976:	8536                	mv	a0,a3
   1c978:	85be                	mv	a1,a5
   1c97a:	6105                	add	sp,sp,32
   1c97c:	8082                	ret
   1c97e:	7ff00793          	li	a5,2047
   1c982:	4601                	li	a2,0
   1c984:	07d2                	sll	a5,a5,0x14
   1c986:	05fe                	sll	a1,a1,0x1f
   1c988:	8fd1                	or	a5,a5,a2
   1c98a:	8fcd                	or	a5,a5,a1
   1c98c:	8536                	mv	a0,a3
   1c98e:	85be                	mv	a1,a5
   1c990:	6105                	add	sp,sp,32
   1c992:	8082                	ret
   1c994:	fcc00693          	li	a3,-52
   1c998:	06d74b63          	blt	a4,a3,1ca0e <__trunctfdf2+0x210>
   1c99c:	03d00693          	li	a3,61
   1c9a0:	8e99                	sub	a3,a3,a4
   1c9a2:	4772                	lw	a4,28(sp)
   1c9a4:	4056de13          	sra	t3,a3,0x5
   1c9a8:	00080eb7          	lui	t4,0x80
   1c9ac:	00eeeeb3          	or	t4,t4,a4
   1c9b0:	002e1513          	sll	a0,t3,0x2
   1c9b4:	ce76                	sw	t4,28(sp)
   1c9b6:	8afd                	and	a3,a3,31
   1c9b8:	00a88833          	add	a6,a7,a0
   1c9bc:	8646                	mv	a2,a7
   1c9be:	4701                	li	a4,0
   1c9c0:	00062303          	lw	t1,0(a2)
   1c9c4:	0611                	add	a2,a2,4
   1c9c6:	00676733          	or	a4,a4,t1
   1c9ca:	fec81be3          	bne	a6,a2,1c9c0 <__trunctfdf2+0x1c2>
   1c9ce:	460d                	li	a2,3
   1c9d0:	41c60633          	sub	a2,a2,t3
   1c9d4:	ee9d                	bnez	a3,1ca12 <__trunctfdf2+0x214>
   1c9d6:	00082803          	lw	a6,0(a6)
   1c9da:	0685                	add	a3,a3,1
   1c9dc:	0791                	add	a5,a5,4
   1c9de:	ff07ae23          	sw	a6,-4(a5)
   1c9e2:	00d64c63          	blt	a2,a3,1c9fa <__trunctfdf2+0x1fc>
   1c9e6:	00a78833          	add	a6,a5,a0
   1c9ea:	00082803          	lw	a6,0(a6)
   1c9ee:	0685                	add	a3,a3,1
   1c9f0:	0791                	add	a5,a5,4
   1c9f2:	ff07ae23          	sw	a6,-4(a5)
   1c9f6:	fed658e3          	bge	a2,a3,1c9e6 <__trunctfdf2+0x1e8>
   1c9fa:	4791                	li	a5,4
   1c9fc:	41c787b3          	sub	a5,a5,t3
   1ca00:	a0b5                	j	1ca6c <__trunctfdf2+0x26e>
   1ca02:	4581                	li	a1,0
   1ca04:	7ff00793          	li	a5,2047
   1ca08:	00080637          	lui	a2,0x80
   1ca0c:	b585                	j	1c86c <__trunctfdf2+0x6e>
   1ca0e:	4701                	li	a4,0
   1ca10:	b541                	j	1c890 <__trunctfdf2+0x92>
   1ca12:	02050813          	add	a6,a0,32
   1ca16:	980a                	add	a6,a6,sp
   1ca18:	ff082803          	lw	a6,-16(a6)
   1ca1c:	02000f13          	li	t5,32
   1ca20:	40df0f33          	sub	t5,t5,a3
   1ca24:	01e81833          	sll	a6,a6,t5
   1ca28:	01076733          	or	a4,a4,a6
   1ca2c:	ca3d                	beqz	a2,1caa2 <__trunctfdf2+0x2a4>
   1ca2e:	00261813          	sll	a6,a2,0x2
   1ca32:	00f80fb3          	add	t6,a6,a5
   1ca36:	00a88633          	add	a2,a7,a0
   1ca3a:	4208                	lw	a0,0(a2)
   1ca3c:	00462303          	lw	t1,4(a2) # 80004 <__BSS_END__+0x61280>
   1ca40:	0791                	add	a5,a5,4
   1ca42:	00d55533          	srl	a0,a0,a3
   1ca46:	01e31333          	sll	t1,t1,t5
   1ca4a:	00656533          	or	a0,a0,t1
   1ca4e:	fea7ae23          	sw	a0,-4(a5)
   1ca52:	0611                	add	a2,a2,4
   1ca54:	feff93e3          	bne	t6,a5,1ca3a <__trunctfdf2+0x23c>
   1ca58:	4791                	li	a5,4
   1ca5a:	41c787b3          	sub	a5,a5,t3
   1ca5e:	02080613          	add	a2,a6,32
   1ca62:	960a                	add	a2,a2,sp
   1ca64:	00dedeb3          	srl	t4,t4,a3
   1ca68:	ffd62823          	sw	t4,-16(a2)
   1ca6c:	4691                	li	a3,4
   1ca6e:	8e9d                	sub	a3,a3,a5
   1ca70:	068a                	sll	a3,a3,0x2
   1ca72:	078a                	sll	a5,a5,0x2
   1ca74:	4621                	li	a2,8
   1ca76:	98be                	add	a7,a7,a5
   1ca78:	00c6e863          	bltu	a3,a2,1ca88 <__trunctfdf2+0x28a>
   1ca7c:	0008a023          	sw	zero,0(a7)
   1ca80:	0008a223          	sw	zero,4(a7)
   1ca84:	16e1                	add	a3,a3,-8
   1ca86:	08a1                	add	a7,a7,8
   1ca88:	4791                	li	a5,4
   1ca8a:	00f6e463          	bltu	a3,a5,1ca92 <__trunctfdf2+0x294>
   1ca8e:	0008a023          	sw	zero,0(a7)
   1ca92:	47c2                	lw	a5,16(sp)
   1ca94:	00e03733          	snez	a4,a4
   1ca98:	4652                	lw	a2,20(sp)
   1ca9a:	00f766b3          	or	a3,a4,a5
   1ca9e:	4701                	li	a4,0
   1caa0:	b579                	j	1c92e <__trunctfdf2+0x130>
   1caa2:	4785                	li	a5,1
   1caa4:	4801                	li	a6,0
   1caa6:	bf65                	j	1ca5e <__trunctfdf2+0x260>
